Microsoft (R) Debugging Information Dumper  Version 14.00.23611
Copyright (C) Microsoft Corporation.  All rights reserved.


*** IDs

0x1000 : Length = 16, Leaf = 0x1607 LF_UDT_MOD_SRC_LINE
	type = 0x1001, mod = 2, source file = C:\Program Files (x86)\Windows Kits\10\Include\10.0.19041.0\um\winnt.h, line = 15760

0x1001 : Length = 16, Leaf = 0x1607 LF_UDT_MOD_SRC_LINE
	type = 0x1003, mod = 2, source file = C:\Users\matth\Documents\projects\tinyxml2\tinyxml2.h, line = 1705

0x1002 : Length = 16, Leaf = 0x1607 LF_UDT_MOD_SRC_LINE
	type = 0x1005, mod = 2, source file = C:\Program Files (x86)\Windows Kits\10\Include\10.0.19041.0\um\winnt.h, line = 19208

0x1003 : Length = 16, Leaf = 0x1607 LF_UDT_MOD_SRC_LINE
	type = 0x1007, mod = 2, source file = C:\Program Files (x86)\Windows Kits\10\Include\10.0.19041.0\um\winnt.h, line = 22651

0x1004 : Length = 16, Leaf = 0x1607 LF_UDT_MOD_SRC_LINE
	type = 0x100C, mod = 2, source file = C:\Program Files (x86)\Windows Kits\10\Include\10.0.19041.0\ucrt\crtdbg.h, line = 120

0x1005 : Length = 16, Leaf = 0x1607 LF_UDT_MOD_SRC_LINE
	type = 0x100E, mod = 2, source file = C:\Program Files (x86)\Windows Kits\10\Include\10.0.19041.0\um\wingdi.h, line = 2827

0x1006 : Length = 16, Leaf = 0x1607 LF_UDT_MOD_SRC_LINE
	type = 0x1010, mod = 2, source file = C:\Program Files (x86)\Windows Kits\10\Include\10.0.19041.0\um\winnt.h, line = 12156

0x1007 : Length = 16, Leaf = 0x1607 LF_UDT_MOD_SRC_LINE
	type = 0x1012, mod = 2, source file = C:\Program Files (x86)\Windows Kits\10\Include\10.0.19041.0\um\winnt.h, line = 12188

0x1008 : Length = 16, Leaf = 0x1607 LF_UDT_MOD_SRC_LINE
	type = 0x1015, mod = 2, source file = C:\Users\matth\Documents\projects\tinyxml2\tinyxml2.h, line = 523

0x1009 : Length = 16, Leaf = 0x1607 LF_UDT_MOD_SRC_LINE
	type = 0x1018, mod = 2, source file = C:\Program Files (x86)\Windows Kits\10\Include\10.0.19041.0\um\winnt.h, line = 850

0x100a : Length = 16, Leaf = 0x1607 LF_UDT_MOD_SRC_LINE
	type = 0x101A, mod = 2, source file = C:\Program Files (x86)\Windows Kits\10\Include\10.0.19041.0\um\winnt.h, line = 855

0x100b : Length = 16, Leaf = 0x1607 LF_UDT_MOD_SRC_LINE
	type = 0x105E, mod = 2, source file = C:\Users\matth\Documents\projects\tinyxml2\tinyxml2.h, line = 1140

0x100c : Length = 16, Leaf = 0x1607 LF_UDT_MOD_SRC_LINE
	type = 0x1085, mod = 2, source file = C:\Users\matth\Documents\projects\tinyxml2\tinyxml2.h, line = 1105

0x100d : Length = 16, Leaf = 0x1607 LF_UDT_MOD_SRC_LINE
	type = 0x10DC, mod = 2, source file = C:\Users\matth\Documents\projects\tinyxml2\tinyxml2.h, line = 2237

0x100e : Length = 16, Leaf = 0x1607 LF_UDT_MOD_SRC_LINE
	type = 0x10F1, mod = 2, source file = C:\Users\matth\Documents\projects\tinyxml2\tinyxml2.h, line = 1031

0x100f : Length = 16, Leaf = 0x1607 LF_UDT_MOD_SRC_LINE
	type = 0x1110, mod = 2, source file = C:\Users\matth\Documents\projects\tinyxml2\xmltest.cpp, line = 2380

0x1010 : Length = 16, Leaf = 0x1607 LF_UDT_MOD_SRC_LINE
	type = 0x112B, mod = 2, source file = C:\Users\matth\Documents\projects\tinyxml2\tinyxml2.h, line = 1953

0x1011 : Length = 16, Leaf = 0x1607 LF_UDT_MOD_SRC_LINE
	type = 0x112E, mod = 2, source file = C:\Users\matth\Documents\projects\tinyxml2\tinyxml2.h, line = 448

0x1012 : Length = 16, Leaf = 0x1607 LF_UDT_MOD_SRC_LINE
	type = 0x1131, mod = 2, source file = C:\Users\matth\Documents\projects\tinyxml2\tinyxml2.h, line = 444

0x1013 : Length = 16, Leaf = 0x1607 LF_UDT_MOD_SRC_LINE
	type = 0x1156, mod = 2, source file = C:\Users\matth\Documents\projects\tinyxml2\tinyxml2.h, line = 451

0x1014 : Length = 16, Leaf = 0x1607 LF_UDT_MOD_SRC_LINE
	type = 0x1171, mod = 2, source file = C:\Users\matth\Documents\projects\tinyxml2\tinyxml2.h, line = 2133

0x1015 : Length = 16, Leaf = 0x1607 LF_UDT_MOD_SRC_LINE
	type = 0x1196, mod = 2, source file = C:\Users\matth\Documents\projects\tinyxml2\tinyxml2.h, line = 451

0x1016 : Length = 16, Leaf = 0x1607 LF_UDT_MOD_SRC_LINE
	type = 0x11BB, mod = 2, source file = C:\Users\matth\Documents\projects\tinyxml2\tinyxml2.h, line = 451

0x1017 : Length = 16, Leaf = 0x1607 LF_UDT_MOD_SRC_LINE
	type = 0x11DE, mod = 2, source file = C:\Users\matth\Documents\projects\tinyxml2\tinyxml2.h, line = 451

0x1018 : Length = 16, Leaf = 0x1607 LF_UDT_MOD_SRC_LINE
	type = 0x11FA, mod = 2, source file = C:\Users\matth\Documents\projects\tinyxml2\tinyxml2.h, line = 2366

0x1019 : Length = 16, Leaf = 0x1607 LF_UDT_MOD_SRC_LINE
	type = 0x1211, mod = 2, source file = C:\Users\matth\Documents\projects\tinyxml2\tinyxml2.h, line = 1952

0x101a : Length = 16, Leaf = 0x1607 LF_UDT_MOD_SRC_LINE
	type = 0x1214, mod = 2, source file = C:\Users\matth\Documents\projects\tinyxml2\tinyxml2.h, line = 448

0x101b : Length = 16, Leaf = 0x1607 LF_UDT_MOD_SRC_LINE
	type = 0x1217, mod = 2, source file = C:\Users\matth\Documents\projects\tinyxml2\tinyxml2.h, line = 444

0x101c : Length = 16, Leaf = 0x1607 LF_UDT_MOD_SRC_LINE
	type = 0x1229, mod = 2, source file = C:\Users\matth\Documents\projects\tinyxml2\tinyxml2.h, line = 330

0x101d : Length = 16, Leaf = 0x1607 LF_UDT_MOD_SRC_LINE
	type = 0x1264, mod = 2, source file = C:\Users\matth\Documents\projects\tinyxml2\tinyxml2.h, line = 674

0x101e : Length = 16, Leaf = 0x1607 LF_UDT_MOD_SRC_LINE
	type = 0x1285, mod = 2, source file = C:\Users\matth\Documents\projects\tinyxml2\tinyxml2.h, line = 2342

0x101f : Length = 16, Leaf = 0x1607 LF_UDT_MOD_SRC_LINE
	type = 0x1298, mod = 2, source file = C:\Users\matth\Documents\projects\tinyxml2\tinyxml2.h, line = 1070

0x1020 : Length = 16, Leaf = 0x1607 LF_UDT_MOD_SRC_LINE
	type = 0x12AD, mod = 2, source file = C:\Users\matth\Documents\projects\tinyxml2\tinyxml2.h, line = 991

0x1021 : Length = 16, Leaf = 0x1607 LF_UDT_MOD_SRC_LINE
	type = 0x12C4, mod = 2, source file = C:\Users\matth\Documents\projects\tinyxml2\tinyxml2.h, line = 1951

0x1022 : Length = 16, Leaf = 0x1607 LF_UDT_MOD_SRC_LINE
	type = 0x12C7, mod = 2, source file = C:\Users\matth\Documents\projects\tinyxml2\tinyxml2.h, line = 448

0x1023 : Length = 16, Leaf = 0x1607 LF_UDT_MOD_SRC_LINE
	type = 0x12CA, mod = 2, source file = C:\Users\matth\Documents\projects\tinyxml2\tinyxml2.h, line = 444

0x1024 : Length = 16, Leaf = 0x1607 LF_UDT_MOD_SRC_LINE
	type = 0x12E1, mod = 2, source file = C:\Users\matth\Documents\projects\tinyxml2\tinyxml2.h, line = 1954

0x1025 : Length = 16, Leaf = 0x1607 LF_UDT_MOD_SRC_LINE
	type = 0x12E4, mod = 2, source file = C:\Users\matth\Documents\projects\tinyxml2\tinyxml2.h, line = 448

0x1026 : Length = 16, Leaf = 0x1607 LF_UDT_MOD_SRC_LINE
	type = 0x12E7, mod = 2, source file = C:\Users\matth\Documents\projects\tinyxml2\tinyxml2.h, line = 444

0x1027 : Length = 16, Leaf = 0x1607 LF_UDT_MOD_SRC_LINE
	type = 0x1345, mod = 2, source file = C:\Users\matth\Documents\projects\tinyxml2\tinyxml2.h, line = 1264

0x1028 : Length = 16, Leaf = 0x1607 LF_UDT_MOD_SRC_LINE
	type = 0x1363, mod = 2, source file = C:\Users\matth\Documents\projects\tinyxml2\tinyxml2.h, line = 136

0x1029 : Length = 16, Leaf = 0x1607 LF_UDT_MOD_SRC_LINE
	type = 0x1384, mod = 2, source file = C:\Users\matth\Documents\projects\tinyxml2\tinyxml2.h, line = 1949

0x102a : Length = 16, Leaf = 0x1607 LF_UDT_MOD_SRC_LINE
	type = 0x139D, mod = 2, source file = C:\Users\matth\Documents\projects\tinyxml2\tinyxml2.h, line = 481

0x102b : Length = 16, Leaf = 0x1607 LF_UDT_MOD_SRC_LINE
	type = 0x13D7, mod = 2, source file = C:\Users\matth\Documents\projects\tinyxml2\tinyxml2.h, line = 1716

0x102c : Length = 16, Leaf = 0x1607 LF_UDT_MOD_SRC_LINE
	type = 0x13DE, mod = 2, source file = C:\Users\matth\Documents\projects\tinyxml2\tinyxml2.h, line = 1965

0x102d : Length = 16, Leaf = 0x1607 LF_UDT_MOD_SRC_LINE
	type = 0x13F4, mod = 2, source file = C:\Users\matth\Documents\projects\tinyxml2\tinyxml2.h, line = 2052

0x102e : Length = 16, Leaf = 0x1607 LF_UDT_MOD_SRC_LINE
	type = 0x13F8, mod = 2, source file = C:\Program Files (x86)\Windows Kits\10\Include\10.0.19041.0\ucrt\stdlib.h, line = 281

0x102f : Length = 16, Leaf = 0x1607 LF_UDT_MOD_SRC_LINE
	type = 0x13FA, mod = 2, source file = C:\Program Files (x86)\Windows Kits\10\Include\10.0.19041.0\ucrt\corecrt_wstdio.h, line = 28

0x1030 : Length = 16, Leaf = 0x1607 LF_UDT_MOD_SRC_LINE
	type = 0x1400, mod = 2, source file = C:\Program Files (x86)\Windows Kits\10\Include\10.0.19041.0\ucrt\corecrt.h, line = 603

0x1031 : Length = 54, Leaf = 0x1605 LF_STRING_ID
	C:\Users\matth\Documents\projects\tinyxml2\vs
	No sub string

0x1032 : Length = 114, Leaf = 0x1605 LF_STRING_ID
	C:\Program Files\Microsoft Visual Studio\2022\Community\VC\Tools\MSVC\14.33.31629\bin\HostX86\x86\CL.exe
	No sub string

0x1033 : Length = 22, Leaf = 0x1605 LF_STRING_ID
	..\xmltest.cpp
	No sub string

0x1034 : Length = 70, Leaf = 0x1605 LF_STRING_ID
	C:\Users\matth\Documents\projects\tinyxml2\vs\Debug\vc143.pdb
	No sub string

0x1035 : Length = 266, Leaf = 0x1605 LF_STRING_ID
	-c -ZI -JMC -nologo -W3 -WX- -diagnostics:column -sdl -Od -Oy- -DWIN32 -D_DEBUG -D_CONSOLE -D_UNICODE -DUNICODE -Gm- -EHs -EHc -RTC1 -MDd -GS -fp:precise -Zc:wchar_t -Zc:forScope -Zc:inline -permissive- -FoC:\Users\matth\Documents\projects\tinyxml2\vs\Debug\
	No sub string

0x1036 : Length = 238, Leaf = 0x1605 LF_STRING_ID
	 -FdC:\Users\matth\Documents\projects\tinyxml2\vs\Debug\vc143.pdb -external:W3 -Gd -TP -analyze- -FC -errorreport:prompt -I"C:\Program Files\Microsoft Visual Studio\2022\Community\VC\Tools\MSVC\14.33.31629\include" -I"C:\Program
	No sub string

0x1037 : Length = 250, Leaf = 0x1605 LF_STRING_ID
	 Files\Microsoft Visual Studio\2022\Community\VC\Tools\MSVC\14.33.31629\atlmfc\include" -I"C:\Program Files\Microsoft Visual Studio\2022\Community\VC\Auxiliary\VS\include" -I"C:\Program Files (x86)\Windows Kits\10\Include\10.0.19041.0\ucrt"
	No sub string

0x1038 : Length = 238, Leaf = 0x1605 LF_STRING_ID
	 -I"C:\Program Files (x86)\Windows Kits\10\Include\10.0.19041.0\um" -I"C:\Program Files (x86)\Windows Kits\10\Include\10.0.19041.0\shared" -I"C:\Program Files (x86)\Windows Kits\10\Include\10.0.19041.0\winrt" -I"C:\Program Files
	No sub string

0x1039 : Length = 246, Leaf = 0x1605 LF_STRING_ID
	 (x86)\Windows Kits\10\Include\10.0.19041.0\cppwinrt" -IC:\Users\matth\Documents\projects\tinyxml2\vs\Include\um -external:I"C:\Program Files\Microsoft Visual Studio\2022\Community\VC\Tools\MSVC\14.33.31629\include" -external:I"C:\Program
	No sub string

0x103a : Length = 266, Leaf = 0x1605 LF_STRING_ID
	 Files\Microsoft Visual Studio\2022\Community\VC\Tools\MSVC\14.33.31629\atlmfc\include" -external:I"C:\Program Files\Microsoft Visual Studio\2022\Community\VC\Auxiliary\VS\include" -external:I"C:\Program Files (x86)\Windows Kits\10\Include\10.0.19041.0\ucrt"
	No sub string

0x103b : Length = 242, Leaf = 0x1605 LF_STRING_ID
	 -external:I"C:\Program Files (x86)\Windows Kits\10\Include\10.0.19041.0\um" -external:I"C:\Program Files (x86)\Windows Kits\10\Include\10.0.19041.0\shared" -external:I"C:\Program Files (x86)\Windows Kits\10\Include\10.0.19041.0\winrt"
	No sub string

0x103c : Length = 34, Leaf = 0x1604 LF_SUBSTR_LIST
	String ID's (count = 7): 0x1035 0x1036 0x1037 0x1038 0x1039 0x103A 0x103B

0x103d : Length = 162, Leaf = 0x1605 LF_STRING_ID
	 -external:I"C:\Program Files (x86)\Windows Kits\10\Include\10.0.19041.0\cppwinrt" -external:IC:\Users\matth\Documents\projects\tinyxml2\vs\Include\um -X
	List of sub string ID's = 0x103C

0x103e : Length = 26, Leaf = 0x1603 LF_BUILDINFO
	String ID's (count = 5): 0x1031 0x1032 0x1033 0x1034 0x103D

0x103f : Length = 16, Leaf = 0x1607 LF_UDT_MOD_SRC_LINE
	type = 0x1441, mod = 2, source file = C:\Users\matth\Documents\projects\tinyxml2\xmltest.cpp, line = 2348

0x1040 : Length = 16, Leaf = 0x1607 LF_UDT_MOD_SRC_LINE
	type = 0x1462, mod = 3, source file = C:\Program Files\Microsoft Visual Studio\2022\Community\VC\Tools\MSVC\14.33.31629\include\type_traits, line = 1440

0x1041 : Length = 16, Leaf = 0x1607 LF_UDT_MOD_SRC_LINE
	type = 0x146D, mod = 3, source file = C:\Users\matth\Documents\projects\tinyxml2\vs\predefined C++ types (compiler internal), line = 142

0x1042 : Length = 16, Leaf = 0x1607 LF_UDT_MOD_SRC_LINE
	type = 0x1472, mod = 3, source file = C:\Users\matth\Documents\projects\tinyxml2\vs\predefined C++ types (compiler internal), line = 134

0x1043 : Length = 16, Leaf = 0x1607 LF_UDT_MOD_SRC_LINE
	type = 0x1474, mod = 3, source file = C:\Users\matth\Documents\projects\tinyxml2\tinyxml2.cpp, line = 144

0x1044 : Length = 16, Leaf = 0x1607 LF_UDT_MOD_SRC_LINE
	type = 0x1489, mod = 3, source file = C:\Program Files\Microsoft Visual Studio\2022\Community\VC\Tools\MSVC\14.33.31629\include\vcruntime_exception.h, line = 103

0x1045 : Length = 16, Leaf = 0x1607 LF_UDT_MOD_SRC_LINE
	type = 0x14A1, mod = 3, source file = C:\Program Files\Microsoft Visual Studio\2022\Community\VC\Tools\MSVC\14.33.31629\include\exception, line = 216

0x1046 : Length = 16, Leaf = 0x1607 LF_UDT_MOD_SRC_LINE
	type = 0x14B6, mod = 3, source file = C:\Program Files\Microsoft Visual Studio\2022\Community\VC\Tools\MSVC\14.33.31629\include\vcruntime_exception.h, line = 48

0x1047 : Length = 16, Leaf = 0x1607 LF_UDT_MOD_SRC_LINE
	type = 0x14CA, mod = 3, source file = C:\Program Files\Microsoft Visual Studio\2022\Community\VC\Tools\MSVC\14.33.31629\include\vcruntime_exception.h, line = 114

0x1048 : Length = 16, Leaf = 0x1607 LF_UDT_MOD_SRC_LINE
	type = 0x14DD, mod = 3, source file = C:\Program Files\Microsoft Visual Studio\2022\Community\VC\Tools\MSVC\14.33.31629\include\vcruntime_exception.h, line = 134

0x1049 : Length = 16, Leaf = 0x1607 LF_UDT_MOD_SRC_LINE
	type = 0x14EF, mod = 3, source file = C:\Program Files\Microsoft Visual Studio\2022\Community\VC\Tools\MSVC\14.33.31629\include\exception, line = 327

0x104a : Length = 16, Leaf = 0x1607 LF_UDT_MOD_SRC_LINE
	type = 0x14F6, mod = 3, source file = C:\Users\matth\Documents\projects\tinyxml2\vs\predefined C++ types (compiler internal), line = 151

0x104b : Length = 16, Leaf = 0x1607 LF_UDT_MOD_SRC_LINE
	type = 0x14F8, mod = 3, source file = C:\Users\matth\Documents\projects\tinyxml2\vs\predefined C++ types (compiler internal), line = 123

0x104c : Length = 16, Leaf = 0x1607 LF_UDT_MOD_SRC_LINE
	type = 0x14FA, mod = 3, source file = C:\Program Files (x86)\Windows Kits\10\Include\10.0.19041.0\ucrt\stdlib.h, line = 287

0x104d : Length = 16, Leaf = 0x1607 LF_UDT_MOD_SRC_LINE
	type = 0x14FC, mod = 3, source file = C:\Program Files\Microsoft Visual Studio\2022\Community\VC\Tools\MSVC\14.33.31629\include\vcruntime_exception.h, line = 25

0x104e : Length = 22, Leaf = 0x1605 LF_STRING_ID
	..\tinyxml2.cpp
	No sub string

0x104f : Length = 26, Leaf = 0x1603 LF_BUILDINFO
	String ID's (count = 5): 0x1031 0x1032 0x104E 0x1034 0x103D

0x1050 : Length = 16, Leaf = 0x1607 LF_UDT_MOD_SRC_LINE
	type = 0x1586, mod = 9, source file = D:\a\_work\1\s\src\ExternalAPIs\WindowsSDKInc\c\Include\10.0.22000.0\um\winnt.h, line = 24178

0x1051 : Length = 16, Leaf = 0x1607 LF_UDT_MOD_SRC_LINE
	type = 0x158C, mod = 9, source file = D:\a\_work\1\s\src\ExternalAPIs\WindowsSDKInc\c\Include\10.0.22000.0\ucrt\corecrt.h, line = 610

0x1052 : Length = 16, Leaf = 0x1607 LF_UDT_MOD_SRC_LINE
	type = 0x158E, mod = 9, source file = D:\a\_work\1\s\src\ExternalAPIs\WindowsSDKInc\c\Include\10.0.22000.0\um\winnt.h, line = 22381

0x1053 : Length = 10, Leaf = 0x1605 LF_STRING_ID
	
	No sub string

0x1054 : Length = 246, Leaf = 0x1605 LF_STRING_ID
	-c -Z7 -nologo -W4 -WX -Od -Oy- -Gm- -EHs -EHc -MDd -GS -Zc:wchar_t -Zc:forScope -GR- -Gd -wd4725 -wd4960 -wd4961 -wd4603 -wd4627 -wd4838 -wd4456 -wd4457 -wd4458 -wd4459 -wd4091 -wd5054 -FC -wd4463 -Zl -Zp8 -GF -Gy -w15038 -std:c++latest
	No sub string

0x1055 : Length = 10, Leaf = 0x1604 LF_SUBSTR_LIST
	String ID's (count = 1): 0x1054

0x1056 : Length = 230, Leaf = 0x1605 LF_STRING_ID
	 -Zc:threadSafeInit- -w34640 -Zc:char8_t -w14265 -w14242 -w14254 -w14287 -w14296 -w14302 -w14388 -w14549 -w14619 -w14905 -w14906 -guard:cf -diagnostics:caret -arch:IA32 -ZH:SHA_256 -experimental:deterministic -wd5049 -TC -X
	List of sub string ID's = 0x1055

0x1057 : Length = 26, Leaf = 0x1603 LF_BUILDINFO
	String ID's (count = 5): 0x1053 0x1053 0x1053 0x1053 0x1056

0x1058 : Length = 16, Leaf = 0x1607 LF_UDT_MOD_SRC_LINE
	type = 0x1595, mod = 10, source file = D:\a\_work\1\s\src\ExternalAPIs\WindowsSDKInc\c\Include\10.0.22000.0\um\winnt.h, line = 9880

0x1059 : Length = 16, Leaf = 0x1607 LF_UDT_MOD_SRC_LINE
	type = 0x1599, mod = 10, source file = D:\a\_work\1\s\src\ExternalAPIs\WindowsSDKInc\c\Include\10.0.22000.0\um\winnt.h, line = 8488

0x105a : Length = 16, Leaf = 0x1607 LF_UDT_MOD_SRC_LINE
	type = 0x159D, mod = 10, source file = D:\a\_work\1\s\src\ExternalAPIs\WindowsSDKInc\c\Include\10.0.22000.0\um\winnt.h, line = 9914

0x105b : Length = 16, Leaf = 0x1607 LF_UDT_MOD_SRC_LINE
	type = 0x15AF, mod = 10, source file = D:\a\_work\1\s\src\vctools\crt\vcruntime\inc\i386\xmmintrin.h, line = 65

0x105c : Length = 16, Leaf = 0x1607 LF_UDT_MOD_SRC_LINE
	type = 0x15B1, mod = 10, source file = D:\a\_work\1\s\src\ExternalAPIs\WindowsSDKInc\c\Include\10.0.22000.0\shared\evntprov.h, line = 178

0x105d : Length = 16, Leaf = 0x1607 LF_UDT_MOD_SRC_LINE
	type = 0x15B3, mod = 10, source file = D:\a\_work\1\s\src\ExternalAPIs\WindowsSDKInc\c\Include\10.0.22000.0\shared\evntprov.h, line = 204

0x105e : Length = 16, Leaf = 0x1607 LF_UDT_MOD_SRC_LINE
	type = 0x15B6, mod = 10, source file = D:\a\_work\1\s\src\ExternalAPIs\WindowsSDKInc\c\Include\10.0.22000.0\um\winnt.h, line = 8447

0x105f : Length = 16, Leaf = 0x1607 LF_UDT_MOD_SRC_LINE
	type = 0x15C3, mod = 10, source file = D:\a\_work\1\s\src\vctools\crt\vcruntime\inc\i386\mmintrin.h, line = 30

0x1060 : Length = 16, Leaf = 0x1607 LF_UDT_MOD_SRC_LINE
	type = 0x15DE, mod = 11, source file = D:\a\_work\1\s\src\ExternalAPIs\WindowsSDKInc\c\Include\10.0.22000.0\um\winnt.h, line = 874

0x1061 : Length = 16, Leaf = 0x1607 LF_UDT_MOD_SRC_LINE
	type = 0x15E0, mod = 11, source file = D:\a\_work\1\s\src\ExternalAPIs\WindowsSDKInc\c\Include\10.0.22000.0\shared\minwindef.h, line = 271

0x1062 : Length = 16, Leaf = 0x1607 LF_UDT_MOD_SRC_LINE
	type = 0x15E4, mod = 11, source file = D:\a\_work\1\s\src\vctools\crt\vcstartup\src\gs\gs_support.c, line = 55

0x1063 : Length = 16, Leaf = 0x1607 LF_UDT_MOD_SRC_LINE
	type = 0x15EF, mod = 13, source file = D:\a\_work\1\s\src\vctools\crt\vcstartup\src\misc\guard_support.c, line = 240

0x1064 : Length = 16, Leaf = 0x1607 LF_UDT_MOD_SRC_LINE
	type = 0x1605, mod = 14, source file = D:\a\_work\1\s\src\vctools\crt\vcstartup\src\misc\loadcfg.c, line = 74

0x1065 : Length = 16, Leaf = 0x1607 LF_UDT_MOD_SRC_LINE
	type = 0x1607, mod = 14, source file = D:\a\_work\1\s\src\ExternalAPIs\WindowsSDKInc\c\Include\10.0.22000.0\um\winnt.h, line = 19857

0x1066 : Length = 16, Leaf = 0x1607 LF_UDT_MOD_SRC_LINE
	type = 0x1610, mod = 19, source file = D:\a\_work\1\s\src\vctools\crt\vcruntime\inc\isa_availability.h, line = 15

0x1067 : Length = 16, Leaf = 0x1607 LF_UDT_MOD_SRC_LINE
	type = 0x161B, mod = 20, source file = D:\a\_work\1\s\src\ExternalAPIs\WindowsSDKInc\c\Include\10.0.22000.0\um\winnt.h, line = 12502

0x1068 : Length = 16, Leaf = 0x1607 LF_UDT_MOD_SRC_LINE
	type = 0x1620, mod = 22, source file = D:\a\_work\1\s\src\vctools\crt\vcruntime\inc\vcruntime_startup.h, line = 19

0x1069 : Length = 250, Leaf = 0x1605 LF_STRING_ID
	-c -Z7 -nologo -W4 -WX -Od -Oy- -Gm- -EHs -EHc -MDd -GS -Zc:wchar_t -Zc:forScope -GR -Gd -TP -wd4725 -wd4960 -wd4961 -wd4603 -wd4627 -wd4838 -wd4456 -wd4457 -wd4458 -wd4459 -wd4091 -wd5054 -FC -wd4463 -Zl -Zp8 -GF -Gy -w15038 -std:c++latest
	No sub string

0x106a : Length = 10, Leaf = 0x1604 LF_SUBSTR_LIST
	String ID's (count = 1): 0x1069

0x106b : Length = 242, Leaf = 0x1605 LF_STRING_ID
	 -Zc:threadSafeInit- -w34640 -Zc:char8_t -w14265 -w14242 -w14254 -w14287 -w14296 -w14302 -w14388 -w14549 -w14619 -w14905 -w14906 -guard:cf -diagnostics:caret -arch:IA32 -ZH:SHA_256 -experimental:deterministic -wd5049 -permissive- -X
	List of sub string ID's = 0x106A

0x106c : Length = 26, Leaf = 0x1603 LF_BUILDINFO
	String ID's (count = 5): 0x1053 0x1053 0x1053 0x1053 0x106B

0x106d : Length = 16, Leaf = 0x1607 LF_UDT_MOD_SRC_LINE
	type = 0x1629, mod = 24, source file = D:\a\_work\1\s\src\ExternalAPIs\WindowsSDKInc\c\Include\10.0.22000.0\ucrt\corecrt_wstdio.h, line = 486

0x106e : Length = 16, Leaf = 0x1607 LF_UDT_MOD_SRC_LINE
	type = 0x162D, mod = 24, source file = D:\a\_work\1\s\src\vctools\crt\vcruntime\inc\vadefs.h, line = 194

0x106f : Length = 16, Leaf = 0x1607 LF_UDT_MOD_SRC_LINE
	type = 0x1630, mod = 24, source file = D:\a\_work\1\s\src\ExternalAPIs\WindowsSDKInc\c\Include\10.0.22000.0\um\winuser.h, line = 15835

0x1070 : Length = 16, Leaf = 0x1607 LF_UDT_MOD_SRC_LINE
	type = 0x1634, mod = 24, source file = D:\a\_work\1\s\src\vctools\crt\vcstartup\inc\vcstartup_internal.h, line = 426

0x1071 : Length = 16, Leaf = 0x1607 LF_UDT_MOD_SRC_LINE
	type = 0x163A, mod = 24, source file = D:\a\_work\1\s\src\vctools\crt\vcstartup\inc\vcstartup_internal.h, line = 447

0x1072 : Length = 16, Leaf = 0x1607 LF_UDT_MOD_SRC_LINE
	type = 0x163C, mod = 24, source file = D:\a\_work\1\s\src\ExternalAPIs\WindowsSDKInc\c\Include\10.0.22000.0\shared\guiddef.h, line = 22

0x1073 : Length = 16, Leaf = 0x1607 LF_UDT_MOD_SRC_LINE
	type = 0x1640, mod = 24, source file = D:\a\_work\1\s\src\vctools\crt\vcruntime\inc\vadefs.h, line = 194

0x1074 : Length = 16, Leaf = 0x1607 LF_UDT_MOD_SRC_LINE
	type = 0x1644, mod = 24, source file = D:\a\_work\1\s\src\vctools\crt\vcstartup\inc\vcstartup_internal.h, line = 421

0x1075 : Length = 16, Leaf = 0x1607 LF_UDT_MOD_SRC_LINE
	type = 0x1650, mod = 24, source file = D:\a\_work\1\s\src\ExternalAPIs\WindowsSDKInc\c\Include\10.0.22000.0\um\winnt.h, line = 24178

0x1076 : Length = 16, Leaf = 0x1607 LF_UDT_MOD_SRC_LINE
	type = 0x1653, mod = 24, source file = D:\a\_work\1\s\src\ExternalAPIs\WindowsSDKInc\c\Include\10.0.22000.0\um\winnt.h, line = 24186

0x1077 : Length = 16, Leaf = 0x1607 LF_UDT_MOD_SRC_LINE
	type = 0x1659, mod = 24, source file = D:\a\_work\1\s\src\vctools\crt\vcstartup\inc\vcstartup_internal.h, line = 416

0x1078 : Length = 16, Leaf = 0x1607 LF_UDT_MOD_SRC_LINE
	type = 0x165D, mod = 24, source file = D:\a\_work\1\s\src\ExternalAPIs\WindowsSDKInc\c\Include\10.0.22000.0\um\processthreadsapi.h, line = 1157

0x1079 : Length = 16, Leaf = 0x1607 LF_UDT_MOD_SRC_LINE
	type = 0x1664, mod = 24, source file = D:\a\_work\1\s\src\vctools\crt\vcstartup\inc\vcstartup_internal.h, line = 437

0x107a : Length = 16, Leaf = 0x1607 LF_UDT_MOD_SRC_LINE
	type = 0x166C, mod = 24, source file = D:\a\_work\1\s\src\vctools\crt\vcruntime\inc\vadefs.h, line = 194

0x107b : Length = 16, Leaf = 0x1607 LF_UDT_MOD_SRC_LINE
	type = 0x1671, mod = 24, source file = D:\a\_work\1\s\src\vctools\crt\vcruntime\inc\vadefs.h, line = 194

0x107c : Length = 16, Leaf = 0x1607 LF_UDT_MOD_SRC_LINE
	type = 0x1674, mod = 24, source file = D:\a\_work\1\s\src\vctools\crt\vcruntime\inc\vadefs.h, line = 194

0x107d : Length = 16, Leaf = 0x1607 LF_UDT_MOD_SRC_LINE
	type = 0x167D, mod = 24, source file = D:\a\_work\1\s\src\ExternalAPIs\WindowsSDKInc\c\Include\10.0.22000.0\ucrt\corecrt.h, line = 617

0x107e : Length = 16, Leaf = 0x1607 LF_UDT_MOD_SRC_LINE
	type = 0x1681, mod = 24, source file = D:\a\_work\1\s\src\vctools\crt\vcstartup\inc\vcstartup_internal.h, line = 442

0x107f : Length = 16, Leaf = 0x1607 LF_UDT_MOD_SRC_LINE
	type = 0x1683, mod = 30, source file = D:\a\_work\1\s\src\ExternalAPIs\WindowsSDKInc\c\Include\10.0.22000.0\ucrt\corecrt_math.h, line = 23

0x1080 : Length = 16, Leaf = 0x1607 LF_UDT_MOD_SRC_LINE
	type = 0x168F, mod = 33, source file = D:\a\_work\1\s\src\vctools\crt\vcstartup\build\xmd\msvcrt_kernel32\predefined C++ types (compiler internal), line = 188

0x1081 : Length = 16, Leaf = 0x1607 LF_UDT_MOD_SRC_LINE
	type = 0x1692, mod = 33, source file = D:\a\_work\1\s\src\vctools\crt\vcstartup\build\xmd\msvcrt_kernel32\predefined C++ types (compiler internal), line = 134

0x1082 : Length = 16, Leaf = 0x1607 LF_UDT_MOD_SRC_LINE
	type = 0x1695, mod = 33, source file = D:\a\_work\1\s\src\vctools\crt\vcstartup\build\xmd\msvcrt_kernel32\predefined C++ types (compiler internal), line = 134

0x1083 : Length = 16, Leaf = 0x1607 LF_UDT_MOD_SRC_LINE
	type = 0x1699, mod = 33, source file = D:\a\_work\1\s\src\vctools\crt\vcstartup\build\xmd\msvcrt_kernel32\predefined C++ types (compiler internal), line = 134

0x1084 : Length = 16, Leaf = 0x1607 LF_UDT_MOD_SRC_LINE
	type = 0x169C, mod = 33, source file = D:\a\_work\1\s\src\vctools\crt\vcstartup\build\xmd\msvcrt_kernel32\predefined C++ types (compiler internal), line = 134

0x1085 : Length = 16, Leaf = 0x1607 LF_UDT_MOD_SRC_LINE
	type = 0x169E, mod = 33, source file = D:\a\_work\1\s\src\vctools\crt\vcstartup\build\xmd\msvcrt_kernel32\predefined C++ types (compiler internal), line = 134

0x1086 : Length = 16, Leaf = 0x1607 LF_UDT_MOD_SRC_LINE
	type = 0x16B4, mod = 33, source file = D:\a\_work\1\s\src\vctools\crt\vcruntime\inc\vcruntime_typeinfo.h, line = 146

0x1087 : Length = 16, Leaf = 0x1607 LF_UDT_MOD_SRC_LINE
	type = 0x16C9, mod = 33, source file = D:\a\_work\1\s\src\vctools\crt\vcruntime\inc\vcruntime_typeinfo.h, line = 194

0x1088 : Length = 16, Leaf = 0x1607 LF_UDT_MOD_SRC_LINE
	type = 0x16DC, mod = 33, source file = D:\a\_work\1\s\src\vctools\crt\vcruntime\inc\vcruntime_exception.h, line = 103

0x1089 : Length = 16, Leaf = 0x1607 LF_UDT_MOD_SRC_LINE
	type = 0x16EE, mod = 33, source file = D:\a\_work\1\s\src\vctools\crt\vcruntime\inc\vcruntime_exception.h, line = 48

0x108a : Length = 16, Leaf = 0x1607 LF_UDT_MOD_SRC_LINE
	type = 0x1702, mod = 33, source file = D:\a\_work\1\s\src\vctools\crt\vcruntime\inc\vcruntime_exception.h, line = 114

0x108b : Length = 16, Leaf = 0x1607 LF_UDT_MOD_SRC_LINE
	type = 0x1715, mod = 33, source file = D:\a\_work\1\s\src\vctools\crt\vcruntime\inc\vcruntime_exception.h, line = 134

0x108c : Length = 16, Leaf = 0x1607 LF_UDT_MOD_SRC_LINE
	type = 0x1729, mod = 33, source file = D:\a\_work\1\s\src\vctools\crt\vcruntime\inc\vcruntime_typeinfo.h, line = 169

0x108d : Length = 16, Leaf = 0x1607 LF_UDT_MOD_SRC_LINE
	type = 0x172F, mod = 33, source file = D:\a\_work\1\s\src\vctools\crt\vcstartup\build\xmd\msvcrt_kernel32\predefined C++ types (compiler internal), line = 197

0x108e : Length = 16, Leaf = 0x1607 LF_UDT_MOD_SRC_LINE
	type = 0x1741, mod = 33, source file = D:\a\_work\1\s\src\vctools\crt\vcruntime\inc\vcruntime_typeinfo.h, line = 73

0x108f : Length = 16, Leaf = 0x1607 LF_UDT_MOD_SRC_LINE
	type = 0x1746, mod = 33, source file = D:\a\_work\1\s\src\vctools\crt\vcstartup\build\xmd\msvcrt_kernel32\predefined C++ types (compiler internal), line = 201

0x1090 : Length = 16, Leaf = 0x1607 LF_UDT_MOD_SRC_LINE
	type = 0x1757, mod = 33, source file = D:\a\_work\1\s\src\vctools\crt\vcruntime\inc\vcruntime_typeinfo.h, line = 41

0x1091 : Length = 16, Leaf = 0x1607 LF_UDT_MOD_SRC_LINE
	type = 0x1759, mod = 33, source file = D:\a\_work\1\s\src\vctools\crt\vcstartup\build\xmd\msvcrt_kernel32\predefined C++ types (compiler internal), line = 207

0x1092 : Length = 16, Leaf = 0x1607 LF_UDT_MOD_SRC_LINE
	type = 0x175D, mod = 34, source file = D:\a\_work\1\s\src\vctools\crt\vcruntime\inc\vcruntime_typeinfo.h, line = 27

0x1093 : Length = 16, Leaf = 0x1607 LF_UDT_MOD_SRC_LINE
	type = 0x1762, mod = 34, source file = D:\a\_work\1\s\src\vctools\crt\vcstartup\build\xmd\msvcrt_kernel32\predefined C++ types (compiler internal), line = 188

0x1094 : Length = 16, Leaf = 0x1607 LF_UDT_MOD_SRC_LINE
	type = 0x176E, mod = 34, source file = D:\a\_work\1\s\src\ExternalAPIs\WindowsSDKInc\c\Include\10.0.22000.0\um\winnt.h, line = 1180

0x1095 : Length = 16, Leaf = 0x1607 LF_UDT_MOD_SRC_LINE
	type = 0x1770, mod = 34, source file = D:\a\_work\1\s\src\ExternalAPIs\WindowsSDKInc\c\Include\10.0.22000.0\um\winnt.h, line = 21369

0x1096 : Length = 16, Leaf = 0x1607 LF_UDT_MOD_SRC_LINE
	type = 0x1785, mod = 34, source file = D:\a\_work\1\s\src\vctools\crt\vcruntime\inc\vcruntime_typeinfo.h, line = 146

0x1097 : Length = 16, Leaf = 0x1607 LF_UDT_MOD_SRC_LINE
	type = 0x179A, mod = 34, source file = D:\a\_work\1\s\src\vctools\crt\vcruntime\inc\vcruntime_typeinfo.h, line = 194

0x1098 : Length = 16, Leaf = 0x1607 LF_UDT_MOD_SRC_LINE
	type = 0x17A5, mod = 34, source file = D:\a\_work\1\s\src\vctools\crt\vcruntime\inc\vcruntime_exception.h, line = 103

0x1099 : Length = 16, Leaf = 0x1607 LF_UDT_MOD_SRC_LINE
	type = 0x17AF, mod = 34, source file = D:\a\_work\1\s\src\vctools\crt\vcruntime\inc\vcruntime_exception.h, line = 48

0x109a : Length = 16, Leaf = 0x1607 LF_UDT_MOD_SRC_LINE
	type = 0x17BB, mod = 34, source file = D:\a\_work\1\s\src\vctools\crt\vcruntime\inc\vcruntime_exception.h, line = 114

0x109b : Length = 16, Leaf = 0x1607 LF_UDT_MOD_SRC_LINE
	type = 0x17C6, mod = 34, source file = D:\a\_work\1\s\src\vctools\crt\vcruntime\inc\vcruntime_exception.h, line = 134

0x109c : Length = 16, Leaf = 0x1607 LF_UDT_MOD_SRC_LINE
	type = 0x17DA, mod = 34, source file = D:\a\_work\1\s\src\vctools\crt\vcruntime\inc\vcruntime_typeinfo.h, line = 169

0x109d : Length = 16, Leaf = 0x1607 LF_UDT_MOD_SRC_LINE
	type = 0x17DD, mod = 34, source file = D:\a\_work\1\s\src\ExternalAPIs\WindowsSDKInc\c\Include\10.0.22000.0\um\winnt.h, line = 24178

0x109e : Length = 16, Leaf = 0x1607 LF_UDT_MOD_SRC_LINE
	type = 0x17E0, mod = 34, source file = D:\a\_work\1\s\src\ExternalAPIs\WindowsSDKInc\c\Include\10.0.22000.0\um\winnt.h, line = 24186

0x109f : Length = 16, Leaf = 0x1607 LF_UDT_MOD_SRC_LINE
	type = 0x17E7, mod = 34, source file = D:\a\_work\1\s\src\vctools\crt\vcstartup\build\xmd\msvcrt_kernel32\predefined C++ types (compiler internal), line = 197

0x10a0 : Length = 16, Leaf = 0x1607 LF_UDT_MOD_SRC_LINE
	type = 0x17F9, mod = 34, source file = D:\a\_work\1\s\src\vctools\crt\vcruntime\inc\vcruntime_typeinfo.h, line = 73

0x10a1 : Length = 16, Leaf = 0x1607 LF_UDT_MOD_SRC_LINE
	type = 0x17FE, mod = 34, source file = D:\a\_work\1\s\src\vctools\crt\vcstartup\build\xmd\msvcrt_kernel32\predefined C++ types (compiler internal), line = 201

0x10a2 : Length = 16, Leaf = 0x1607 LF_UDT_MOD_SRC_LINE
	type = 0x180F, mod = 34, source file = D:\a\_work\1\s\src\vctools\crt\vcruntime\inc\vcruntime_typeinfo.h, line = 41

0x10a3 : Length = 16, Leaf = 0x1607 LF_UDT_MOD_SRC_LINE
	type = 0x1811, mod = 34, source file = D:\a\_work\1\s\src\vctools\crt\vcstartup\build\xmd\msvcrt_kernel32\predefined C++ types (compiler internal), line = 207

0x10a4 : Length = 16, Leaf = 0x1607 LF_UDT_MOD_SRC_LINE
	type = 0x1821, mod = 40, source file = D:\a\_work\1\s\src\vctools\crt\vcstartup\build\xmd\msvcrt_kernel32\predefined C++ types (compiler internal), line = 142

0x10a5 : Length = 16, Leaf = 0x1607 LF_UDT_MOD_SRC_LINE
	type = 0x1827, mod = 40, source file = D:\a\_work\1\s\src\vctools\crt\vcstartup\build\xmd\msvcrt_kernel32\predefined C++ types (compiler internal), line = 151

0x10a6 : Length = 16, Leaf = 0x1607 LF_UDT_MOD_SRC_LINE
	type = 0x182A, mod = 40, source file = D:\a\_work\1\s\src\vctools\crt\vcstartup\build\xmd\msvcrt_kernel32\predefined C++ types (compiler internal), line = 151

0x10a7 : Length = 16, Leaf = 0x1607 LF_UDT_MOD_SRC_LINE
	type = 0x1831, mod = 40, source file = D:\a\_work\1\s\src\vctools\crt\vcstartup\build\xmd\msvcrt_kernel32\predefined C++ types (compiler internal), line = 156

0x10a8 : Length = 16, Leaf = 0x1607 LF_UDT_MOD_SRC_LINE
	type = 0x1834, mod = 41, source file = D:\a\_work\1\s\src\ExternalAPIs\WindowsSDKInc\c\Include\10.0.22000.0\ucrt\corecrt_startup.h, line = 47

0x10a9 : Length = 16, Leaf = 0x1607 LF_UDT_MOD_SRC_LINE
	type = 0x1839, mod = 41, source file = D:\a\_work\1\s\src\vctools\crt\vcstartup\inc\vcstartup_internal.h, line = 202

0x10aa : Length = 16, Leaf = 0x1607 LF_UDT_MOD_SRC_LINE
	type = 0x183F, mod = 41, source file = D:\a\_work\1\s\src\ExternalAPIs\WindowsSDKInc\c\Include\10.0.22000.0\um\winnt.h, line = 8488

0x10ab : Length = 16, Leaf = 0x1607 LF_UDT_MOD_SRC_LINE
	type = 0x1843, mod = 41, source file = D:\a\_work\1\s\src\vctools\crt\vcstartup\src\startup\exe_common.inl, line = 47

0x10ac : Length = 16, Leaf = 0x1607 LF_UDT_MOD_SRC_LINE
	type = 0x1847, mod = 41, source file = D:\a\_work\1\s\src\vctools\crt\vcstartup\src\startup\exe_common.inl, line = 63

0x10ad : Length = 16, Leaf = 0x1607 LF_UDT_MOD_SRC_LINE
	type = 0x184B, mod = 41, source file = D:\a\_work\1\s\src\vctools\crt\vcstartup\src\startup\exe_common.inl, line = 57

0x10ae : Length = 16, Leaf = 0x1607 LF_UDT_MOD_SRC_LINE
	type = 0x184F, mod = 41, source file = D:\a\_work\1\s\src\vctools\crt\vcstartup\src\startup\exe_common.inl, line = 42

0x10af : Length = 16, Leaf = 0x1607 LF_UDT_MOD_SRC_LINE
	type = 0x1853, mod = 41, source file = D:\a\_work\1\s\src\ExternalAPIs\WindowsSDKInc\c\Include\10.0.22000.0\um\winnt.h, line = 9880

0x10b0 : Length = 16, Leaf = 0x1607 LF_UDT_MOD_SRC_LINE
	type = 0x1857, mod = 41, source file = D:\a\_work\1\s\src\vctools\crt\vcstartup\src\startup\exe_common.inl, line = 52

0x10b1 : Length = 16, Leaf = 0x1607 LF_UDT_MOD_SRC_LINE
	type = 0x1859, mod = 41, source file = D:\a\_work\1\s\src\vctools\crt\vcstartup\inc\vcstartup_internal.h, line = 186

0x10b2 : Length = 16, Leaf = 0x1607 LF_UDT_MOD_SRC_LINE
	type = 0x185B, mod = 41, source file = D:\a\_work\1\s\src\vctools\crt\vcruntime\inc\eh.h, line = 44

0x10b3 : Length = 16, Leaf = 0x1607 LF_UDT_MOD_SRC_LINE
	type = 0x1863, mod = 43, source file = D:\a\_work\1\s\src\ExternalAPIs\WindowsSDKInc\c\Include\10.0.22000.0\um\winnt.h, line = 18270

0x10b4 : Length = 16, Leaf = 0x1607 LF_UDT_MOD_SRC_LINE
	type = 0x1866, mod = 43, source file = D:\a\_work\1\s\src\ExternalAPIs\WindowsSDKInc\c\Include\10.0.22000.0\ucrt\corecrt_startup.h, line = 137

0x10b5 : Length = 16, Leaf = 0x1607 LF_UDT_MOD_SRC_LINE
	type = 0x186F, mod = 43, source file = D:\a\_work\1\s\src\ExternalAPIs\WindowsSDKInc\c\Include\10.0.22000.0\um\winnt.h, line = 18387

0x10b6 : Length = 16, Leaf = 0x1607 LF_UDT_MOD_SRC_LINE
	type = 0x1871, mod = 43, source file = D:\a\_work\1\s\src\ExternalAPIs\WindowsSDKInc\c\Include\10.0.22000.0\um\winnt.h, line = 18453

0x10b7 : Length = 16, Leaf = 0x1607 LF_UDT_MOD_SRC_LINE
	type = 0x1878, mod = 43, source file = D:\a\_work\1\s\src\ExternalAPIs\WindowsSDKInc\c\Include\10.0.22000.0\shared\minwindef.h, line = 250

0x10b8 : Length = 16, Leaf = 0x1607 LF_UDT_MOD_SRC_LINE
	type = 0x187C, mod = 43, source file = D:\a\_work\1\s\src\ExternalAPIs\WindowsSDKInc\c\Include\10.0.22000.0\um\winnt.h, line = 18464

0x10b9 : Length = 16, Leaf = 0x1607 LF_UDT_MOD_SRC_LINE
	type = 0x1882, mod = 43, source file = D:\a\_work\1\s\src\ExternalAPIs\WindowsSDKInc\c\Include\10.0.22000.0\um\winnt.h, line = 12510

0x10ba : Length = 16, Leaf = 0x1607 LF_UDT_MOD_SRC_LINE
	type = 0x1887, mod = 43, source file = D:\a\_work\1\s\src\ExternalAPIs\WindowsSDKInc\c\Include\10.0.22000.0\um\winnt.h, line = 18576

0x10bb : Length = 16, Leaf = 0x1607 LF_UDT_MOD_SRC_LINE
	type = 0x188A, mod = 43, source file = D:\a\_work\1\s\src\ExternalAPIs\WindowsSDKInc\c\Include\10.0.22000.0\um\winnt.h, line = 18710

0x10bc : Length = 16, Leaf = 0x1607 LF_UDT_MOD_SRC_LINE
	type = 0x188C, mod = 43, source file = D:\a\_work\1\s\src\ExternalAPIs\WindowsSDKInc\c\Include\10.0.22000.0\um\winnt.h, line = 18712

0x10bd : Length = 16, Leaf = 0x1607 LF_UDT_MOD_SRC_LINE
	type = 0x188E, mod = 43, source file = D:\a\_work\1\s\src\ExternalAPIs\WindowsSDKInc\c\Include\10.0.22000.0\um\winnt.h, line = 12502

0x10be : Length = 16, Leaf = 0x1607 LF_UDT_MOD_SRC_LINE
	type = 0x18B5, mod = 45, source file = D:\a\_work\1\s\src\vctools\crt\vcruntime\inc\ehdata_forceinclude.h, line = 86

0x10bf : Length = 16, Leaf = 0x1607 LF_UDT_MOD_SRC_LINE
	type = 0x18BA, mod = 45, source file = D:\a\_work\1\s\src\vctools\crt\vcruntime\inc\ehdata_forceinclude.h, line = 127

0x10c0 : Length = 16, Leaf = 0x1607 LF_UDT_MOD_SRC_LINE
	type = 0x18C3, mod = 45, source file = D:\a\_work\1\s\src\vctools\crt\vcruntime\inc\ehdata_forceinclude.h, line = 145

0x10c1 : Length = 16, Leaf = 0x1607 LF_UDT_MOD_SRC_LINE
	type = 0x18C5, mod = 45, source file = D:\a\_work\1\s\src\ExternalAPIs\WindowsSDKInc\c\Include\10.0.22000.0\um\processthreadsapi.h, line = 55

0x10c2 : Length = 16, Leaf = 0x1607 LF_UDT_MOD_SRC_LINE
	type = 0x18C8, mod = 45, source file = D:\a\_work\1\s\src\vctools\crt\vcruntime\inc\ehdata.h, line = 509

0x10c3 : Length = 16, Leaf = 0x1607 LF_UDT_MOD_SRC_LINE
	type = 0x18CD, mod = 45, source file = D:\a\_work\1\s\src\vctools\crt\vcruntime\inc\ehdata.h, line = 515

0x10c4 : Length = 16, Leaf = 0x1607 LF_UDT_MOD_SRC_LINE
	type = 0x18D2, mod = 45, source file = D:\a\_work\1\s\src\vctools\crt\vcruntime\inc\ehdata_forceinclude.h, line = 172

0x10c5 : Length = 16, Leaf = 0x1607 LF_UDT_MOD_SRC_LINE
	type = 0x18E4, mod = 46, source file = D:\a\_work\1\s\src\vctools\crt\vcruntime\inc\rtcapi.h, line = 45

0x10c6 : Length = 16, Leaf = 0x1607 LF_UDT_MOD_SRC_LINE
	type = 0x18E7, mod = 46, source file = D:\a\_work\1\s\src\vctools\crt\vcruntime\inc\rtcpriv.h, line = 113

0x10c7 : Length = 16, Leaf = 0x1607 LF_UDT_MOD_SRC_LINE
	type = 0x18F1, mod = 46, source file = D:\a\_work\1\s\src\vctools\crt\vcruntime\inc\vadefs.h, line = 194

0x10c8 : Length = 16, Leaf = 0x1607 LF_UDT_MOD_SRC_LINE
	type = 0x18F5, mod = 46, source file = D:\a\_work\1\s\src\vctools\crt\vcruntime\inc\vadefs.h, line = 194

0x10c9 : Length = 16, Leaf = 0x1607 LF_UDT_MOD_SRC_LINE
	type = 0x18FE, mod = 46, source file = D:\a\_work\1\s\src\vctools\crt\vcruntime\inc\rtcpriv.h, line = 130

0x10ca : Length = 16, Leaf = 0x1607 LF_UDT_MOD_SRC_LINE
	type = 0x1900, mod = 46, source file = D:\a\_work\1\s\src\vctools\crt\vcruntime\inc\rtcpriv.h, line = 149

0x10cb : Length = 16, Leaf = 0x1607 LF_UDT_MOD_SRC_LINE
	type = 0x1902, mod = 46, source file = D:\a\_work\1\s\src\vctools\crt\vcruntime\inc\rtcpriv.h, line = 143

0x10cc : Length = 16, Leaf = 0x1607 LF_UDT_MOD_SRC_LINE
	type = 0x1904, mod = 46, source file = D:\a\_work\1\s\src\vctools\crt\vcruntime\inc\rtcpriv.h, line = 136

0x10cd : Length = 16, Leaf = 0x1607 LF_UDT_MOD_SRC_LINE
	type = 0x1909, mod = 46, source file = D:\a\_work\1\s\src\vctools\crt\vcruntime\inc\rtcapi.h, line = 105

0x10ce : Length = 16, Leaf = 0x1607 LF_UDT_MOD_SRC_LINE
	type = 0x190E, mod = 46, source file = D:\a\_work\1\s\src\vctools\crt\vcruntime\inc\vadefs.h, line = 194

0x10cf : Length = 16, Leaf = 0x1607 LF_UDT_MOD_SRC_LINE
	type = 0x1911, mod = 46, source file = D:\a\_work\1\s\src\vctools\crt\vcruntime\inc\vadefs.h, line = 194

0x10d0 : Length = 16, Leaf = 0x1607 LF_UDT_MOD_SRC_LINE
	type = 0x1914, mod = 46, source file = D:\a\_work\1\s\src\vctools\crt\vcruntime\inc\vadefs.h, line = 194

0x10d1 : Length = 34, Leaf = 0x1601 LF_FUNC_ID
	Type = 0x191D		Scope = global	notify_debugger

0x10d2 : Length = 34, Leaf = 0x1601 LF_FUNC_ID
	Type = 0x1926		Scope = global	failwithmessage

0x10d3 : Length = 42, Leaf = 0x1601 LF_FUNC_ID
	Type = 0x1928		Scope = global	_getMemBlockDataString

0x10d4 : Length = 30, Leaf = 0x1601 LF_FUNC_ID
	Type = 0x192A		Scope = global	sprintf_s

0x10d5 : Length = 34, Leaf = 0x1601 LF_FUNC_ID
	Type = 0x192F		Scope = global	_strlen_priv

0x10d6 : Length = 30, Leaf = 0x1601 LF_FUNC_ID
	Type = 0x1931		Scope = global	strcpy_s

0x10d7 : Length = 30, Leaf = 0x1601 LF_FUNC_ID
	Type = 0x1931		Scope = global	strcat_s

0x10d8 : Length = 38, Leaf = 0x1601 LF_FUNC_ID
	Type = 0x1935		Scope = global	_RTC_GetErrorFuncW

0x10d9 : Length = 38, Leaf = 0x1601 LF_FUNC_ID
	Type = 0x1936		Scope = global	_RTC_GetErrorFunc

0x10da : Length = 34, Leaf = 0x1601 LF_FUNC_ID
	Type = 0x1918		Scope = global	DebuggerProbe

0x10db : Length = 34, Leaf = 0x1601 LF_FUNC_ID
	Type = 0x191F		Scope = global	DebuggerRuntime

0x10dc : Length = 34, Leaf = 0x1601 LF_FUNC_ID
	Type = 0x1938		Scope = global	_RTC_GetSrcLine

0x10dd : Length = 50, Leaf = 0x1601 LF_FUNC_ID
	Type = 0x154B		Scope = global	__local_stdio_printf_options

0x10de : Length = 46, Leaf = 0x1601 LF_FUNC_ID
	Type = 0x1557		Scope = global	__stdio_common_vsprintf_s

0x10df : Length = 34, Leaf = 0x1601 LF_FUNC_ID
	Type = 0x1942		Scope = global	_vsprintf_s_l

0x10e0 : Length = 34, Leaf = 0x1601 LF_FUNC_ID
	Type = 0x1945		Scope = global	_CRT_RTC_INITW

0x10e1 : Length = 38, Leaf = 0x1601 LF_FUNC_ID
	Type = 0x1947		Scope = global	_RTC_SetErrorFuncW

0x10e2 : Length = 16, Leaf = 0x1607 LF_UDT_MOD_SRC_LINE
	type = 0x194C, mod = 49, source file = D:\a\_work\1\s\src\vctools\langapi\include\cvconst.h, line = 4105

0x10e3 : Length = 16, Leaf = 0x1607 LF_UDT_MOD_SRC_LINE
	type = 0x194E, mod = 49, source file = D:\a\_work\1\s\src\vctools\langapi\include\cvinfo.h, line = 771

0x10e4 : Length = 16, Leaf = 0x1607 LF_UDT_MOD_SRC_LINE
	type = 0x1950, mod = 49, source file = D:\a\_work\1\s\src\vctools\langapi\include\cvinfo.h, line = 1770

0x10e5 : Length = 16, Leaf = 0x1607 LF_UDT_MOD_SRC_LINE
	type = 0x1952, mod = 49, source file = D:\a\_work\1\s\src\vctools\langapi\include\pdb.h, line = 97

0x10e6 : Length = 16, Leaf = 0x1607 LF_UDT_MOD_SRC_LINE
	type = 0x1954, mod = 49, source file = D:\a\_work\1\s\src\vctools\langapi\include\pdb.h, line = 111

0x10e7 : Length = 16, Leaf = 0x1607 LF_UDT_MOD_SRC_LINE
	type = 0x1956, mod = 49, source file = D:\a\_work\1\s\src\vctools\langapi\include\pdb.h, line = 125

0x10e8 : Length = 16, Leaf = 0x1607 LF_UDT_MOD_SRC_LINE
	type = 0x1958, mod = 49, source file = D:\a\_work\1\s\src\vctools\langapi\include\pdb.h, line = 226

0x10e9 : Length = 16, Leaf = 0x1607 LF_UDT_MOD_SRC_LINE
	type = 0x195A, mod = 49, source file = D:\a\_work\1\s\src\vctools\langapi\include\pdb.h, line = 395

0x10ea : Length = 16, Leaf = 0x1607 LF_UDT_MOD_SRC_LINE
	type = 0x195C, mod = 49, source file = D:\a\_work\1\s\src\vctools\langapi\include\pdb.h, line = 528

0x10eb : Length = 16, Leaf = 0x1607 LF_UDT_MOD_SRC_LINE
	type = 0x195E, mod = 49, source file = D:\a\_work\1\s\src\vctools\langapi\include\pdb.h, line = 561

0x10ec : Length = 16, Leaf = 0x1607 LF_UDT_MOD_SRC_LINE
	type = 0x1960, mod = 49, source file = D:\a\_work\1\s\src\vctools\langapi\include\cvinfo.h, line = 2790

0x10ed : Length = 16, Leaf = 0x1607 LF_UDT_MOD_SRC_LINE
	type = 0x1962, mod = 49, source file = D:\a\_work\1\s\src\vctools\langapi\include\cvinfo.h, line = 3939

0x10ee : Length = 16, Leaf = 0x1607 LF_UDT_MOD_SRC_LINE
	type = 0x1964, mod = 49, source file = D:\a\_work\1\s\src\vctools\langapi\include\cvconst.h, line = 328

0x10ef : Length = 16, Leaf = 0x1607 LF_UDT_MOD_SRC_LINE
	type = 0x1967, mod = 49, source file = D:\a\_work\1\s\src\vctools\langapi\include\cvconst.h, line = 401

0x10f0 : Length = 16, Leaf = 0x1607 LF_UDT_MOD_SRC_LINE
	type = 0x1969, mod = 49, source file = D:\a\_work\1\s\src\vctools\langapi\include\cvinfo.h, line = 4576

0x10f1 : Length = 16, Leaf = 0x1607 LF_UDT_MOD_SRC_LINE
	type = 0x196B, mod = 49, source file = D:\a\_work\1\s\src\vctools\langapi\include\cvinfo.h, line = 5184

0x10f2 : Length = 16, Leaf = 0x1607 LF_UDT_MOD_SRC_LINE
	type = 0x1982, mod = 49, source file = D:\a\_work\1\s\src\vctools\langapi\include\pdb.h, line = 1275

0x10f3 : Length = 16, Leaf = 0x1607 LF_UDT_MOD_SRC_LINE
	type = 0x1999, mod = 49, source file = D:\a\_work\1\s\src\vctools\langapi\include\pdb.h, line = 1439

0x10f4 : Length = 16, Leaf = 0x1607 LF_UDT_MOD_SRC_LINE
	type = 0x199E, mod = 49, source file = D:\a\_work\1\s\src\vctools\langapi\include\pdb.h, line = 677

0x10f5 : Length = 16, Leaf = 0x1607 LF_UDT_MOD_SRC_LINE
	type = 0x19C0, mod = 49, source file = D:\a\_work\1\s\src\vctools\langapi\include\pdb.h, line = 1279

0x10f6 : Length = 16, Leaf = 0x1607 LF_UDT_MOD_SRC_LINE
	type = 0x19C2, mod = 49, source file = D:\a\_work\1\s\src\ExternalAPIs\WindowsSDKInc\c\Include\10.0.22000.0\um\winnt.h, line = 14097

0x10f7 : Length = 16, Leaf = 0x1607 LF_UDT_MOD_SRC_LINE
	type = 0x19C6, mod = 49, source file = D:\a\_work\1\s\src\vctools\langapi\include\cvinfo.h, line = 1678

0x10f8 : Length = 16, Leaf = 0x1607 LF_UDT_MOD_SRC_LINE
	type = 0x19EB, mod = 49, source file = D:\a\_work\1\s\src\vctools\langapi\include\pdb.h, line = 1373

0x10f9 : Length = 16, Leaf = 0x1607 LF_UDT_MOD_SRC_LINE
	type = 0x19F5, mod = 49, source file = D:\a\_work\1\s\src\vctools\langapi\include\pdb.h, line = 567

0x10fa : Length = 16, Leaf = 0x1607 LF_UDT_MOD_SRC_LINE
	type = 0x19FC, mod = 49, source file = D:\a\_work\1\s\src\vctools\langapi\include\pdb.h, line = 729

0x10fb : Length = 16, Leaf = 0x1607 LF_UDT_MOD_SRC_LINE
	type = 0x1A06, mod = 49, source file = D:\a\_work\1\s\src\vctools\langapi\include\pdb.h, line = 742

0x10fc : Length = 16, Leaf = 0x1607 LF_UDT_MOD_SRC_LINE
	type = 0x1A10, mod = 49, source file = D:\a\_work\1\s\src\vctools\langapi\include\pdb.h, line = 611

0x10fd : Length = 16, Leaf = 0x1607 LF_UDT_MOD_SRC_LINE
	type = 0x1A27, mod = 49, source file = D:\a\_work\1\s\src\vctools\langapi\include\pdb.h, line = 365

0x10fe : Length = 16, Leaf = 0x1607 LF_UDT_MOD_SRC_LINE
	type = 0x1A29, mod = 49, source file = D:\a\_work\1\s\src\vctools\langapi\include\cvinfo.h, line = 3263

0x10ff : Length = 16, Leaf = 0x1607 LF_UDT_MOD_SRC_LINE
	type = 0x1A35, mod = 49, source file = D:\a\_work\1\s\src\vctools\langapi\include\cvinfo.h, line = 1208

0x1100 : Length = 16, Leaf = 0x1607 LF_UDT_MOD_SRC_LINE
	type = 0x1A9B, mod = 49, source file = D:\a\_work\1\s\src\vctools\langapi\include\pdb.h, line = 1072

0x1101 : Length = 16, Leaf = 0x1607 LF_UDT_MOD_SRC_LINE
	type = 0x1AC9, mod = 49, source file = D:\a\_work\1\s\src\vctools\langapi\include\pdb.h, line = 1211

0x1102 : Length = 16, Leaf = 0x1607 LF_UDT_MOD_SRC_LINE
	type = 0x1B4D, mod = 49, source file = D:\a\_work\1\s\src\vctools\langapi\include\pdb.h, line = 957

0x1103 : Length = 16, Leaf = 0x1607 LF_UDT_MOD_SRC_LINE
	type = 0x1B63, mod = 49, source file = D:\a\_work\1\s\src\vctools\langapi\include\cvinfo.h, line = 1142

0x1104 : Length = 16, Leaf = 0x1607 LF_UDT_MOD_SRC_LINE
	type = 0x1B66, mod = 49, source file = D:\a\_work\1\s\src\vctools\langapi\include\pdb.h, line = 652

0x1105 : Length = 16, Leaf = 0x1607 LF_UDT_MOD_SRC_LINE
	type = 0x1BC8, mod = 49, source file = D:\a\_work\1\s\src\vctools\langapi\include\pdb.h, line = 756

0x1106 : Length = 16, Leaf = 0x1607 LF_UDT_MOD_SRC_LINE
	type = 0x1BCC, mod = 49, source file = D:\a\_work\1\s\src\vctools\langapi\include\cvinfo.h, line = 1160

0x1107 : Length = 16, Leaf = 0x1607 LF_UDT_MOD_SRC_LINE
	type = 0x1BFC, mod = 49, source file = D:\a\_work\1\s\src\vctools\langapi\include\pdb.h, line = 1175

0x1108 : Length = 16, Leaf = 0x1607 LF_UDT_MOD_SRC_LINE
	type = 0x1C00, mod = 49, source file = D:\a\_work\1\s\src\vctools\langapi\include\cvinfo.h, line = 1665

0x1109 : Length = 16, Leaf = 0x1607 LF_UDT_MOD_SRC_LINE
	type = 0x1C02, mod = 49, source file = D:\a\_work\1\s\src\vctools\langapi\include\cvinfo.h, line = 4896

0x110a : Length = 16, Leaf = 0x1607 LF_UDT_MOD_SRC_LINE
	type = 0x1C07, mod = 49, source file = D:\a\_work\1\s\src\vctools\langapi\include\cvinfo.h, line = 4887

0x110b : Length = 16, Leaf = 0x1607 LF_UDT_MOD_SRC_LINE
	type = 0x1C0C, mod = 49, source file = D:\a\_work\1\s\src\vctools\langapi\include\pdb.h, line = 702

0x110c : Length = 16, Leaf = 0x1607 LF_UDT_MOD_SRC_LINE
	type = 0x1C3A, mod = 49, source file = D:\a\_work\1\s\src\vctools\langapi\include\pdb.h, line = 1403

0x110d : Length = 16, Leaf = 0x1607 LF_UDT_MOD_SRC_LINE
	type = 0x1C4C, mod = 49, source file = D:\a\_work\1\s\src\vctools\langapi\include\pdb.h, line = 1255

0x110e : Length = 16, Leaf = 0x1607 LF_UDT_MOD_SRC_LINE
	type = 0x1C66, mod = 49, source file = D:\a\_work\1\s\src\vctools\langapi\include\pdb.h, line = 935

0x110f : Length = 16, Leaf = 0x1607 LF_UDT_MOD_SRC_LINE
	type = 0x1C70, mod = 49, source file = D:\a\_work\1\s\src\vctools\langapi\include\cvinfo.h, line = 5001

0x1110 : Length = 16, Leaf = 0x1607 LF_UDT_MOD_SRC_LINE
	type = 0x1C7A, mod = 49, source file = D:\a\_work\1\s\src\vctools\langapi\include\cvinfo.h, line = 5037

0x1111 : Length = 16, Leaf = 0x1607 LF_UDT_MOD_SRC_LINE
	type = 0x1C85, mod = 49, source file = D:\a\_work\1\s\src\vctools\langapi\include\cvinfo.h, line = 5094

0x1112 : Length = 16, Leaf = 0x1607 LF_UDT_MOD_SRC_LINE
	type = 0x1C9F, mod = 49, source file = D:\a\_work\1\s\src\vctools\langapi\include\pdb.h, line = 1288

0x1113 : Length = 16, Leaf = 0x1607 LF_UDT_MOD_SRC_LINE
	type = 0x1CA5, mod = 49, source file = D:\a\_work\1\s\src\vctools\langapi\include\pdb.h, line = 153

0x1114 : Length = 46, Leaf = 0x1601 LF_FUNC_ID
	Type = 0x1CA9		Scope = global	GetPdbDllFromInstallPath

0x1115 : Length = 42, Leaf = 0x1601 LF_FUNC_ID
	Type = 0x1CAA		Scope = global	__vcrt_GetModuleHandleW

0x1116 : Length = 46, Leaf = 0x1601 LF_FUNC_ID
	Type = 0x1CAC		Scope = global	__vcrt_GetModuleFileNameW

0x1117 : Length = 46, Leaf = 0x1601 LF_FUNC_ID
	Type = 0x1CAE		Scope = global	GetPdbDllPathFromFilePath

0x1118 : Length = 42, Leaf = 0x1601 LF_FUNC_ID
	Type = 0x1CB0		Scope = global	__vcrt_LoadLibraryExW

0x1119 : Length = 34, Leaf = 0x1601 LF_FUNC_ID
	Type = 0x1CB8		Scope = global	_wsplitpath_s

0x111a : Length = 30, Leaf = 0x1601 LF_FUNC_ID
	Type = 0x1CBA		Scope = global	wcscpy_s

0x111b : Length = 34, Leaf = 0x1601 LF_FUNC_ID
	Type = 0x1CBC		Scope = global	_wmakepath_s

0x111c : Length = 30, Leaf = 0x1601 LF_FUNC_ID
	Type = 0x1CA9		Scope = global	GetPdbDll

0x111d : Length = 16, Leaf = 0x1607 LF_UDT_MOD_SRC_LINE
	type = 0x1CC8, mod = 50, source file = D:\a\_work\1\s\src\vctools\crt\vcruntime\inc\rtcapi.h, line = 92

0x111e : Length = 16, Leaf = 0x1607 LF_UDT_MOD_SRC_LINE
	type = 0x1CCA, mod = 50, source file = D:\a\_work\1\s\src\vctools\crt\vcruntime\inc\rtcapi.h, line = 86

0x111f : Length = 38, Leaf = 0x1601 LF_FUNC_ID
	Type = 0x192E		Scope = global	_RTC_StackFailure

0x1120 : Length = 38, Leaf = 0x1601 LF_FUNC_ID
	Type = 0x1921		Scope = global	_RTC_AllocaFailure

0x1121 : Length = 34, Leaf = 0x1601 LF_FUNC_ID
	Type = 0x192C		Scope = global	_RTC_Failure

0x1122 : Length = 16, Leaf = 0x1607 LF_UDT_MOD_SRC_LINE
	type = 0x1CE6, mod = 54, source file = D:\a\_work\1\s\src\vctools\crt\github\stl\inc\type_traits, line = 2190

0x1123 : Length = 16, Leaf = 0x1607 LF_UDT_MOD_SRC_LINE
	type = 0x1CED, mod = 54, source file = D:\a\_work\1\s\src\vctools\crt\github\stl\inc\type_traits, line = 2208

0x1124 : Length = 16, Leaf = 0x1607 LF_UDT_MOD_SRC_LINE
	type = 0x1CF3, mod = 54, source file = D:\a\_work\1\s\src\vctools\crt\github\stl\inc\type_traits, line = 2199

0x1125 : Length = 16, Leaf = 0x1607 LF_UDT_MOD_SRC_LINE
	type = 0x1D08, mod = 54, source file = D:\a\_work\1\s\src\vctools\crt\github\stl\inc\exception, line = 216

0x1126 : Length = 16, Leaf = 0x1607 LF_UDT_MOD_SRC_LINE
	type = 0x1D19, mod = 54, source file = D:\a\_work\1\s\src\vctools\crt\github\stl\inc\exception, line = 327

0x1127 : Length = 16, Leaf = 0x1607 LF_UDT_MOD_SRC_LINE
	type = 0x1D1F, mod = 54, source file = D:\a\_work\1\s\src\vctools\crt\github\stl\inc\type_traits, line = 2217

0x1128 : Length = 16, Leaf = 0x1607 LF_UDT_MOD_SRC_LINE
	type = 0x1D22, mod = 54, source file = D:\a\_work\1\s\src\vctools\crt\vcstartup\build\xmd\msvcrt_kernel32\predefined C++ types (compiler internal), line = 134


*** MODULES

0001 "" "* Linker Generated Manifest RES *"
0002 "C:\Users\matth\Documents\projects\tinyxml2\vs\Debug\xmltest.obj"
0003 "C:\Users\matth\Documents\projects\tinyxml2\vs\Debug\tinyxml2.obj"
0004 "C:\Program Files (x86)\Windows Kits\10\lib\10.0.19041.0\um\x86\kernel32.lib" "Import:KERNEL32.dll"
0005 "C:\Program Files (x86)\Windows Kits\10\lib\10.0.19041.0\um\x86\kernel32.lib" "KERNEL32.dll"
0006 "C:\Program Files\Microsoft Visual Studio\2022\Community\VC\Tools\MSVC\14.33.31629\lib\x86\MSVCRTD.lib" "D:\a\_work\1\s\Intermediate\crt\vcstartup\build\xmd\msvcrt_kernel32\msvcrt_kernel32.nativeproj\objd\x86\ftol2.obj"
0007 "C:\Program Files\Microsoft Visual Studio\2022\Community\VC\Tools\MSVC\14.33.31629\lib\x86\MSVCRTD.lib" "D:\a\_work\1\s\Intermediate\crt\vcstartup\build\xmd\msvcrt_kernel32\msvcrt_kernel32.nativeproj\objd\x86\ftol3.obj"
0008 "C:\Program Files\Microsoft Visual Studio\2022\Community\VC\Tools\MSVC\14.33.31629\lib\x86\MSVCRTD.lib" "D:\a\_work\1\s\Intermediate\crt\vcstartup\build\xmd\msvcrt_kernel32\msvcrt_kernel32.nativeproj\objd\x86\chkstk.obj"
0009 "C:\Program Files\Microsoft Visual Studio\2022\Community\VC\Tools\MSVC\14.33.31629\lib\x86\MSVCRTD.lib" "D:\a\_work\1\s\Intermediate\crt\vcstartup\build\xmd\msvcrt_kernel32\msvcrt_kernel32.nativeproj\objd\x86\gs_cookie.obj"
000A "C:\Program Files\Microsoft Visual Studio\2022\Community\VC\Tools\MSVC\14.33.31629\lib\x86\MSVCRTD.lib" "D:\a\_work\1\s\Intermediate\crt\vcstartup\build\xmd\msvcrt_kernel32\msvcrt_kernel32.nativeproj\objd\x86\gs_report.obj"
000B "C:\Program Files\Microsoft Visual Studio\2022\Community\VC\Tools\MSVC\14.33.31629\lib\x86\MSVCRTD.lib" "D:\a\_work\1\s\Intermediate\crt\vcstartup\build\xmd\msvcrt_kernel32\msvcrt_kernel32.nativeproj\objd\x86\gs_support.obj"
000C "C:\Program Files\Microsoft Visual Studio\2022\Community\VC\Tools\MSVC\14.33.31629\lib\x86\MSVCRTD.lib" "D:\a\_work\1\s\Intermediate\crt\vcstartup\build\xmd\msvcrt_kernel32\msvcrt_kernel32.nativeproj\objd\x86\debugger_jmc.obj"
000D "C:\Program Files\Microsoft Visual Studio\2022\Community\VC\Tools\MSVC\14.33.31629\lib\x86\MSVCRTD.lib" "D:\a\_work\1\s\Intermediate\crt\vcstartup\build\xmd\msvcrt_kernel32\msvcrt_kernel32.nativeproj\objd\x86\guard_support.obj"
000E "C:\Program Files\Microsoft Visual Studio\2022\Community\VC\Tools\MSVC\14.33.31629\lib\x86\MSVCRTD.lib" "D:\a\_work\1\s\Intermediate\crt\vcstartup\build\xmd\msvcrt_kernel32\msvcrt_kernel32.nativeproj\objd\x86\loadcfg.obj"
000F "C:\Program Files\Microsoft Visual Studio\2022\Community\VC\Tools\MSVC\14.33.31629\lib\x86\MSVCRTD.lib" "D:\a\_work\1\s\Intermediate\crt\vcstartup\build\xmd\msvcrt_kernel32\msvcrt_kernel32.nativeproj\objd\x86\dyn_tls_dtor.obj"
0010 "C:\Program Files\Microsoft Visual Studio\2022\Community\VC\Tools\MSVC\14.33.31629\lib\x86\MSVCRTD.lib" "D:\a\_work\1\s\Intermediate\crt\vcstartup\build\xmd\msvcrt_kernel32\msvcrt_kernel32.nativeproj\objd\x86\dyn_tls_init.obj"
0011 "C:\Program Files\Microsoft Visual Studio\2022\Community\VC\Tools\MSVC\14.33.31629\lib\x86\MSVCRTD.lib" "D:\a\_work\1\s\Intermediate\crt\vcstartup\build\xmd\msvcrt_kernel32\msvcrt_kernel32.nativeproj\objd\x86\matherr_detection.obj"
0012 "C:\Program Files\Microsoft Visual Studio\2022\Community\VC\Tools\MSVC\14.33.31629\lib\x86\MSVCRTD.lib" "D:\a\_work\1\s\Intermediate\crt\vcstartup\build\xmd\msvcrt_kernel32\msvcrt_kernel32.nativeproj\objd\x86\ucrt_detection.obj"
0013 "C:\Program Files\Microsoft Visual Studio\2022\Community\VC\Tools\MSVC\14.33.31629\lib\x86\MSVCRTD.lib" "D:\a\_work\1\s\Intermediate\crt\vcstartup\build\xmd\msvcrt_kernel32\msvcrt_kernel32.nativeproj\objd\x86\cpu_disp.obj"
0014 "C:\Program Files\Microsoft Visual Studio\2022\Community\VC\Tools\MSVC\14.33.31629\lib\x86\MSVCRTD.lib" "D:\a\_work\1\s\Intermediate\crt\vcstartup\build\xmd\msvcrt_kernel32\msvcrt_kernel32.nativeproj\objd\x86\chandler4gs.obj"
0015 "C:\Program Files\Microsoft Visual Studio\2022\Community\VC\Tools\MSVC\14.33.31629\lib\x86\MSVCRTD.lib" "D:\a\_work\1\s\Intermediate\crt\vcstartup\build\xmd\msvcrt_kernel32\msvcrt_kernel32.nativeproj\objd\x86\secchk.obj"
0016 "C:\Program Files\Microsoft Visual Studio\2022\Community\VC\Tools\MSVC\14.33.31629\lib\x86\MSVCRTD.lib" "D:\a\_work\1\s\Intermediate\crt\vcstartup\build\xmd\msvcrt_kernel32\msvcrt_kernel32.nativeproj\objd\x86\argv_mode.obj"
0017 "C:\Program Files\Microsoft Visual Studio\2022\Community\VC\Tools\MSVC\14.33.31629\lib\x86\MSVCRTD.lib" "D:\a\_work\1\s\Intermediate\crt\vcstartup\build\xmd\msvcrt_kernel32\msvcrt_kernel32.nativeproj\objd\x86\commit_mode.obj"
0018 "C:\Program Files\Microsoft Visual Studio\2022\Community\VC\Tools\MSVC\14.33.31629\lib\x86\MSVCRTD.lib" "D:\a\_work\1\s\Intermediate\crt\vcstartup\build\xmd\msvcrt_kernel32\msvcrt_kernel32.nativeproj\objd\x86\default_local_stdio_options.obj"
0019 "C:\Program Files\Microsoft Visual Studio\2022\Community\VC\Tools\MSVC\14.33.31629\lib\x86\MSVCRTD.lib" "D:\a\_work\1\s\Intermediate\crt\vcstartup\build\xmd\msvcrt_kernel32\msvcrt_kernel32.nativeproj\objd\x86\denormal_control.obj"
001A "C:\Program Files\Microsoft Visual Studio\2022\Community\VC\Tools\MSVC\14.33.31629\lib\x86\MSVCRTD.lib" "D:\a\_work\1\s\Intermediate\crt\vcstartup\build\xmd\msvcrt_kernel32\msvcrt_kernel32.nativeproj\objd\x86\env_mode.obj"
001B "C:\Program Files\Microsoft Visual Studio\2022\Community\VC\Tools\MSVC\14.33.31629\lib\x86\MSVCRTD.lib" "D:\a\_work\1\s\Intermediate\crt\vcstartup\build\xmd\msvcrt_kernel32\msvcrt_kernel32.nativeproj\objd\x86\file_mode.obj"
001C "C:\Program Files\Microsoft Visual Studio\2022\Community\VC\Tools\MSVC\14.33.31629\lib\x86\MSVCRTD.lib" "D:\a\_work\1\s\Intermediate\crt\vcstartup\build\xmd\msvcrt_kernel32\msvcrt_kernel32.nativeproj\objd\x86\fltused.obj"
001D "C:\Program Files\Microsoft Visual Studio\2022\Community\VC\Tools\MSVC\14.33.31629\lib\x86\MSVCRTD.lib" "D:\a\_work\1\s\Intermediate\crt\vcstartup\build\xmd\msvcrt_kernel32\msvcrt_kernel32.nativeproj\objd\x86\invalid_parameter_handler.obj"
001E "C:\Program Files\Microsoft Visual Studio\2022\Community\VC\Tools\MSVC\14.33.31629\lib\x86\MSVCRTD.lib" "D:\a\_work\1\s\Intermediate\crt\vcstartup\build\xmd\msvcrt_kernel32\msvcrt_kernel32.nativeproj\objd\x86\matherr.obj"
001F "C:\Program Files\Microsoft Visual Studio\2022\Community\VC\Tools\MSVC\14.33.31629\lib\x86\MSVCRTD.lib" "D:\a\_work\1\s\Intermediate\crt\vcstartup\build\xmd\msvcrt_kernel32\msvcrt_kernel32.nativeproj\objd\x86\new_mode.obj"
0020 "C:\Program Files\Microsoft Visual Studio\2022\Community\VC\Tools\MSVC\14.33.31629\lib\x86\MSVCRTD.lib" "D:\a\_work\1\s\Intermediate\crt\vcstartup\build\xmd\msvcrt_kernel32\msvcrt_kernel32.nativeproj\objd\x86\thread_locale.obj"
0021 "C:\Program Files\Microsoft Visual Studio\2022\Community\VC\Tools\MSVC\14.33.31629\lib\x86\MSVCRTD.lib" "D:\a\_work\1\s\Intermediate\crt\vcstartup\build\xmd\msvcrt_kernel32\msvcrt_kernel32.nativeproj\objd\x86\std_type_info_static.obj"
0022 "C:\Program Files\Microsoft Visual Studio\2022\Community\VC\Tools\MSVC\14.33.31629\lib\x86\MSVCRTD.lib" "D:\a\_work\1\s\Intermediate\crt\vcstartup\build\xmd\msvcrt_kernel32\msvcrt_kernel32.nativeproj\objd\x86\tncleanup.obj"
0023 "C:\Program Files\Microsoft Visual Studio\2022\Community\VC\Tools\MSVC\14.33.31629\lib\x86\MSVCRTD.lib" "D:\a\_work\1\s\Intermediate\crt\vcstartup\build\xmd\msvcrt_kernel32\msvcrt_kernel32.nativeproj\objd\x86\delete_array.obj"
0024 "C:\Program Files\Microsoft Visual Studio\2022\Community\VC\Tools\MSVC\14.33.31629\lib\x86\MSVCRTD.lib" "D:\a\_work\1\s\Intermediate\crt\vcstartup\build\xmd\msvcrt_kernel32\msvcrt_kernel32.nativeproj\objd\x86\delete_scalar.obj"
0025 "C:\Program Files\Microsoft Visual Studio\2022\Community\VC\Tools\MSVC\14.33.31629\lib\x86\MSVCRTD.lib" "D:\a\_work\1\s\Intermediate\crt\vcstartup\build\xmd\msvcrt_kernel32\msvcrt_kernel32.nativeproj\objd\x86\delete_scalar_size.obj"
0026 "C:\Program Files\Microsoft Visual Studio\2022\Community\VC\Tools\MSVC\14.33.31629\lib\x86\MSVCRTD.lib" "D:\a\_work\1\s\Intermediate\crt\vcstartup\build\xmd\msvcrt_kernel32\msvcrt_kernel32.nativeproj\objd\x86\new_array.obj"
0027 "C:\Program Files\Microsoft Visual Studio\2022\Community\VC\Tools\MSVC\14.33.31629\lib\x86\MSVCRTD.lib" "D:\a\_work\1\s\Intermediate\crt\vcstartup\build\xmd\msvcrt_kernel32\msvcrt_kernel32.nativeproj\objd\x86\new_scalar.obj"
0028 "C:\Program Files\Microsoft Visual Studio\2022\Community\VC\Tools\MSVC\14.33.31629\lib\x86\MSVCRTD.lib" "D:\a\_work\1\s\Intermediate\crt\vcstartup\build\xmd\msvcrt_kernel32\msvcrt_kernel32.nativeproj\objd\x86\throw_bad_alloc.obj"
0029 "C:\Program Files\Microsoft Visual Studio\2022\Community\VC\Tools\MSVC\14.33.31629\lib\x86\MSVCRTD.lib" "D:\a\_work\1\s\Intermediate\crt\vcstartup\build\xmd\msvcrt_kernel32\msvcrt_kernel32.nativeproj\objd\x86\exe_main.obj"
002A "C:\Program Files\Microsoft Visual Studio\2022\Community\VC\Tools\MSVC\14.33.31629\lib\x86\MSVCRTD.lib" "D:\a\_work\1\s\Intermediate\crt\vcstartup\build\xmd\msvcrt_kernel32\msvcrt_kernel32.nativeproj\objd\x86\initializers.obj"
002B "C:\Program Files\Microsoft Visual Studio\2022\Community\VC\Tools\MSVC\14.33.31629\lib\x86\MSVCRTD.lib" "D:\a\_work\1\s\Intermediate\crt\vcstartup\build\xmd\msvcrt_kernel32\msvcrt_kernel32.nativeproj\objd\x86\utility.obj"
002C "C:\Program Files\Microsoft Visual Studio\2022\Community\VC\Tools\MSVC\14.33.31629\lib\x86\MSVCRTD.lib" "D:\a\_work\1\s\Intermediate\crt\vcstartup\build\xmd\msvcrt_kernel32\msvcrt_kernel32.nativeproj\objd\x86\ucrt_stubs.obj"
002D "C:\Program Files\Microsoft Visual Studio\2022\Community\VC\Tools\MSVC\14.33.31629\lib\x86\MSVCRTD.lib" "D:\a\_work\1\s\Intermediate\crt\vcstartup\build\xmd\msvcrt_kernel32\msvcrt_kernel32.nativeproj\objd\x86\utility_desktop.obj"
002E "C:\Program Files\Microsoft Visual Studio\2022\Community\VC\Tools\MSVC\14.33.31629\lib\x86\MSVCRTD.lib" "D:\a\_work\1\s\Intermediate\crt\vcstartup\build\xmd\msvcrt_kernel32\msvcrt_kernel32.nativeproj\objd\x86\error.obj"
002F "C:\Program Files\Microsoft Visual Studio\2022\Community\VC\Tools\MSVC\14.33.31629\lib\x86\MSVCRTD.lib" "D:\a\_work\1\s\Intermediate\crt\vcstartup\build\xmd\msvcrt_kernel32\msvcrt_kernel32.nativeproj\objd\x86\init.obj"
0030 "C:\Program Files\Microsoft Visual Studio\2022\Community\VC\Tools\MSVC\14.33.31629\lib\x86\MSVCRTD.lib" "D:\a\_work\1\s\Intermediate\crt\vcstartup\build\xmd\msvcrt_kernel32\msvcrt_kernel32.nativeproj\objd\x86\initsect.obj"
0031 "C:\Program Files\Microsoft Visual Studio\2022\Community\VC\Tools\MSVC\14.33.31629\lib\x86\MSVCRTD.lib" "D:\a\_work\1\s\Intermediate\crt\vcstartup\build\xmd\msvcrt_kernel32\msvcrt_kernel32.nativeproj\objd\x86\pdblkup.obj"
0032 "C:\Program Files\Microsoft Visual Studio\2022\Community\VC\Tools\MSVC\14.33.31629\lib\x86\MSVCRTD.lib" "D:\a\_work\1\s\Intermediate\crt\vcstartup\build\xmd\msvcrt_kernel32\msvcrt_kernel32.nativeproj\objd\x86\stack.obj"
0033 "C:\Program Files\Microsoft Visual Studio\2022\Community\VC\Tools\MSVC\14.33.31629\lib\x86\MSVCRTD.lib" "D:\a\_work\1\s\Intermediate\crt\vcstartup\build\xmd\msvcrt_kernel32\msvcrt_kernel32.nativeproj\objd\x86\userapi.obj"
0034 "C:\Program Files\Microsoft Visual Studio\2022\Community\VC\Tools\MSVC\14.33.31629\lib\x86\MSVCRTD.lib" "D:\a\_work\1\s\Intermediate\crt\vcstartup\build\xmd\msvcrt_kernel32\msvcrt_kernel32.nativeproj\objd\x86\default_precision.obj"
0035 "C:\Program Files\Microsoft Visual Studio\2022\Community\VC\Tools\MSVC\14.33.31629\lib\x86\MSVCRTD.lib" "D:\a\_work\1\s\Intermediate\crt\vcstartup\build\xmd\msvcrt_kernel32\msvcrt_kernel32.nativeproj\objd\x86\x86_exception_filter.obj"
0036 "C:\Program Files\Microsoft Visual Studio\2022\Community\VC\Tools\MSVC\14.33.31629\lib\x86\MSVCRTD.lib" "D:\a\_work\1\s\Intermediate\crt\vcstartup\build\xmd\msvcrt_kernel32\msvcrt_kernel32.nativeproj\objd\x86\chandler4_noexcept.obj"
0037 "C:\Program Files\Microsoft Visual Studio\2022\Community\VC\Tools\MSVC\14.33.31629\lib\x86\vcruntimed.lib" "VCRUNTIME140D.dll"
0038 "C:\Program Files\Microsoft Visual Studio\2022\Community\VC\Tools\MSVC\14.33.31629\lib\x86\vcruntimed.lib" "Import:VCRUNTIME140D.dll"
0039 "C:\Program Files (x86)\Windows Kits\10\lib\10.0.19041.0\ucrt\x86\ucrtd.lib" "Import:ucrtbased.dll"
003A "C:\Program Files (x86)\Windows Kits\10\lib\10.0.19041.0\ucrt\x86\ucrtd.lib" "ucrtbased.dll"
003B "" "* Linker *"

*** PUBLICS

S_PUB32: [0002:00003860], Flags: 00000002, ??1?$MemPoolT@$0DI@@tinyxml2@@UAE@XZ
S_PUB32: [0002:000036E0], Flags: 00000002, ??1?$MemPoolT@$0CI@@tinyxml2@@UAE@XZ
S_PUB32: [0003:00003E70], Flags: 00000000, ??_C@_06HLBGJBME@child2@
S_PUB32: [0003:00001F68], Flags: 00000000, ??_C@_0BM@HCFLCKCD@?4?1resources?1out?1compact?4xml@
S_PUB32: [0002:0000F160], Flags: 00000002, ?ReadBOM@XMLUtil@tinyxml2@@SAPBDPBDPA_N@Z
S_PUB32: [0002:000126D0], Flags: 00000002, ?ToStr@XMLUtil@tinyxml2@@SAX_KPADH@Z
S_PUB32: [0003:00003FB0], Flags: 00000000, ??_C@_0DA@GFHCIFGH@aaaaaaaaaaaaaaaaaaaaaaaaaaaaaaa@
S_PUB32: [0005:000000C4], Flags: 00000000, __imp____vcrt_GetModuleFileNameW
S_PUB32: [0002:00015590], Flags: 00000002, ?CStr@XMLPrinter@tinyxml2@@QBEPBDXZ
S_PUB32: [0003:00002970], Flags: 00000000, ??_C@_0BE@BNMHKHOJ@Bool?5true?5is?5?8true?8@
S_PUB32: [0002:00025490], Flags: 00000002, ?initialize_environment@__scrt_narrow_environment_policy@@SAHXZ
S_PUB32: [0002:00006620], Flags: 00000002, ?CurrentAllocs@?$MemPoolT@$0DM@@tinyxml2@@QBEHXZ
S_PUB32: [0002:00013690], Flags: 00000002, ?Visit@XMLVisitor@tinyxml2@@UAE_NABVXMLText@2@@Z
S_PUB32: [0003:00006B48], Flags: 00000000, ??_C@_08OMAHNMHJ@?6Data?3?5?$DM@
S_PUB32: [0003:00005DDC], Flags: 00000000, ??_C@_0BC@FJJBGHHG@Crash?5bug?5parsing@
S_PUB32: [0002:00017A50], Flags: 00000002, ?__autoclassinit2@XMLDocument@tinyxml2@@QAEXI@Z
S_PUB32: [0002:00010A80], Flags: 00000002, ?SetTracked@?$MemPoolT@$0DE@@tinyxml2@@UAEXXZ
S_PUB32: [0005:00000188], Flags: 00000000, __imp___free_dbg
S_PUB32: [0002:00025870], Flags: 00000002, ?what@exception@std@@UBEPBDXZ
S_PUB32: [0002:0000C5F0], Flags: 00000002, ?Print@XMLDocument@tinyxml2@@QBEXPAVXMLPrinter@2@@Z
S_PUB32: [0003:00004744], Flags: 00000000, ??_C@_0BO@MOPJAMNM@previousSiblingElement?$CI?$CJ?5test@
S_PUB32: [0003:000079A8], Flags: 00000000, ??_R4MemPool@tinyxml2@@6B@
S_PUB32: [0002:00027560], Flags: 00000002, ___castguard_check_failure_fastfail
S_PUB32: [0002:0000AC10], Flags: 00000002, ?OpenElement@XMLPrinter@tinyxml2@@QAEXPBD_N@Z
S_PUB32: [0005:00000008], Flags: 00000000, __imp__FreeLibrary@4
S_PUB32: [0002:00027520], Flags: 00000002, _ReadPointerNoFence
S_PUB32: [0003:00001FA0], Flags: 00000000, ??_C@_0P@FNACBBLI@Load?5dream?4xml@
S_PUB32: [0003:0000495C], Flags: 00000000, ??_C@_0CG@LOCDHJFB@Non?9alpha?5element?5lead?5letter?5p@
S_PUB32: [0002:00026F40], Flags: 00000002, ?__scrt_initialize_type_info@@YAXXZ
S_PUB32: [0003:00006124], Flags: 00000000, ??_C@_0BD@HFPAFICF@LineNumbers?9String@
S_PUB32: [0002:000131A0], Flags: 00000002, ?Untracked@?$MemPoolT@$0CI@@tinyxml2@@QBEHXZ
S_PUB32: [0003:000028C0], Flags: 00000000, ??_C@_0BE@FOHJNFHP@Attribute?3?5unsigned@
S_PUB32: [0002:00003020], Flags: 00000002, ??0XMLPrinter@tinyxml2@@QAE@PAU_iobuf@@_NH@Z
S_PUB32: [0005:000001DC], Flags: 00000000, __imp__strncmp
S_PUB32: [0002:00010D30], Flags: 00000002, ?ShallowClone@XMLDocument@tinyxml2@@UBEPAVXMLNode@2@PAV12@@Z
S_PUB32: [0002:00013260], Flags: 00000002, ?Untracked@?$MemPoolT@$0DI@@tinyxml2@@QBEHXZ
S_PUB32: [0002:0000FDB0], Flags: 00000002, ?SetBoolSerialization@XMLUtil@tinyxml2@@SAXPBD0@Z
S_PUB32: [0003:00002A88], Flags: 00000000, ??_C@_0M@DKBKGNEN@attrib?9bool@
S_PUB32: [0003:00000CDC], Flags: 00000000, ??_C@_0BH@GPBIBIKN@XML_ERROR_PARSING_TEXT@
S_PUB32: [0003:0000490C], Flags: 00000000, ??_C@_0O@EMFLMKH@QueryBoolText@
S_PUB32: [0003:00002614], Flags: 00000000, ??_C@_0O@NCGAPDDE@This?5is?5?5text@
S_PUB32: [0002:00012010], Flags: 00000002, ?ToElement@XMLElement@tinyxml2@@UBEPBV12@XZ
S_PUB32: [0002:000068C0], Flags: 00000002, ?DeleteAttribute@XMLElement@tinyxml2@@QAEXPBD@Z
S_PUB32: [0003:00003E98], Flags: 00000000, ??_C@_0BL@MDGEOBDB@Deep?5clone?5of?5sub?9element?4@
S_PUB32: [0002:000275A0], Flags: 00000002, ___castguard_check_failure_os_handled
S_PUB32: [0002:00016170], Flags: 00000002, ?PreviousSiblingElement@XMLNode@tinyxml2@@QAEPAVXMLElement@2@PBD@Z
S_PUB32: [0002:00005990], Flags: 00000002, ?Clear@?$MemPoolT@$0DI@@tinyxml2@@QAEXXZ
S_PUB32: [0002:00005770], Flags: 00000002, ?Clear@?$MemPoolT@$0CI@@tinyxml2@@QAEXXZ
S_PUB32: [0003:00005B14], Flags: 00000000, ??_C@_0CJ@NGCKDNND@?4?1resources?1xmltest?946367835527@
S_PUB32: [0002:00004840], Flags: 00000002, ??_EXMLText@tinyxml2@@MAEPAXI@Z
S_PUB32: [0002:00028540], Flags: 00000002, ___scrt_stub_for_is_c_termination_complete
S_PUB32: [0002:0000E3D0], Flags: 00000002, ?QueryBoolAttribute@XMLElement@tinyxml2@@QBE?AW4XMLError@2@PBDPA_N@Z
S_PUB32: [0003:00005150], Flags: 00000000, ??_C@_03IJDNBOJF@two@
S_PUB32: [0002:000127E0], Flags: 00000002, ?ToText@XMLNode@tinyxml2@@UAEPAVXMLText@2@XZ
S_PUB32: [0002:00011EA0], Flags: 00000002, ?ToDocument@XMLNode@tinyxml2@@UAEPAVXMLDocument@2@XZ
S_PUB32: [0003:00004E00], Flags: 00000000, ??_C@_0BG@KJCHNKFD@Loading?5an?5empty?5file@
S_PUB32: [0003:00001254], Flags: 00000000, ??_C@_0BA@JJMHCBFE@filename?$DN?$DMnull?$DO@
S_PUB32: [0003:00001220], Flags: 00000000, ??_C@_02GOEMJPDN@?$DP?$DO@
S_PUB32: [0003:0000205C], Flags: 00000000, ??_C@_09BHKMDEKD@Dream?9out@
S_PUB32: [0002:000281D0], Flags: 00000002, __except_handler4_noexcept
S_PUB32: [0002:00012110], Flags: 00000002, ?ToElementWithName@XMLNode@tinyxml2@@ABEPBVXMLElement@2@PBD@Z
S_PUB32: [0005:000001AC], Flags: 00000000, __imp___crt_at_quick_exit
S_PUB32: [0004:00000464], Flags: 00000000, ??_R0?AVXMLElement@tinyxml2@@@8
S_PUB32: [0003:000056D0], Flags: 00000000, ??_C@_0BL@MAEBNFLI@No?5such?5file?5?9?5should?5fail@
S_PUB32: [0003:000030D0], Flags: 00000000, ??_C@_07JKKCBBMM@context@
S_PUB32: [0003:00003BCC], Flags: 00000000, ??_C@_0N@JGOIBBEK@Broken?5CDATA@
S_PUB32: [0002:000025F0], Flags: 00000002, ??0?$MemPoolT@$0CI@@tinyxml2@@QAE@XZ
S_PUB32: [0003:000051BC], Flags: 00000000, ??_C@_0CF@MJGMJGKA@Insertion?5with?5removal?5parse?5ro@
S_PUB32: [0003:00002A54], Flags: 00000000, ??_C@_0BA@BEIODPNA@attrib?9unsigned@
S_PUB32: [0003:00001FB4], Flags: 00000000, ??_C@_0BL@FKPDPIFL@resources?1out?1dreamout?4xml@
S_PUB32: [0004:00000C78], Flags: 00000000, ___scrt_native_startup_lock
S_PUB32: [0002:000027F0], Flags: 00000002, ??0?$MemPoolT@$0DI@@tinyxml2@@QAE@XZ
S_PUB32: [0003:00002234], Flags: 00000000, ??_C@_0BP@JKMCBOMB@Query?5attribute?3?5double?5as?5int@
S_PUB32: [0003:00006A10], Flags: 00000000, ??_C@_1EA@NFKNIFJP@?$AAR?$AAu?$AAn?$AA?9?$AAT?$AAi?$AAm?$AAe?$AA?5?$AAC?$AAh?$AAe?$AAc?$AAk?$AA?5@
S_PUB32: [0002:000284E7], Flags: 00000002, _GetProcAddress@8
S_PUB32: [0002:00026F80], Flags: 00000002, __should_initialize_environment
S_PUB32: [0003:00003B4C], Flags: 00000000, ??_C@_0BM@JIIHAJNF@Comments?5iterate?5correctly?4@
S_PUB32: [0002:00006100], Flags: 00000002, ?CompactMode@XMLPrinter@tinyxml2@@MAE_NABVXMLElement@2@@Z
S_PUB32: [0003:00007BFC], Flags: 00000000, ??_R4type_info@@6B@
S_PUB32: [0002:00028500], Flags: 00000002, ___acrt_thread_attach
S_PUB32: [0004:00000180], Flags: 00000000, ___scrt_default_matherr
S_PUB32: [0002:00028439], Flags: 00000002, __execute_onexit_table
S_PUB32: [0005:000001EC], Flags: 00000000, __imp____stdio_common_vsprintf
S_PUB32: [0002:0002839D], Flags: 00000002, __except1
S_PUB32: [0003:00003330], Flags: 00000000, ??_C@_0MK@GGAOCKLE@?$DM?$DPxml?5version?$DN?$CC1?40?$CC?5standalone?$DN@
S_PUB32: [0003:000057E8], Flags: 00000000, ??_C@_0CG@JIIHBLOD@?$DMfirst?$DO?$DM?1first?$DO?$DM?$DPxml?5version?$DN?$CC1@
S_PUB32: [0003:00000BA0], Flags: 00000000, ??_C@_05LAPONLG@false@
S_PUB32: [0003:000021B8], Flags: 00000000, ??_C@_0BF@IJOAHEKC@Top?5level?5attributes@
S_PUB32: [0002:000094A0], Flags: 00000002, ?InsertFirstChild@XMLNode@tinyxml2@@QAEPAV12@PAV12@@Z
S_PUB32: [0003:00006530], Flags: 00000000, ??_7exception@std@@6B@
S_PUB32: [0002:00002470], Flags: 00000002, ??0?$DynArray@PAUBlock@?$MemPoolT@$0DM@@tinyxml2@@$09@tinyxml2@@QAE@XZ
S_PUB32: [0003:00001768], Flags: 00000000, ??_C@_0CE@LIOACJNG@?$DMelement?$DOThis?5?$CGamp?$DL?5That?4?$DM?1elem@
S_PUB32: [0003:00005190], Flags: 00000000, ??_C@_0CF@EMCHKENB@Move?5node?5from?5within?5?$DMone?$DO?5to?5@
S_PUB32: [0004:00000144], Flags: 00000000, ___security_cookie
S_PUB32: [0003:00006460], Flags: 00000000, __real@408f400000000000
S_PUB32: [0003:000011DC], Flags: 00000000, ??_C@_04OHCHCBJH@?$CFllx@
S_PUB32: [0002:00015380], Flags: 00000002, ??1?$DynArray@D$09@tinyxml2@@QAE@XZ
S_PUB32: [0002:000242A0], Flags: 00000002, @__security_check_cookie@4
S_PUB32: [0002:000139F0], Flags: 00000002, ?VisitExit@XMLPrinter@tinyxml2@@UAE_NABVXMLDocument@2@@Z
S_PUB32: [0002:0000DEF0], Flags: 00000002, ?PushText@XMLPrinter@tinyxml2@@QAEXPBD_N@Z
S_PUB32: [0003:0000657C], Flags: 00000000, ??_7bad_array_new_length@std@@6B@
S_PUB32: [0002:00027540], Flags: 00000002, ___castguard_check_failure_debugbreak
S_PUB32: [0005:0000015C], Flags: 00000000, __imp___initterm_e
S_PUB32: [0003:000022BC], Flags: 00000000, ??_C@_0BC@HLHFPJPD@Empty?5top?5element@
S_PUB32: [0002:00003560], Flags: 00000002, ??1?$DynArray@PAUBlock@?$MemPoolT@$0DM@@tinyxml2@@$09@tinyxml2@@QAE@XZ
S_PUB32: [0003:00002B64], Flags: 00000000, ??_C@_05NCMOGCGJ@12?412@
S_PUB32: [0003:00006B40], Flags: 00000000, ??_C@_01EEMJAFIK@?6@
S_PUB32: [0002:000150C0], Flags: 00000002, ??0?$DynArray@D$09@tinyxml2@@QAE@XZ
S_PUB32: [0005:000001A0], Flags: 00000000, __imp___register_onexit_function
S_PUB32: [0002:00017710], Flags: 00000002, ?XMLTest@@YA_NPBD00_N1@Z
S_PUB32: [0003:000022B4], Flags: 00000000, ??_C@_06NOBAAADK@?$DMdoc?1?$DO@
S_PUB32: [0003:00002D60], Flags: 00000000, ??_C@_0BM@DJBALCAF@CDATA?5symbolic?5puns?5round?51@
S_PUB32: [0003:00002988], Flags: 00000000, ??_C@_0BB@OFBBIIID@Bool?5true?5is?5?81?8@
S_PUB32: [0003:00007C88], Flags: 00000000, ??_R1A@?0A@EA@exception@std@@8
S_PUB32: [0003:00004070], Flags: 00000000, ??_C@_0BI@IANOCNPB@Attribute?5order?5?$CIempty?$CJ@
S_PUB32: [0005:00000138], Flags: 00000000, __imp___CrtDbgReportW
S_PUB32: [0002:000282A1], Flags: 00000002, ___std_exception_destroy
S_PUB32: [0002:00026910], Flags: 00000002, ___scrt_dllmain_uninitialize_critical
S_PUB32: [0002:00012660], Flags: 00000002, ?ToStr@XMLUtil@tinyxml2@@SAX_JPADH@Z
S_PUB32: [0002:000282B3], Flags: 00000002, ___current_exception
S_PUB32: [0002:0000B680], Flags: 00000002, ?ParseDeep@XMLNode@tinyxml2@@MAEPADPADPAVStrPair@2@PAH@Z
S_PUB32: [0003:00005758], Flags: 00000000, ??_C@_0FG@IIINJJOG@?$DM?$DPxml?5version?$DN?$CC1?40?$CC?5?$DP?$DO?$DM?$DPxml?9sty@
S_PUB32: [0005:00000000], Flags: 00000000, __imp__QueryPerformanceCounter@4
S_PUB32: [0003:00004D98], Flags: 00000000, ??_C@_0BG@MNHJKCKA@Accept?5of?5sub?9element@
S_PUB32: [0003:00009060], Flags: 00000000, __CTA3?AVbad_array_new_length@std@@
S_PUB32: [0002:00010BA0], Flags: 00000002, ?SetValue@XMLNode@tinyxml2@@QAEXPBD_N@Z
S_PUB32: [0003:00005320], Flags: 00000000, ??_C@_0CG@DPABFJEA@?$DMtwo?$DO?5is?5the?5last?5child?5at?5root@
S_PUB32: [0003:00004154], Flags: 00000000, ??_C@_0BI@MCKGOBEF@Attribute?5with?5space?5?$CD3@
S_PUB32: [0004:00000814], Flags: 00000000, ?startMemState@@3U_CrtMemState@@A
S_PUB32: [0005:000000A8], Flags: 00000000, __imp____std_exception_copy
S_PUB32: [0003:00002640], Flags: 00000000, ??_C@_0BP@NPPGHFHL@?$DMfoo?$DO?$DMb?$DOThis?5is?5text?$DM?1b?$DO?$DM?1foo?$DO@
S_PUB32: [0003:00001D60], Flags: 00000000, ??_C@_08HINNNIBI@Element1@
S_PUB32: [0002:000241B0], Flags: 00000002, @_RTC_CheckStackVars@8
S_PUB32: [0002:00010B40], Flags: 00000002, ?SetTracked@?$MemPoolT@$0DM@@tinyxml2@@UAEXXZ
S_PUB32: [0003:000042C4], Flags: 00000000, ??_C@_0CE@MKMKDBDF@Handle?0?5const?0?5element?5name?5mat@
S_PUB32: [0002:00028250], Flags: 00000002, ___scrt_is_ucrt_dll_in_use
S_PUB32: [0002:000261F0], Flags: 00000002, ___isa_available_init
S_PUB32: [0003:00005620], Flags: 00000000, ??_C@_0BK@KJNMMLAJ@?4?1no?1such?1path?1pretty?4xml@
S_PUB32: [0003:00007720], Flags: 00000000, ??_R1A@?0A@EA@XMLElement@tinyxml2@@8
S_PUB32: [0002:00028530], Flags: 00000002, ___scrt_stub_for_acrt_uninitialize_critical
S_PUB32: [0003:00006E3C], Flags: 00000000, ??_C@_0M@HLOHPNFA@RegCloseKey@
S_PUB32: [0005:00000040], Flags: 00000000, __imp__IsDebuggerPresent@0
S_PUB32: [0002:000079A0], Flags: 00000002, ?Error@XMLDocument@tinyxml2@@QBE_NXZ
S_PUB32: [0002:0000D2E0], Flags: 00000002, ?PushAttribute@XMLPrinter@tinyxml2@@QAEXPBD0@Z
S_PUB32: [0002:00003240], Flags: 00000002, ??0XMLText@tinyxml2@@IAE@PAVXMLDocument@1@@Z
S_PUB32: [0002:00007B10], Flags: 00000002, ?ErrorName@XMLDocument@tinyxml2@@QBEPBDXZ
S_PUB32: [0005:000001C4], Flags: 00000000, __imp__fgets
S_PUB32: [0005:00000208], Flags: 00000000, __imp__fgetc
S_PUB32: [0002:00004170], Flags: 00000002, ??2@YAPAXIPAX@Z
S_PUB32: [0002:00026120], Flags: 00000002, ?_RTC_GetErrorFuncW@@YAP6AHHPB_WH00ZZPBX@Z
S_PUB32: [0002:00012070], Flags: 00000002, ?ToElement@XMLNode@tinyxml2@@UAEPAVXMLElement@2@XZ
S_PUB32: [0002:00026EE0], Flags: 00000002, __matherr
S_PUB32: [0003:00005AF0], Flags: 00000000, ??_C@_0BN@JGKFNOL@?4?1resources?1xmltest?95330?4xml@
S_PUB32: [0003:00000F80], Flags: 00000000, ??_7XMLDeclaration@tinyxml2@@6B@
S_PUB32: [0003:00001A38], Flags: 00000000, ??_C@_06DBEIIGKC@?$FLfail?$FN@
S_PUB32: [0003:00003424], Flags: 00000000, ??_C@_0CE@PMAOHBHC@Entity?5transformation?5parse?5rou@
S_PUB32: [0002:00028510], Flags: 00000002, ___scrt_stub_for_acrt_thread_detach
S_PUB32: [0002:00009F90], Flags: 00000002, ?ItemSize@?$MemPoolT@$0CI@@tinyxml2@@UBEHXZ
S_PUB32: [0003:00001AD0], Flags: 00000000, ??_C@_01MHEDDDHA@v@
S_PUB32: [0005:00000204], Flags: 00000000, __imp__fputc
S_PUB32: [0005:00000134], Flags: 00000000, __imp___CrtDbgReport
S_PUB32: [0003:00005464], Flags: 00000000, ??_C@_09KECGMEAA@attrA?9f64@
S_PUB32: [0004:00000184], Flags: 00000000, ___scrt_ucrt_dll_is_in_use
S_PUB32: [0002:000155F0], Flags: 00000002, ?CStrSize@XMLPrinter@tinyxml2@@QBEHXZ
S_PUB32: [0002:00026F30], Flags: 00000002, __get_startup_thread_locale_mode
S_PUB32: [0005:00000014], Flags: 00000000, __imp__HeapFree@12
S_PUB32: [0003:00000BE0], Flags: 00000000, ??_C@_02KBFACPPK@?$DM?$CB@
S_PUB32: [0002:0000D900], Flags: 00000002, ?PushComment@XMLPrinter@tinyxml2@@QAEXPBD@Z
S_PUB32: [0002:0000A210], Flags: 00000002, ?LoadFile@XMLDocument@tinyxml2@@QAE?AW4XMLError@2@PAU_iobuf@@@Z
S_PUB32: [0002:00025810], Flags: 00000002, ?__scrt_throw_std_bad_alloc@@YAXXZ
S_PUB32: [0003:000017C0], Flags: 00000000, ??_C@_0FK@NCOLHCLE@?$DM?$CB?9?9hello?5world?6?5?5?5?5?5?5?5?5?5?5line?5@
S_PUB32: [0003:000040B0], Flags: 00000000, ??_C@_0BN@GJMFBHLP@Parse?5attribute?5with?5space?52@
S_PUB32: [0002:00009AA0], Flags: 00000002, ?IntAttribute@XMLElement@tinyxml2@@QBEHPBDH@Z
S_PUB32: [0002:00013020], Flags: 00000002, ?UnsignedAttribute@XMLElement@tinyxml2@@QBEIPBDI@Z
S_PUB32: [0003:000021D4], Flags: 00000000, ??_C@_05ONKJHJKK@attr0@
S_PUB32: [0003:00001D6C], Flags: 00000000, ??_C@_08FDPAILNL@Element2@
S_PUB32: [0003:000054FC], Flags: 00000000, ??_C@_0CB@KAEHCJ@Parse?5hex?5no?5closing?5tag?5round?5@
S_PUB32: [0002:000284F0], Flags: 00000002, ___acrt_initialize
S_PUB32: [0003:000062CC], Flags: 00000000, ??_C@_0BE@BMDHJKMN@?$DMHello?$DOText?$DM?1Error?$DO@
S_PUB32: [0002:000283BB], Flags: 00000002, __initialize_narrow_environment
S_PUB32: [0002:00004A10], Flags: 00000002, ?Accept@XMLDeclaration@tinyxml2@@UBE_NPAVXMLVisitor@2@@Z
S_PUB32: [0003:00004204], Flags: 00000000, ??_C@_0CE@CPNMLCML@Handle?0?5non?9const?0?5element?5is?5f@
S_PUB32: [0003:00006F34], Flags: 00000000, ??_C@_0BB@KCIACLNC@PDBOpenValidate5@
S_PUB32: [0003:00006770], Flags: 00000000, ??_C@_0BBN@ELNNILBE@A?5cast?5to?5a?5smaller?5data?5type?5h@
S_PUB32: [0002:000048B0], Flags: 00000002, ??_EXMLUnknown@tinyxml2@@MAEPAXI@Z
S_PUB32: [0002:00010AE0], Flags: 00000002, ?SetTracked@?$MemPoolT@$0DI@@tinyxml2@@UAEXXZ
S_PUB32: [0003:0000275C], Flags: 00000000, ??_C@_0L@MBNNDOHD@The?5driver@
S_PUB32: [0003:00003534], Flags: 00000000, ??_C@_03GJAMENNA@2?40@
S_PUB32: [0002:00004030], Flags: 00000002, ??1XMLText@tinyxml2@@MAE@XZ
S_PUB32: [0002:00024530], Flags: 00000002, ___report_rangecheckfailure
S_PUB32: [0003:00002AF0], Flags: 00000000, ??_C@_0CE@DJDHJPFD@version?5?$DN?5?81?40?8?5enconding?5?$DN?5?8ut@
S_PUB32: [0003:00001E10], Flags: 00000000, ??_C@_0BK@FBHOPMGL@New?5element?5inserted?5last@
S_PUB32: [0003:00005640], Flags: 00000000, ??_C@_0BI@JJEJOKHP@Issue?5302?4?5Fail?5to?5save@
S_PUB32: [0005:00000034], Flags: 00000000, __imp__WideCharToMultiByte@32
S_PUB32: [0002:00002EB0], Flags: 00000002, ??0XMLElement@tinyxml2@@AAE@PAVXMLDocument@1@@Z
S_PUB32: [0003:00001EAC], Flags: 00000000, ??_C@_0BE@LAHLPGFH@User?5data?5?9?5pointer@
S_PUB32: [0002:00028319], Flags: 00000002, _ftell
S_PUB32: [0002:00015A00], Flags: 00000002, ?FirstChild@XMLHandle@tinyxml2@@QAE?AV12@XZ
S_PUB32: [0003:00001698], Flags: 00000000, ??_C@_0BL@KLHMKGBA@?$DMelement?$DO?$DMb?$DO?$DM?1b?$DO?$DM?1element?$DO@
S_PUB32: [0002:00003FA0], Flags: 00000002, ??1XMLPrinter@tinyxml2@@UAE@XZ
S_PUB32: [0003:0000447C], Flags: 00000000, ??_C@_0BE@FBGIPHAG@UnsignedText?$CI?$CJ?5test@
S_PUB32: [0002:00003C70], Flags: 00000002, ??1XMLDeclaration@tinyxml2@@MAE@XZ
S_PUB32: [0002:00004680], Flags: 00000002, ??_EXMLDocument@tinyxml2@@UAEPAXI@Z
S_PUB32: [0003:00004048], Flags: 00000000, ??_C@_01EKENIIDA@3@
S_PUB32: [0002:000045A0], Flags: 00000002, ??_EXMLComment@tinyxml2@@MAEPAXI@Z
S_PUB32: [0002:00027330], Flags: 00000002, ___scrt_set_unhandled_exception_filter
S_PUB32: [0002:0000ED00], Flags: 00000002, ?QueryIntValue@XMLAttribute@tinyxml2@@QBE?AW4XMLError@2@PAH@Z
S_PUB32: [0003:0000299C], Flags: 00000000, ??_C@_0BC@MLJKIMAD@Attribute?3?5double@
S_PUB32: [0002:0000C780], Flags: 00000002, ?Print@XMLPrinter@tinyxml2@@MAAXPBDZZ
S_PUB32: [0003:0000247C], Flags: 00000000, ??_C@_0BG@GHEBNCCN@UTF?98?3?5Russian?5value?4@
S_PUB32: [0005:00000160], Flags: 00000000, __imp___exit
S_PUB32: [0002:000282E9], Flags: 00000002, ___acrt_iob_func
S_PUB32: [000A:00000000], Flags: 00000000, ___guard_eh_cont_table
S_PUB32: [0005:00000120], Flags: 00000000, __imp___CrtMemDifference
S_PUB32: [0002:00028520], Flags: 00000002, ___scrt_stub_for_acrt_uninitialize
S_PUB32: [0002:00002C30], Flags: 00000002, ??0XMLComment@tinyxml2@@IAE@PAVXMLDocument@1@@Z
S_PUB32: [0003:00005114], Flags: 00000000, ??_C@_0CF@OCEBMFGD@Insertion?5with?5removal?5parse?5ro@
S_PUB32: [0002:0000EA30], Flags: 00000002, ?QueryInt64Text@XMLElement@tinyxml2@@QBE?AW4XMLError@2@PA_J@Z
S_PUB32: [0002:000283E5], Flags: 00000002, ___p___argv
S_PUB32: [0003:00000E2C], Flags: 00000000, ??_7MemPool@tinyxml2@@6B@
S_PUB32: [0002:00026FC0], Flags: 00000002, __initialize_invalid_parameter_handler
S_PUB32: [0002:00024000], Flags: 00000002, ??3@YAXPAXI@Z
S_PUB32: [0004:00000588], Flags: 00000000, ??_R0?AVXMLVisitor@tinyxml2@@@8
S_PUB32: [0003:00003CC0], Flags: 00000000, ??_C@_0BB@BACBLFCC@Trailing?5DOCTYPE@
S_PUB32: [0003:000063D4], Flags: 00000000, __real@3fc00000
S_PUB32: [0002:00015AA0], Flags: 00000002, ?FirstChildElement@XMLConstHandle@tinyxml2@@QBE?BV12@PBD@Z
S_PUB32: [0002:000283DF], Flags: 00000002, ___p___argc
S_PUB32: [0002:0000A8B0], Flags: 00000002, ?NewElement@XMLDocument@tinyxml2@@QAEPAVXMLElement@2@PBD@Z
S_PUB32: [0002:00014110], Flags: 00000002, __vscprintf_l
S_PUB32: [0003:00005F7C], Flags: 00000000, ??_C@_0BC@KMIPFCFM@ErrorLine?9Unknown@
S_PUB32: [0003:00006158], Flags: 00000000, ??_C@_0LD@PMMIGJON@?$AN?6?$DM?$DPxml?5version?$DN?$CC1?40?$CC?$DP?$DO?6?$DMroot?$DO?$AN@
S_PUB32: [0002:00015D00], Flags: 00000002, ?GetUserData@XMLNode@tinyxml2@@QBEPAXXZ
S_PUB32: [0003:000044C4], Flags: 00000000, ??_C@_0BC@FKKODJNI@DoubleText?$CI?$CJ?5test@
S_PUB32: [0003:00002168], Flags: 00000000, ??_C@_0BH@BLLCPCAD@Formatted?5error?5string@
S_PUB32: [0002:000268D0], Flags: 00000002, ___scrt_dllmain_uninitialize_c
S_PUB32: [0003:000039C8], Flags: 00000000, ??_C@_0BA@NJJGABAE@Mismatched?5tags@
S_PUB32: [0002:000120C0], Flags: 00000002, ?ToElement@XMLNode@tinyxml2@@UBEPBVXMLElement@2@XZ
S_PUB32: [0002:0000C8F0], Flags: 00000002, ?PrintError@XMLDocument@tinyxml2@@QBEXXZ
S_PUB32: [0002:00009CE0], Flags: 00000002, ?IsNameStartChar@XMLUtil@tinyxml2@@SA_NE@Z
S_PUB32: [0002:0002838B], Flags: 00000002, _malloc
S_PUB32: [0003:00008020], Flags: 00000000, ___rtc_iaa
S_PUB32: [0002:00024800], Flags: 00000002, __ftol2_sse_excpt
S_PUB32: [0002:000283B5], Flags: 00000002, __configure_narrow_argv
S_PUB32: [0003:00005EF0], Flags: 00000000, ??_C@_0BA@NIBBBHPD@ErrorLine?9CData@
S_PUB32: [0003:00000BE8], Flags: 00000000, ??_C@_0M@OFJBHGBM@XML_SUCCESS@
S_PUB32: [0003:0000225C], Flags: 00000000, ??_C@_05NPJPBLCI@attr2@
S_PUB32: [0003:00003988], Flags: 00000000, ??_C@_0CJ@HGJJNIAN@Missing?5end?5tag?5with?5trailing?5w@
S_PUB32: [0003:000028A8], Flags: 00000000, ??_C@_03GMOBGHL@1?45@
S_PUB32: [0003:00006D1C], Flags: 00000000, ??_C@_0BP@OGBCLIBO@Stack?5around?5_alloca?5corrupted@
S_PUB32: [0005:0000021C], Flags: 00000000, ucrtbased_NULL_THUNK_DATA
S_PUB32: [0003:00004388], Flags: 00000000, ??_C@_0KD@NCEEKFKM@?$DMpoint?$DO?5?$DMIntText?$DO?924?$DM?1IntText?$DO?5@
S_PUB32: [0003:00001A80], Flags: 00000000, ??_C@_0BG@BOKCOHLJ@Name?5of?5play?5?$CI1?$CJ?3?5?$CFs?6@
S_PUB32: [0005:00000118], Flags: 00000000, __imp___CrtDumpMemoryLeaks
S_PUB32: [0003:00005F30], Flags: 00000000, ??_C@_0BA@PGONJCEE@?6?$DMroot?$DO?6?$DM?$CB?9?9?5?$DO?6@
S_PUB32: [0003:00006DF8], Flags: 00000000, ??_C@_1BK@JHLNAEJL@?$AAa?$AAd?$AAv?$AAa?$AAp?$AAi?$AA3?$AA2?$AA?4?$AAd?$AAl?$AAl@
S_PUB32: [0002:00026810], Flags: 00000002, ___scrt_dllmain_crt_thread_attach
S_PUB32: [0003:00005008], Flags: 00000000, ??_C@_0GN@KIBDBHHO@?$DM?$DPxml?5version?$DN?$CC1?40?$CC?5?$DP?$DO?$DMroot?$DO?$DMon@
S_PUB32: [0003:00006450], Flags: 00000000, __real@4059000000000000
S_PUB32: [0003:00003538], Flags: 00000000, ??_C@_0EJ@CPIHGBID@?$DMelement?$DO?$DMName?$DO1?41?5Start?5easy?5i@
S_PUB32: [0003:0000404C], Flags: 00000000, ??_C@_07HEAMEKAE@attrib3@
S_PUB32: [0002:0000F000], Flags: 00000002, ?QueryUnsignedText@XMLElement@tinyxml2@@QBE?AW4XMLError@2@PAI@Z
S_PUB32: [0002:0000E250], Flags: 00000002, ?PushUnknown@XMLPrinter@tinyxml2@@QAEXPBD@Z
S_PUB32: [0005:00000048], Flags: 00000000, __imp__TerminateProcess@8
S_PUB32: [0002:00004840], Flags: 00000002, ??_GXMLText@tinyxml2@@MAEPAXI@Z
S_PUB32: [0003:000052F4], Flags: 00000000, ??_C@_0CF@JPDGDBCG@Insertion?5with?5removal?5parse?5ro@
S_PUB32: [0003:00001FD4], Flags: 00000000, ??_C@_0BC@OIIBPPEO@Save?5dreamout?4xml@
S_PUB32: [0003:00003954], Flags: 00000000, ??_C@_03HPGBEFGP@?$DMx?$DO@
S_PUB32: [0003:000049F8], Flags: 00000000, ??_C@_0BE@ELECGKJA@?$DM3lement?$DO?$DM?13lement?$DO@
S_PUB32: [0005:0000011C], Flags: 00000000, __imp___CrtMemCheckpoint
S_PUB32: [0003:00004A78], Flags: 00000000, ??_C@_0BM@CGMGPGOD@Set?5length?5of?5incoming?5data@
S_PUB32: [0003:00004EF8], Flags: 00000000, ??_C@_0HC@CBOIMHMF@?$DM?$DPxml?5version?$DN?$CC1?40?$CC?5?$DP?$DO?$DMroot?$DO?$DMon@
S_PUB32: [0003:0000182C], Flags: 00000000, ??_C@_0CA@EPENKIDJ@?$DMelement?$DOText?5before?4?$DM?1element?$DO@
S_PUB32: [0002:0002835B], Flags: 00000002, _strcmp
S_PUB32: [0003:00002474], Flags: 00000000, ??_C@_05MFEJDJP@value@
S_PUB32: [0003:000040D4], Flags: 00000000, ??_C@_0BN@HANOCGPO@Parse?5attribute?5with?5space?53@
S_PUB32: [0007:00000000], Flags: 00000000, ___guard_check_icall_fptr
S_PUB32: [0002:00028510], Flags: 00000002, ___vcrt_thread_detach
S_PUB32: [0005:000001F4], Flags: 00000000, __imp__fwrite
S_PUB32: [0003:00002894], Flags: 00000000, ??_C@_0O@FHILFDBK@SetText?5types@
S_PUB32: [0003:000063D8], Flags: 00000000, __real@3fc7ae14
S_PUB32: [0002:000178B0], Flags: 00000002, ?XMLTest@@YA_NPBDW4XMLError@tinyxml2@@1_N2@Z
S_PUB32: [0003:00003788], Flags: 00000000, ??_C@_0CD@DKALFOFA@?$DMelement?5attr?$DN?8red?8?5attr?$DN?8blue?8@
S_PUB32: [0003:00005494], Flags: 00000000, ??_C@_09PELHKBGN@attrA?9f32@
S_PUB32: [0002:00010940], Flags: 00000002, ?SetText@XMLElement@tinyxml2@@QAEX_N@Z
S_PUB32: [0003:00004494], Flags: 00000000, ??_C@_09EGODEAEM@Int64Text@
S_PUB32: [0003:00000CF8], Flags: 00000000, ??_C@_0BI@EPMILKIP@XML_ERROR_PARSING_CDATA@
S_PUB32: [0003:00003590], Flags: 00000000, ??_C@_0O@ODENIENO@fin?5thickness@
S_PUB32: [0003:0000273C], Flags: 00000000, ??_C@_0BK@ELEGLPIE@Empty?5self?9closed?5element@
S_PUB32: [0003:000029B4], Flags: 00000000, ??_C@_0BB@HDHGFAEH@Attribute?3?5float@
S_PUB32: [0002:00025040], Flags: 00000002, __ltod3
S_PUB32: [0002:00013B50], Flags: 00000002, ?VisitExit@XMLVisitor@tinyxml2@@UAE_NABVXMLElement@2@@Z
S_PUB32: [000A:00000000], Flags: 00000000, ___guard_eh_cont_count
S_PUB32: [0002:0000E920], Flags: 00000002, ?QueryFloatValue@XMLAttribute@tinyxml2@@QBE?AW4XMLError@2@PAM@Z
S_PUB32: [0003:00001D08], Flags: 00000000, ??_C@_0DA@HHHLHLBD@?9?9?9?9?9?9?9?9?9?9?9?9?9?9?9?9?9?9?9?9?9?9?9?9?9?9?9?9?9?9?9@
S_PUB32: [0002:00025980], Flags: 00000002, ?_RTC_AllocaFailure@@YAXPAXPAU_RTC_ALLOCA_NODE@@H@Z
S_PUB32: [0002:000276E0], Flags: 00000002, ___castguard_slow_path_check_nop
S_PUB32: [0003:00005144], Flags: 00000000, ??_C@_07NIJMFPAJ@subtree@
S_PUB32: [0002:00009DA0], Flags: 00000002, ?IsPrefixHex@XMLUtil@tinyxml2@@SA_NPBD@Z
S_PUB32: [0003:000014E8], Flags: 00000000, ??_C@_0EL@OBILJPIP@?$DM?$CB?9?9comment?5beside?5elements?9?9?$DO?$DM@
S_PUB32: [0003:000059D4], Flags: 00000000, ??_C@_0CD@PBNIPBAE@XMLDocument?3?3Value?$CI?$CJ?5returns?5nu@
S_PUB32: [0003:00002444], Flags: 00000000, ??_C@_0BC@HLGACOEP@Load?5utf8test?4xml@
S_PUB32: [0003:00001A70], Flags: 00000000, ??_C@_04MKCNCBEG@PLAY@
S_PUB32: [0003:00005258], Flags: 00000000, ??_C@_0CF@NAHHKHOB@Insertion?5with?5removal?5parse?5ro@
S_PUB32: [0002:00026F00], Flags: 00000002, __get_startup_commit_mode
S_PUB32: [0004:000002B8], Flags: 00000000, ??_R0?AVexception@std@@@8
S_PUB32: [0003:00002BE0], Flags: 00000000, ??_C@_0CA@DGOLPEMD@PushText?$CI?5unsigned?5value?5?$CJ?5test@
S_PUB32: [0003:000015CC], Flags: 00000000, ??_C@_0DB@CGLIEOEL@?$DMelement?5attrib1?$DN?8foo?8?5attrib2?$DN@
S_PUB32: [0003:00007C14], Flags: 00000000, ??_R3type_info@@8
S_PUB32: [0003:00003C38], Flags: 00000000, ??_C@_0BD@OHFHOCLE@No?5closing?5element@
S_PUB32: [0003:00007C28], Flags: 00000000, ??_R2type_info@@8
S_PUB32: [0002:00005DE0], Flags: 00000002, ?CloseElement@XMLPrinter@tinyxml2@@UAEX_N@Z
S_PUB32: [0003:00001320], Flags: 00000000, ??_C@_0GM@DGBDOEMH@?$DM?$DPxml?5version?$DN?$CC1?40?$CC?$DP?$DO?$DM?$CBDOCTYPE?5@
S_PUB32: [0002:0000F230], Flags: 00000002, ?Reset@StrPair@tinyxml2@@QAEXXZ
S_PUB32: [0005:00000198], Flags: 00000000, __imp___seh_filter_dll
S_PUB32: [0003:00006248], Flags: 00000000, ??_C@_0FO@JCJAAIEG@D01L01E02E03A03A03T03E04A04A04T@
S_PUB32: [0005:0000002C], Flags: 00000000, __imp__GetSystemTimeAsFileTime@4
S_PUB32: [0003:00002B80], Flags: 00000000, ??_C@_0DE@KPLJEEPD@PushText?$CI?5const?5char?$CK?5text?0?5boo@
S_PUB32: [0002:0002845D], Flags: 00000002, __wsplitpath_s
S_PUB32: [0003:00003D8C], Flags: 00000000, ??_C@_0BH@ENPBMDKN@Deep?5clone?5of?5element?4@
S_PUB32: [0002:00026990], Flags: 00000002, ___scrt_initialize_onexit_tables
S_PUB32: [0002:0000F550], Flags: 00000002, ?SealElementIfJustOpened@XMLPrinter@tinyxml2@@IAEXXZ
S_PUB32: [0002:0000C550], Flags: 00000002, ?PreviousSiblingElement@XMLNode@tinyxml2@@QBEPBVXMLElement@2@PBD@Z
S_PUB32: [0003:00007AC4], Flags: 00000000, ??_R1A@?0A@EA@?$MemPoolT@$0CI@@tinyxml2@@8
S_PUB32: [0002:00013BB0], Flags: 00000002, ?WhitespaceMode@XMLDocument@tinyxml2@@QBE?AW4Whitespace@2@XZ
S_PUB32: [0003:000048F0], Flags: 00000000, ??_C@_0BF@HDCGLHKI@QueryBoolText?5result@
S_PUB32: [0002:00014030], Flags: 00000002, __vfprintf_l
S_PUB32: [0003:000076E0], Flags: 00000000, ??_R2XMLNode@tinyxml2@@8
S_PUB32: [0003:000076CC], Flags: 00000000, ??_R3XMLNode@tinyxml2@@8
S_PUB32: [0005:000001E8], Flags: 00000000, __imp____stdio_common_vsnprintf_s
S_PUB32: [0002:0000A110], Flags: 00000002, ?LastChild@XMLNode@tinyxml2@@QAEPAV12@XZ
S_PUB32: [0003:00003844], Flags: 00000000, ??_C@_0DO@NOCJPDO@Error?$DNXML_ERROR_EMPTY_DOCUMENT?5@
S_PUB32: [0002:0002837F], Flags: 00000002, __CrtSetDbgFlag
S_PUB32: [0002:00026F10], Flags: 00000002, __get_startup_file_mode
S_PUB32: [0003:000037B4], Flags: 00000000, ??_C@_0BN@DGCJJCB@Parsing?5repeated?5attributes?4@
S_PUB32: [0003:00004500], Flags: 00000000, ??_C@_0HI@NKMMNEJN@?$DMpoint?$DO?5?$DMIntText?$DO?5?50x2020?$DM?1IntT@
S_PUB32: [0003:000068EC], Flags: 00000000, ??_C@_0DG@DAJCDLPN@A?5local?5variable?5was?5used?5befor@
S_PUB32: [0003:00000C98], Flags: 00000000, ??_C@_0BK@LPPPMOBG@XML_ERROR_PARSING_ELEMENT@
S_PUB32: [0002:00028520], Flags: 00000002, ___vcrt_uninitialize
S_PUB32: [0002:00028530], Flags: 00000002, ___vcrt_uninitialize_critical
S_PUB32: [0003:000025A8], Flags: 00000000, ??_C@_0CL@FPCEDNNA@UTF?98?3?5Verified?5multi?9language?5@
S_PUB32: [0003:00004AC0], Flags: 00000000, ??_C@_0BN@PAJKBNOD@Empty?5is?5empty?5after?5Clear?$CI?$CJ@
S_PUB32: [0003:000030E0], Flags: 00000000, ??_C@_0GO@IJIKLCCP@Line?55?5has?5?$CCquotation?5marks?$CC?5an@
S_PUB32: [0002:00014320], Flags: 00000002, _printf
S_PUB32: [0003:000062B8], Flags: 00000000, ??_C@_0BB@FOHOGOHP@LineNumbers?9File@
S_PUB32: [0003:00004778], Flags: 00000000, ??_C@_0BK@PFLOEHE@NextSiblingElement?$CI?$CJ?5test@
S_PUB32: [0002:00028355], Flags: 00000002, _exit
S_PUB32: [0002:0000FD30], Flags: 00000002, ?SetAttribute@XMLElement@tinyxml2@@QAEXPBD0@Z
S_PUB32: [0005:00000148], Flags: 00000000, __imp____setusermatherr
S_PUB32: [0002:00013F80], Flags: 00000002, __JustMyCode_Default
S_PUB32: [0002:00011FB0], Flags: 00000002, ?ToElement@XMLElement@tinyxml2@@UAEPAV12@XZ
S_PUB32: [0003:00006EDC], Flags: 00000000, ??_C@_1BG@EABPBLLF@?$AAP?$AAr?$AAo?$AAd?$AAu?$AAc?$AAt?$AAD?$AAi?$AAr@
S_PUB32: [0003:0000351C], Flags: 00000000, ??_C@_06MMJJKPDB@a?4elem@
S_PUB32: [0003:00004B0C], Flags: 00000000, ??_C@_0BD@NPIJJJII@Document?5Clear?$CI?$CJ?8s@
S_PUB32: [0003:000028A4], Flags: 00000000, ??_C@_01HIHLOKLC@1@
S_PUB32: [0003:000022E0], Flags: 00000000, ??_C@_03OJMAPEGJ@str@
S_PUB32: [0002:00028325], Flags: 00000002, ___stdio_common_vfprintf
S_PUB32: [0002:00003B80], Flags: 00000002, ??1XMLAttribute@tinyxml2@@EAE@XZ
S_PUB32: [0003:00006230], Flags: 00000000, ??_C@_0BB@DHFAKPCO@LineNumbers?9CRLF@
S_PUB32: [0003:00005FC4], Flags: 00000000, ??_C@_0BJ@ICNONPAF@?6?$DMroot?$DO?6?$DMunclosed?5?6?5att?6@
S_PUB32: [0003:00006AB0], Flags: 00000000, ??_C@_0CG@IAFNJNEE@Stack?5corrupted?5near?5unknown?5va@
S_PUB32: [0003:00002C08], Flags: 00000000, ??_C@_0BP@MEBBFCCK@PushText?$CI?5int64_t?5value?5?$CJ?5test@
S_PUB32: [0003:00003890], Flags: 00000000, ??_C@_0BL@EFEMPBMA@Error?5string?5should?5be?5set@
S_PUB32: [0003:00001A30], Flags: 00000000, ??_C@_06MMBJDEJC@?$FLpass?$FN@
S_PUB32: [0002:00026D70], Flags: 00000002, _atexit
S_PUB32: [0003:00000DBC], Flags: 00000000, ??_C@_0BC@IEJHGDCA@XML_ERROR_PARSING@
S_PUB32: [0002:00015D60], Flags: 00000002, ?Int64Value@XMLAttribute@tinyxml2@@QBE_JXZ
S_PUB32: [0005:00000210], Flags: 00000000, __imp___cexit
S_PUB32: [0002:00001F70], Flags: 00000002, ??$CreateUnlinkedNode@VXMLElement@tinyxml2@@$0DM@@XMLDocument@tinyxml2@@AAEPAVXMLElement@1@AAV?$MemPoolT@$0DM@@1@@Z
S_PUB32: [0003:00002A68], Flags: 00000000, ??_C@_0N@COJHGDM@attrib?9int64@
S_PUB32: [0002:00028499], Flags: 00000002, _MultiByteToWideChar@24
S_PUB32: [0002:000048B0], Flags: 00000002, ??_GXMLUnknown@tinyxml2@@MAEPAXI@Z
S_PUB32: [0003:00006E18], Flags: 00000000, ??_C@_0O@COHOBMLB@RegOpenKeyExW@
S_PUB32: [0005:000001A8], Flags: 00000000, __imp___crt_atexit
S_PUB32: [0002:0000D170], Flags: 00000002, ?Push@?$DynArray@PBD$09@tinyxml2@@QAEXPBD@Z
S_PUB32: [0003:000053B0], Flags: 00000000, ??_C@_0FJ@OKJLKNAL@?$DM?$DPxml?5version?$DN?$CC1?40?$CC?$DP?$DO?$DMroot?$DO?$DMsam@
S_PUB32: [000A:00000000], Flags: 00000000, ___AbsoluteZero
S_PUB32: [0003:00007968], Flags: 00000000, ??_R1A@?0A@EA@XMLVisitor@tinyxml2@@8
S_PUB32: [0003:000062E4], Flags: 00000000, ??_C@_0BK@HGIBKAKP@Test?5mismatched?5elements?4@
S_PUB32: [0003:000023F0], Flags: 00000000, ??_C@_0BO@IHMJGANF@Attribute?5round?5trip?4?5double?4@
S_PUB32: [0003:000039E0], Flags: 00000000, ??_C@_0EB@ODKPIILK@?$DM?$CB?9?9?5declarations?5for?5?$DMhead?$DO?5?$CG?5@
S_PUB32: [0003:00003F68], Flags: 00000000, ??_C@_0CD@IMNHOBFK@Parse?5before?5deep?5cloning?5docum@
S_PUB32: [0005:00000004], Flags: 00000000, __imp__QueryPerformanceFrequency@4
S_PUB32: [0005:000002A4], Flags: 00000000, __IMPORT_DESCRIPTOR_ucrtbased
S_PUB32: [0003:0000230C], Flags: 00000000, ??_C@_0BE@FDAFEJIK@Query?5int?5attribute@
S_PUB32: [0003:00006B54], Flags: 00000000, ??_C@_0CK@DKGBICFE@?6Allocation?5number?5within?5this?5@
S_PUB32: [0002:00004680], Flags: 00000002, ??_GXMLDocument@tinyxml2@@UAEPAXI@Z
S_PUB32: [0002:000041C0], Flags: 00000002, ??A?$DynArray@D$0BE@@tinyxml2@@QAEAADH@Z
S_PUB32: [0003:00000C78], Flags: 00000000, ??_C@_0BK@LJEPDGMH@XML_ERROR_FILE_READ_ERROR@
S_PUB32: [0002:00002B40], Flags: 00000002, ??0XMLAttribute@tinyxml2@@AAE@XZ
S_PUB32: [0002:000045A0], Flags: 00000002, ??_GXMLComment@tinyxml2@@MAEPAXI@Z
S_PUB32: [0003:00002E64], Flags: 00000000, ??_C@_0DH@HHLGMDOJ@?$DMb?$DOI?5am?5?$DO?5the?5rules?$CB?$DM?1b?$DO?6?4?4?4sin@
S_PUB32: [0005:000000D4], Flags: 00000000, __imp__memcpy
S_PUB32: [0004:00000CAC], Flags: 00000000, ___scrt_debugger_hook_flag
S_PUB32: [0002:00012830], Flags: 00000002, ?ToText@XMLNode@tinyxml2@@UBEPBVXMLText@2@XZ
S_PUB32: [0002:00011EF0], Flags: 00000002, ?ToDocument@XMLNode@tinyxml2@@UBEPBVXMLDocument@2@XZ
S_PUB32: [0005:00000050], Flags: 00000000, __imp__SetUnhandledExceptionFilter@4
S_PUB32: [0005:000001B4], Flags: 00000000, __imp__terminate
S_PUB32: [0003:00004C74], Flags: 00000000, ??_C@_0BE@CMHNPBKO@Whitespace?5collapse@
S_PUB32: [0003:00003524], Flags: 00000000, ??_C@_0M@OPBPNMBD@xmi?4version@
S_PUB32: [0005:00000124], Flags: 00000000, __imp___CrtMemDumpStatistics
S_PUB32: [0003:000029C8], Flags: 00000000, ??_C@_0BB@NDGEIOEH@Element?3?5int64_t@
S_PUB32: [0002:0000C220], Flags: 00000002, ?Pop@?$DynArray@PAUBlock@?$MemPoolT@$0DI@@tinyxml2@@$09@tinyxml2@@QAEPAUBlock@?$MemPoolT@$0DI@@2@XZ
S_PUB32: [0003:000028E0], Flags: 00000000, ??_C@_0L@BJNBJGJK@not?9attrib@
S_PUB32: [0002:00027070], Flags: 00000002, ___scrt_get_dyn_tls_dtor_callback
S_PUB32: [0002:00012AA0], Flags: 00000002, ?ToUnsigned64@XMLUtil@tinyxml2@@SA_NPBDPA_K@Z
S_PUB32: [0003:000012E0], Flags: 00000000, ??_C@_04PFOHOKJK@?5?5?5?5@
S_PUB32: [0002:00028540], Flags: 00000002, __is_c_termination_complete
S_PUB32: [0002:00003920], Flags: 00000002, ??1?$MemPoolT@$0DM@@tinyxml2@@UAE@XZ
S_PUB32: [0002:000256E0], Flags: 00000002, ??1bad_alloc@std@@UAE@XZ
S_PUB32: [0003:00007B7C], Flags: 00000000, ??_R1A@?0A@EA@?$MemPoolT@$0DE@@tinyxml2@@8
S_PUB32: [0002:00008CF0], Flags: 00000002, ?GetText@XMLElement@tinyxml2@@QBEPBDXZ
S_PUB32: [0002:00024250], Flags: 00000002, @__CheckForDebuggerJustMyCode@4
S_PUB32: [0003:000040F8], Flags: 00000000, ??_C@_0L@LPIGNHFH@attribute1@
S_PUB32: [0003:00007B20], Flags: 00000000, ??_R1A@?0A@EA@?$MemPoolT@$0DI@@tinyxml2@@8
S_PUB32: [0002:00026870], Flags: 00000002, ___scrt_dllmain_exception_filter
S_PUB32: [0003:00007A68], Flags: 00000000, ??_R1A@?0A@EA@?$MemPoolT@$0DM@@tinyxml2@@8
S_PUB32: [0003:000011C8], Flags: 00000000, ??_C@_04FCIJFPNK@?$CFllu@
S_PUB32: [0002:00015B40], Flags: 00000002, ?FirstChildElement@XMLHandle@tinyxml2@@QAE?AV12@PBD@Z
S_PUB32: [0003:00009074], Flags: 00000000, __CT??_R0?AVbad_array_new_length@std@@@8??0bad_array_new_length@std@@QAE@ABV01@@Z12
S_PUB32: [0002:0000C100], Flags: 00000002, ?Pop@?$DynArray@PAUBlock@?$MemPoolT@$0CI@@tinyxml2@@$09@tinyxml2@@QAEPAUBlock@?$MemPoolT@$0CI@@2@XZ
S_PUB32: [0003:000055A0], Flags: 00000000, ??_C@_07MLLLDPGO@?$CG?$CD0?$DM?1a?$DO@
S_PUB32: [0002:000065C0], Flags: 00000002, ?CurrentAllocs@?$MemPoolT@$0DI@@tinyxml2@@QBEHXZ
S_PUB32: [0002:00013A50], Flags: 00000002, ?VisitExit@XMLPrinter@tinyxml2@@UAE_NABVXMLElement@2@@Z
S_PUB32: [0002:0000D820], Flags: 00000002, ?PushAttribute@XMLPrinter@tinyxml2@@QAEXPBD_N@Z
S_PUB32: [0003:00002414], Flags: 00000000, ??_C@_0BA@COLFGKDP@Alternate?5query@
S_PUB32: [0002:0000D740], Flags: 00000002, ?PushAttribute@XMLPrinter@tinyxml2@@QAEXPBD_K@Z
S_PUB32: [0002:00006500], Flags: 00000002, ?CurrentAllocs@?$MemPoolT@$0CI@@tinyxml2@@QBEHXZ
S_PUB32: [0002:0000D660], Flags: 00000002, ?PushAttribute@XMLPrinter@tinyxml2@@QAEXPBD_J@Z
S_PUB32: [0002:00002D10], Flags: 00000002, ??0XMLDocument@tinyxml2@@QAE@_NW4Whitespace@1@@Z
S_PUB32: [0002:00005710], Flags: 00000002, ?CData@XMLText@tinyxml2@@QBE_NXZ
S_PUB32: [0002:00016B80], Flags: 00000002, ?SetUserData@XMLNode@tinyxml2@@QAEXPAX@Z
S_PUB32: [0002:00026F60], Flags: 00000002, ?__scrt_uninitialize_type_info@@YAXXZ
S_PUB32: [0004:00000004], Flags: 00000000, ?writeBoolFalse@XMLUtil@tinyxml2@@0PBDB
S_PUB32: [0003:000056B0], Flags: 00000000, ??_C@_0BL@PFBMPFNL@resources?1no?9such?9file?4xml@
S_PUB32: [0002:00028367], Flags: 00000002, __CrtDumpMemoryLeaks
S_PUB32: [0002:000101B0], Flags: 00000002, ?SetName@XMLElement@tinyxml2@@QAEXPBD_N@Z
S_PUB32: [0002:00025530], Flags: 00000002, ?set_fmode@__scrt_file_policy@@SAXXZ
S_PUB32: [0002:0002827D], Flags: 00000002, __purecall
S_PUB32: [0002:00028520], Flags: 00000002, ___acrt_uninitialize
S_PUB32: [0003:00005E80], Flags: 00000000, ??_C@_0BG@EAEINENE@ErrorLine?9Declaration@
S_PUB32: [0005:00000030], Flags: 00000000, __imp__GetCurrentProcessId@0
S_PUB32: [0003:000051E8], Flags: 00000000, ??_C@_0DD@HPGHLOGI@Move?5node?5from?5within?5?$DMone?$DO?5aft@
S_PUB32: [0002:00004990], Flags: 00000002, ?Accept@XMLComment@tinyxml2@@UBE_NPAVXMLVisitor@2@@Z
S_PUB32: [0003:00002EF8], Flags: 00000000, ??_C@_0BI@JOEHMHDI@InsertEndChild?$CI?$CJ?5return@
S_PUB32: [0002:00028295], Flags: 00000002, ___CxxFrameHandler3
S_PUB32: [0002:00004760], Flags: 00000002, ??_EXMLNode@tinyxml2@@MAEPAXI@Z
S_PUB32: [0002:00004D20], Flags: 00000002, ?Accept@XMLUnknown@tinyxml2@@UBE_NPAVXMLVisitor@2@@Z
S_PUB32: [0003:0000649C], Flags: 00000000, __real@42c80000
S_PUB32: [0002:00012BB0], Flags: 00000002, ?ToUnsigned@XMLUtil@tinyxml2@@SA_NPBDPAI@Z
S_PUB32: [0002:000283CD], Flags: 00000002, __initterm_e
S_PUB32: [0002:000132C0], Flags: 00000002, ?Untracked@?$MemPoolT@$0DM@@tinyxml2@@QBEHXZ
S_PUB32: [0002:00010320], Flags: 00000002, ?SetText@XMLElement@tinyxml2@@QAEXH@Z
S_PUB32: [0002:000115F0], Flags: 00000002, ?SkipWhiteSpace@XMLUtil@tinyxml2@@SAPBDPBDPAH@Z
S_PUB32: [0002:00028530], Flags: 00000002, ___acrt_uninitialize_critical
S_PUB32: [0004:000002DC], Flags: 00000000, ??_R0?AVbad_array_new_length@std@@@8
S_PUB32: [0003:00001CF8], Flags: 00000000, ??_C@_0N@KJLLKDFP@Element?5test@
S_PUB32: [0003:00008544], Flags: 00000000, ___rtc_tzz
S_PUB32: [0002:00026D20], Flags: 00000002, _at_quick_exit
S_PUB32: [0002:00016080], Flags: 00000002, ?NextSiblingElement@XMLNode@tinyxml2@@QAEPAVXMLElement@2@PBD@Z
S_PUB32: [0003:000036DC], Flags: 00000000, ??_C@_0BP@MLLCGLEH@DOCTYPE?5PLAY?5SYSTEM?5?8play?4dtd?8@
S_PUB32: [0003:00003A84], Flags: 00000000, ??_C@_0BK@MALMLOLG@Comments?5ignore?5entities?4@
S_PUB32: [0002:00027260], Flags: 00000002, ___scrt_initialize_mta
S_PUB32: [0002:00010400], Flags: 00000002, ?SetText@XMLElement@tinyxml2@@QAEXI@Z
S_PUB32: [0002:00026110], Flags: 00000002, ?_RTC_GetErrorFunc@@YAP6AHHPBDH00ZZPBX@Z
S_PUB32: [0002:00028550], Flags: 00000002, __filter_x86_sse2_floating_point_exception_default
S_PUB32: [0003:00001BC0], Flags: 00000000, ??_C@_0NK@DCFJCLFO@Error?5opening?5test?5file?5?8dream?4@
S_PUB32: [0003:00004A9C], Flags: 00000000, ??_C@_0BM@ENCELGF@Document?5is?5initially?5empty@
S_PUB32: [0002:00005AA0], Flags: 00000002, ?Clear@?$MemPoolT@$0DM@@tinyxml2@@QAEXXZ
S_PUB32: [0002:00004610], Flags: 00000002, ??_EXMLDeclaration@tinyxml2@@MAEPAXI@Z
S_PUB32: [0002:0000E090], Flags: 00000002, ?PushText@XMLPrinter@tinyxml2@@QAEX_K@Z
S_PUB32: [0002:0000DFB0], Flags: 00000002, ?PushText@XMLPrinter@tinyxml2@@QAEX_J@Z
S_PUB32: [0002:0000E170], Flags: 00000002, ?PushText@XMLPrinter@tinyxml2@@QAEX_N@Z
S_PUB32: [0002:00012940], Flags: 00000002, ?ToUnknown@XMLNode@tinyxml2@@UAEPAVXMLUnknown@2@XZ
S_PUB32: [0002:0000C450], Flags: 00000002, ?PrepareForNewNode@XMLPrinter@tinyxml2@@AAEX_N@Z
S_PUB32: [0002:0000DA40], Flags: 00000002, ?PushDepth@XMLDocument@tinyxml2@@AAEXXZ
S_PUB32: [0003:000079DC], Flags: 00000000, ??_R1A@?0A@EA@MemPool@tinyxml2@@8
S_PUB32: [0003:00005E24], Flags: 00000000, ??_C@_0BK@BBELMAPJ@?6?$DMroot?$DO?6?5foo?5?6?$DMunclosed?1?$DO@
S_PUB32: [0003:00003704], Flags: 00000000, ??_C@_0BK@ECFILBLF@Correct?5value?5of?5unknown?4@
S_PUB32: [0003:00000FD8], Flags: 00000000, ??_7XMLUnknown@tinyxml2@@6B@
S_PUB32: [0002:000257D0], Flags: 00000002, ??_Eexception@std@@UAEPAXI@Z
S_PUB32: [0002:00007EB0], Flags: 00000002, ?FirstChild@XMLNode@tinyxml2@@QBEPBV12@XZ
S_PUB32: [0003:0000692C], Flags: 00000000, ??_C@_0CM@JMIDGKLA@Stack?5memory?5around?5_alloca?5was@
S_PUB32: [0003:0000115C], Flags: 00000000, ??_7XMLPrinter@tinyxml2@@6B@
S_PUB32: [0002:00003C00], Flags: 00000002, ??1XMLComment@tinyxml2@@MAE@XZ
S_PUB32: [0002:000105C0], Flags: 00000002, ?SetText@XMLElement@tinyxml2@@QAEXN@Z
S_PUB32: [0005:000000CC], Flags: 00000000, __imp____vcrt_LoadLibraryExW
S_PUB32: [0003:000064A0], Flags: 00000000, __real@4415af1d78b58c40
S_PUB32: [0002:000255C0], Flags: 00000002, ??0bad_alloc@std@@QAE@XZ
S_PUB32: [0002:00026190], Flags: 00000002, __RTC_SetErrorFuncW
S_PUB32: [0003:00003188], Flags: 00000000, ??_C@_0BL@JOEHEAJB@resources?1out?1textfile?4txt@
S_PUB32: [0002:000028F0], Flags: 00000002, ??0?$MemPoolT@$0DM@@tinyxml2@@QAE@XZ
S_PUB32: [0003:00006A88], Flags: 00000000, ??_C@_0CA@IODNCDPG@Run?9Time?5Check?5Failure?5?$CD?$CFd?5?9?5?$CFs@
S_PUB32: [0003:00002E40], Flags: 00000000, ??_C@_0BM@BCDNOBMG@CDATA?5symbolic?5puns?5round?52@
S_PUB32: [0003:00004590], Flags: 00000000, ??_C@_0BJ@FAAAJFOO@IntText?$CI?$CJ?5hex?5value?5test@
S_PUB32: [0003:00001EEC], Flags: 00000000, ??_C@_0CO@BAPOCLAA@?$DMelement?$DO?$DMsub?5attrib?$DN?$CCtrue?$CC?1?$DO?$DMs@
S_PUB32: [0003:00004B50], Flags: 00000000, ??_C@_0BI@EIPODAOD@Error?5after?5invalid?5XML@
S_PUB32: [0005:00000114], Flags: 00000000, __imp__clock
S_PUB32: [0002:00028550], Flags: 00000002, __filter_x86_sse2_floating_point_exception
S_PUB32: [0003:00006430], Flags: 00000000, __real@4024000000000000
S_PUB32: [0003:00000DD4], Flags: 00000000, ??_C@_0BJ@NENGEPDP@XML_CAN_NOT_CONVERT_TEXT@
S_PUB32: [0002:000023F0], Flags: 00000002, ??0?$DynArray@PAUBlock@?$MemPoolT@$0DI@@tinyxml2@@$09@tinyxml2@@QAE@XZ
S_PUB32: [0002:000022F0], Flags: 00000002, ??0?$DynArray@PAUBlock@?$MemPoolT@$0CI@@tinyxml2@@$09@tinyxml2@@QAE@XZ
S_PUB32: [0002:00026FE0], Flags: 00000002, ___scrt_initialize_default_local_stdio_options
S_PUB32: [0005:00000020], Flags: 00000000, __imp__GetModuleHandleW@4
S_PUB32: [0003:00004E94], Flags: 00000000, ??_C@_0BK@OKAIOPAP@resources?1out?1bomtest?4xml@
S_PUB32: [0003:00004EDC], Flags: 00000000, ??_C@_0BI@PFBIFHKF@BOM?5preservation?5?$CIload?$CJ@
S_PUB32: [0003:00005F44], Flags: 00000000, ??_C@_0BC@ONLCHKMJ@ErrorLine?9Comment@
S_PUB32: [0003:00003BDC], Flags: 00000000, ??_C@_0CC@GGDECDLF@?$DMattributelist?$DO?5?$DM?1attributelist@
S_PUB32: [0002:0000EE10], Flags: 00000002, ?QueryUnsigned64Text@XMLElement@tinyxml2@@QBE?AW4XMLError@2@PA_K@Z
S_PUB32: [0005:000000AC], Flags: 00000000, __imp____std_exception_destroy
S_PUB32: [0002:00010D90], Flags: 00000002, ?ShallowClone@XMLElement@tinyxml2@@UBEPAVXMLNode@2@PAVXMLDocument@2@@Z
S_PUB32: [0003:00006B94], Flags: 00000000, ??_C@_0N@MHFFIMFG@?6Address?3?50x@
S_PUB32: [0002:000034E0], Flags: 00000002, ??1?$DynArray@PAUBlock@?$MemPoolT@$0DI@@tinyxml2@@$09@tinyxml2@@QAE@XZ
S_PUB32: [0005:00000200], Flags: 00000000, __imp__fread
S_PUB32: [0004:00000C74], Flags: 00000000, ___scrt_current_native_startup_state
S_PUB32: [0002:000104E0], Flags: 00000002, ?SetText@XMLElement@tinyxml2@@QAEXM@Z
S_PUB32: [0002:000033E0], Flags: 00000002, ??1?$DynArray@PAUBlock@?$MemPoolT@$0CI@@tinyxml2@@$09@tinyxml2@@QAE@XZ
S_PUB32: [0005:00000028], Flags: 00000000, __imp__InitializeSListHead@4
S_PUB32: [0005:00000164], Flags: 00000000, __imp___set_fmode
S_PUB32: [0003:00001D90], Flags: 00000000, ??_C@_0L@PPLFOKHK@Subelement@
S_PUB32: [0002:00026160], Flags: 00000002, __RTC_SetErrorFunc
S_PUB32: [0005:0000009C], Flags: 00000000, __imp__memset
S_PUB32: [0003:000011A4], Flags: 00000000, ??_C@_02DPKJAMEF@?$CFd@
S_PUB32: [0003:00002068], Flags: 00000000, ??_C@_0HF@CCALMFNO@?$DM?$DPxml?5version?$DN?$CC1?40?$CC?5standalone?$DN@
S_PUB32: [0003:0000220C], Flags: 00000000, ??_C@_0CC@GOMFGJFF@Query?5attribute?3?5double?5as?5doub@
S_PUB32: [0003:00000F28], Flags: 00000000, ??_7XMLComment@tinyxml2@@6B@
S_PUB32: [0003:00002F14], Flags: 00000000, ??_C@_0BK@DJHIBBPP@InsertAfterChild?$CI?$CJ?5return@
S_PUB32: [0002:00005BB0], Flags: 00000002, ?Clear@XMLDocument@tinyxml2@@QAEXXZ
S_PUB32: [0003:00007D20], Flags: 00000000, ??_R3bad_array_new_length@std@@8
S_PUB32: [0003:00007D34], Flags: 00000000, ??_R2bad_array_new_length@std@@8
S_PUB32: [0003:00002C30], Flags: 00000000, ??_C@_0CA@GPHMKNOP@PushText?$CI?5uint64_t?5value?5?$CJ?5test@
S_PUB32: [0002:00012390], Flags: 00000002, ?ToInt@XMLUtil@tinyxml2@@SA_NPBDPAH@Z
S_PUB32: [0002:00012740], Flags: 00000002, ?ToStr@XMLUtil@tinyxml2@@SAX_NPADH@Z
S_PUB32: [0002:00013990], Flags: 00000002, ?VisitEnter@XMLVisitor@tinyxml2@@UAE_NABVXMLElement@2@PBVXMLAttribute@2@@Z
S_PUB32: [0003:00001B40], Flags: 00000000, ??_C@_0BD@GPKFNOBM@No?5leaks?5on?5start?$DP@
S_PUB32: [0002:00026730], Flags: 00000002, _NtCurrentTeb
S_PUB32: [0002:00024220], Flags: 00000002, __RTC_CheckEsp
S_PUB32: [0002:000106A0], Flags: 00000002, ?SetText@XMLElement@tinyxml2@@QAEXPBD@Z
S_PUB32: [0002:0000FEC0], Flags: 00000002, ?SetError@XMLDocument@tinyxml2@@AAAXW4XMLError@2@HPBDZZ
S_PUB32: [0002:00026F20], Flags: 00000002, __get_startup_new_mode
S_PUB32: [0002:00028421], Flags: 00000002, ___stdio_common_vsprintf_s
S_PUB32: [0002:00013E20], Flags: 00000002, ?__autoclassinit2@XMLPrinter@tinyxml2@@QAEXI@Z
S_PUB32: [0002:00028343], Flags: 00000002, _strncmp
S_PUB32: [0003:00004768], Flags: 00000000, ??_C@_05HNNDEAND@entry@
S_PUB32: [0003:0000295C], Flags: 00000000, ??_C@_0BA@KPLFAGMB@Attribute?3?5bool@
S_PUB32: [0003:00001D78], Flags: 00000000, ??_C@_0BE@GCCPIJHE@Element?5text?5before@
S_PUB32: [0003:0000392C], Flags: 00000000, ??_C@_0CB@MBJEHLNC@Throw?5error?5with?5bad?5end?5quotes@
S_PUB32: [0003:00003E38], Flags: 00000000, ??_C@_0CG@JJIPNPLE@Parse?5before?5deep?5cloning?5sub?5e@
S_PUB32: [0003:00003698], Flags: 00000000, ??_C@_0BI@NHIHPBDM@resources?1out?1test7?4xml@
S_PUB32: [0003:000025DC], Flags: 00000000, ??_C@_0BJ@JKDBNMPF@?$DMfoo?$DOThis?5is?5?5text?$DM?1foo?$DO@
S_PUB32: [0007:00000004], Flags: 00000000, ___guard_xfg_check_icall_fptr
S_PUB32: [0003:00001AD4], Flags: 00000000, ??_C@_0N@DBACDMDK@textApproach@
S_PUB32: [0003:00000D78], Flags: 00000000, ??_C@_0BJ@CHGEEKHN@XML_ERROR_EMPTY_DOCUMENT@
S_PUB32: [0002:0000D9A0], Flags: 00000002, ?PushDeclaration@XMLPrinter@tinyxml2@@QAEXPBD@Z
S_PUB32: [0003:0000565C], Flags: 00000000, ??_C@_0CI@BLKEHFCN@Issue?5302?4?5Subsequent?5success?5i@
S_PUB32: [0003:0000146C], Flags: 00000000, ??_C@_0CN@OGKLLGJJ@?$DMelement?$DO?$DMsubelement?$DO?$DM?1subeleme@
S_PUB32: [0002:000260A0], Flags: 00000002, __vsprintf_s_l
S_PUB32: [0003:0000282C], Flags: 00000000, ??_C@_06OKGGDFFJ@wolves@
S_PUB32: [0003:000018E0], Flags: 00000000, ??_C@_0CI@CANOBEFM@?$DMelement?5attribute1?5?$DN?$CCTest?5Attr@
S_PUB32: [0002:00013930], Flags: 00000002, ?VisitEnter@XMLVisitor@tinyxml2@@UAE_NABVXMLDocument@2@@Z
S_PUB32: [0003:00002184], Flags: 00000000, ??_C@_0CK@POKHOPMA@?$DMdoc?5attr0?$DN?81?8?5attr1?$DN?82?40?8?5attr@
S_PUB32: [0004:00000CB8], Flags: 00000000, ___dyn_tls_dtor_callback
S_PUB32: [0002:00004920], Flags: 00000002, ??_EXMLVisitor@tinyxml2@@UAEPAXI@Z
S_PUB32: [0003:00005B9C], Flags: 00000000, ??_C@_0CJ@OPGEMLPF@?4?1resources?1xmltest?956622041970@
S_PUB32: [0002:00017FA0], Flags: 00000002, ?example_4@@YA_NXZ
S_PUB32: [0002:0000BF80], Flags: 00000002, ?ParseText@StrPair@tinyxml2@@QAEPADPADPBDHPAH@Z
S_PUB32: [0003:00003E78], Flags: 00000000, ??_C@_0BL@HIKJDBCB@Accept?5before?5deep?5cloning@
S_PUB32: [0002:00012A40], Flags: 00000002, ?ToUnknown@XMLUnknown@tinyxml2@@UBEPBV12@XZ
S_PUB32: [0003:00007C6C], Flags: 00000000, ??_R3exception@std@@8
S_PUB32: [0003:00007C80], Flags: 00000000, ??_R2exception@std@@8
S_PUB32: [0003:000052C4], Flags: 00000000, ??_C@_0CI@BJIGDGKB@Move?5node?5from?5within?5?$DMone?$DO?5aft@
S_PUB32: [0002:000242E0], Flags: 00000002, __RTC_InitBase
S_PUB32: [0003:0000764C], Flags: 00000000, ??_R4XMLDocument@tinyxml2@@6B@
S_PUB32: [0003:00001444], Flags: 00000000, ??_C@_0CB@FADHGKFH@?$DMelement?$DO?$DMsubelement?1?$DO?$DM?1element@
S_PUB32: [000A:00000100], Flags: 00000000, ___guard_flags
S_PUB32: [0003:00001CE0], Flags: 00000000, ??_C@_09BBCOCLKB@Example_3@
S_PUB32: [0002:000282F5], Flags: 00000002, _fclose
S_PUB32: [0002:00023F99], Flags: 00000002, _QueryPerformanceFrequency@4
S_PUB32: [0003:0000613C], Flags: 00000000, ??_C@_0BG@DFNMKENK@D01L02E03T05E07T07E10@
S_PUB32: [0002:00017210], Flags: 00000002, ?ToElement@XMLHandle@tinyxml2@@QAEPAVXMLElement@2@XZ
S_PUB32: [0002:000070F0], Flags: 00000002, ?EnsureCapacity@?$DynArray@D$0BE@@tinyxml2@@AAEXH@Z
S_PUB32: [0002:0000C960], Flags: 00000002, ?PrintSpace@XMLPrinter@tinyxml2@@MAEXH@Z
S_PUB32: [0003:000011D4], Flags: 00000000, ??_C@_02NJPGOMH@?$CFf@
S_PUB32: [0002:00004F70], Flags: 00000002, ?Alloc@?$MemPoolT@$0DE@@tinyxml2@@UAEPAXXZ
S_PUB32: [0003:00001B84], Flags: 00000000, ??_C@_0O@MGBHNCAN@Load?5time?$DN?$CFu?6@
S_PUB32: [0002:000140B0], Flags: 00000002, __vscprintf
S_PUB32: [0002:00028427], Flags: 00000002, __seh_filter_dll
S_PUB32: [0004:00000008], Flags: 00000000, ?_errorNames@XMLDocument@tinyxml2@@0PAPBDA
S_PUB32: [0002:00028510], Flags: 00000002, ___acrt_thread_detach
S_PUB32: [0003:00005818], Flags: 00000000, ??_C@_0CG@INGHOKEO@?$DMfirst?$DO?$DM?$DPxml?5version?$DN?$CC1?40?$CC?5?$DP?$DO?$DM?1@
S_PUB32: [0003:00000B98], Flags: 00000000, ??_C@_04LOAJBDKD@true@
S_PUB32: [0003:00003958], Flags: 00000000, ??_C@_0CA@BHPABECP@Missing?5end?5tag?5at?5end?5of?5input@
S_PUB32: [0003:0000465C], Flags: 00000000, ??_C@_0BE@HPJNACFL@ShallowEqual?$CI?$CJ?5test@
S_PUB32: [0005:000001F0], Flags: 00000000, __imp____stdio_common_vfprintf
S_PUB32: [0007:00000008], Flags: 00000000, ___castguard_check_failure_os_handled_fptr
S_PUB32: [0003:00004D90], Flags: 00000000, ??_C@_05GPGNDLEK@child@
S_PUB32: [0003:000047C0], Flags: 00000000, ??_C@_0ED@LDGKNEHM@?$DMpoint?$DO?5?$DMx?$DO1?42?$DM?1x?$DO?5?$DMy?$DO1?$DM?1y?$DO?5?$DMz?$DO@
S_PUB32: [0002:0002834F], Flags: 00000002, _fopen
S_PUB32: [0005:00000158], Flags: 00000000, __imp___initterm
S_PUB32: [0003:000026A8], Flags: 00000000, ??_C@_0M@PAFJMELE@?$DMfoo?$DO?$DM?1foo?$DO@
S_PUB32: [0003:00001A14], Flags: 00000000, ??_C@_0P@PKOLAHPE@?o?$LL?$LP?$DMelement?1?$DO?6@
S_PUB32: [0003:00001E40], Flags: 00000000, ??_C@_0BM@KDLIGFFH@New?5element?5inserted?5middle@
S_PUB32: [0002:0000CD50], Flags: 00000002, ?Push@?$DynArray@D$0BE@@tinyxml2@@QAEXD@Z
S_PUB32: [0003:00007D44], Flags: 00000000, ??_R1A@?0A@EA@bad_array_new_length@std@@8
S_PUB32: [0003:000077F8], Flags: 00000000, ??_R4XMLText@tinyxml2@@6B@
S_PUB32: [0003:00004064], Flags: 00000000, ??_C@_07EGDKCIIG@attrib1@
S_PUB32: [0002:00024040], Flags: 00000002, ??_V@YAXPAX@Z
S_PUB32: [0002:00024810], Flags: 00000002, __ftol2_sse
S_PUB32: [0003:00004260], Flags: 00000000, ??_C@_0O@EIGICDJM@noSuchElement@
S_PUB32: [0002:000046F0], Flags: 00000002, ??_GXMLElement@tinyxml2@@EAEPAXI@Z
S_PUB32: [0003:0000444C], Flags: 00000000, ??_C@_07DHOPGKBP@IntText@
S_PUB32: [0003:00005E9C], Flags: 00000000, ??_C@_0BE@JDDKGAEA@?6?$DMroot?$DO?6?$DM?1mismatch?$DO@
S_PUB32: [0005:00000060], Flags: 00000000, KERNEL32_NULL_THUNK_DATA
S_PUB32: [000A:00000000], Flags: 00000000, ___guard_fids_count
S_PUB32: [0002:00015BE0], Flags: 00000002, ?FirstChildElement@XMLNode@tinyxml2@@QAEPAVXMLElement@2@PBD@Z
S_PUB32: [0002:00009E60], Flags: 00000002, ?IsUTF8Continuation@XMLUtil@tinyxml2@@SA_ND@Z
S_PUB32: [0002:0002848D], Flags: 00000002, _IsDebuggerPresent@0
S_PUB32: [0003:00007B5C], Flags: 00000000, ??_R3?$MemPoolT@$0DE@@tinyxml2@@8
S_PUB32: [0003:00007B70], Flags: 00000000, ??_R2?$MemPoolT@$0DE@@tinyxml2@@8
S_PUB32: [0002:00024320], Flags: 00000002, __RTC_Shutdown
S_PUB32: [0002:00012880], Flags: 00000002, ?ToText@XMLText@tinyxml2@@UAEPAV12@XZ
S_PUB32: [0002:00011DC0], Flags: 00000002, ?ToDocument@XMLDocument@tinyxml2@@UAEPAV12@XZ
S_PUB32: [0005:0000013C], Flags: 00000000, __imp___except1
S_PUB32: [0002:00024020], Flags: 00000002, ??_U@YAPAXI@Z
S_PUB32: [0004:00000150], Flags: 00000000, __fltused
S_PUB32: [0003:00001A78], Flags: 00000000, ??_C@_05DMCAHJJE@TITLE@
S_PUB32: [0002:0000B260], Flags: 00000002, ?ParseDeep@XMLAttribute@tinyxml2@@AAEPADPAD_NPAH@Z
S_PUB32: [0005:0000005C], Flags: 00000000, __imp__GetProcAddress@8
S_PUB32: [0003:00002204], Flags: 00000000, ??_C@_05PELCEIOL@attr1@
S_PUB32: [0003:00001AE4], Flags: 00000000, ??_C@_0CF@NAELEFGH@Both?5values?5are?5the?5same?3?5?$CFd?5an@
S_PUB32: [0003:00006410], Flags: 00000000, __real@4002cccccccccccd
S_PUB32: [0003:000011E4], Flags: 00000000, ??_C@_0BI@GMNACMFN@XMLDeclaration?5value?$DN?$CFs@
S_PUB32: [0002:00013AF0], Flags: 00000002, ?VisitExit@XMLVisitor@tinyxml2@@UAE_NABVXMLDocument@2@@Z
S_PUB32: [0003:000011C0], Flags: 00000000, ??_C@_04BFAHMMK@?$CFlld@
S_PUB32: [0005:000001E0], Flags: 00000000, __imp__strlen
S_PUB32: [0002:0000FA20], Flags: 00000002, ?SetAttribute@XMLAttribute@tinyxml2@@QAEXPBD@Z
S_PUB32: [0003:00001EA8], Flags: 00000000, ??_C@_01GBGANLPD@0@
S_PUB32: [0003:000064C0], Flags: 00000000, __real@bff0000000000000
S_PUB32: [0002:00027420], Flags: 00000002, __RTC_Initialize
S_PUB32: [0003:0000228C], Flags: 00000000, ??_C@_0CA@BNGCPADO@Query?5attribute?3?5does?5not?5exist@
S_PUB32: [0003:000063F0], Flags: 00000000, __real@3ff8000000000000
S_PUB32: [0003:00001B58], Flags: 00000000, ??_C@_0CD@FNBOFDCL@Test?5file?5?8?$CFs?8?5loaded?4?5ErrorID?$DN@
S_PUB32: [0002:0000FA90], Flags: 00000002, ?SetAttribute@XMLAttribute@tinyxml2@@QAEX_J@Z
S_PUB32: [0003:000045B0], Flags: 00000000, ??_C@_0BO@BFDPDIGJ@UnsignedText?$CI?$CJ?5hex?5value?5test@
S_PUB32: [0002:000095F0], Flags: 00000002, ?InsertNewChildElement@XMLElement@tinyxml2@@QAEPAV12@PBD@Z
S_PUB32: [0002:000283AF], Flags: 00000002, ___setusermatherr
S_PUB32: [0002:0000A6C0], Flags: 00000002, ?Name@XMLAttribute@tinyxml2@@QBEPBDXZ
S_PUB32: [0003:00007500], Flags: 00000000, ___CastGuardVftablesEnd
S_PUB32: [0003:00003A58], Flags: 00000000, ??_C@_0CD@CODJEHCK@?5declarations?5for?5?$DMhead?$DO?5?$CG?5?$DMbod@
S_PUB32: [0002:00014730], Flags: 00000002, ??$XMLTest@I@@YA_NPBDII_N@Z
S_PUB32: [0002:00028313], Flags: 00000002, _fseek
S_PUB32: [0003:00001E94], Flags: 00000000, ??_C@_0BB@BFILBPOF@Programmatic?5DOM@
S_PUB32: [0002:0000EB90], Flags: 00000002, ?QueryIntAttribute@XMLElement@tinyxml2@@QBE?AW4XMLError@2@PBDPAH@Z
S_PUB32: [0003:00001228], Flags: 00000000, ??_C@_0CD@MCGGMGEP@xml?5version?$DN?$CC1?40?$CC?5encoding?$DN?$CCUTF@
S_PUB32: [0002:00026FD0], Flags: 00000002, __initialize_denormal_control
S_PUB32: [0002:00012510], Flags: 00000002, ?ToStr@XMLUtil@tinyxml2@@SAXIPADH@Z
S_PUB32: [0002:000124A0], Flags: 00000002, ?ToStr@XMLUtil@tinyxml2@@SAXHPADH@Z
S_PUB32: [0002:00012580], Flags: 00000002, ?ToStr@XMLUtil@tinyxml2@@SAXMPADH@Z
S_PUB32: [0005:00000180], Flags: 00000000, __imp___set_new_mode
S_PUB32: [0003:000063B0], Flags: 00000000, __real@3ddb7cdfd9d7bdbb
S_PUB32: [000A:00000000], Flags: 00000000, ___guard_iat_count
S_PUB32: [0002:000125F0], Flags: 00000002, ?ToStr@XMLUtil@tinyxml2@@SAXNPADH@Z
S_PUB32: [0002:00009910], Flags: 00000002, ?Int64Attribute@XMLElement@tinyxml2@@QBE_JPBD_J@Z
S_PUB32: [0002:000255F0], Flags: 00000002, ??0bad_array_new_length@std@@QAE@ABV01@@Z
S_PUB32: [0003:000026E0], Flags: 00000000, ??_C@_0CD@LIEFECGF@SetText?$CI?$CJ?5normal?5use?5?$CIopen?1clos@
S_PUB32: [0002:00001D70], Flags: 00000002, ??$CreateUnlinkedNode@VXMLComment@tinyxml2@@$0DE@@XMLDocument@tinyxml2@@AAEPAVXMLComment@1@AAV?$MemPoolT@$0DE@@1@@Z
S_PUB32: [0002:00010140], Flags: 00000002, ?SetName@XMLAttribute@tinyxml2@@AAEXPBD@Z
S_PUB32: [0002:0000FB70], Flags: 00000002, ?SetAttribute@XMLAttribute@tinyxml2@@QAEX_K@Z
S_PUB32: [0003:00004DCC], Flags: 00000000, ??_C@_0BI@HPOOLHMM@Printing?5of?5sub?9element@
S_PUB32: [0003:00005394], Flags: 00000000, ??_C@_0BE@JNNNLLGF@Parse?5svg?5with?5text@
S_PUB32: [0002:00014560], Flags: 00000002, ??$XMLTest@H@@YA_NPBDHH_N@Z
S_PUB32: [0003:00002B6C], Flags: 00000000, ??_C@_0BB@FMEJDJNE@this?5is?5Tinyxml2@
S_PUB32: [0002:00004760], Flags: 00000002, ??_GXMLNode@tinyxml2@@MAEPAXI@Z
S_PUB32: [0002:0000AD20], Flags: 00000002, ?Parse@XMLDocument@tinyxml2@@AAEXXZ
S_PUB32: [0003:00006400], Flags: 00000000, __real@4000000000000000
S_PUB32: [0002:00007C00], Flags: 00000002, ?FindAttribute@XMLElement@tinyxml2@@QBEPBVXMLAttribute@2@PBD@Z
S_PUB32: [0002:00011590], Flags: 00000002, ?SkipWhiteSpace@XMLUtil@tinyxml2@@SAPADQADPAH@Z
S_PUB32: [0003:00005ECC], Flags: 00000000, ??_C@_0BN@CFJGGBCC@?6?$DMroot?$DO?$DM?$CB?$FLCDATA?$FL?5?6?5foo?5bar?5?6@
S_PUB32: [0003:00001CC8], Flags: 00000000, ??_C@_09CDBIEJCD@Example_1@
S_PUB32: [0003:00004458], Flags: 00000000, ??_C@_0P@JFNFHLFC@IntText?$CI?$CJ?5test@
S_PUB32: [0002:00009FF0], Flags: 00000002, ?ItemSize@?$MemPoolT@$0DE@@tinyxml2@@UBEHXZ
S_PUB32: [0002:0000A050], Flags: 00000002, ?ItemSize@?$MemPoolT@$0DI@@tinyxml2@@UBEHXZ
S_PUB32: [0003:00001DD0], Flags: 00000000, ??_C@_0M@CPLIDPE@New?5element@
S_PUB32: [0002:0000A0B0], Flags: 00000002, ?ItemSize@?$MemPoolT@$0DM@@tinyxml2@@UBEHXZ
S_PUB32: [0003:00004138], Flags: 00000000, ??_C@_0BI@NLLNNAAE@Attribute?5with?5space?5?$CD2@
S_PUB32: [0002:00028500], Flags: 00000002, ___scrt_stub_for_acrt_thread_attach
S_PUB32: [0002:00006EE0], Flags: 00000002, ?Empty@?$DynArray@PAUBlock@?$MemPoolT@$0DE@@tinyxml2@@$09@tinyxml2@@QBE_NXZ
S_PUB32: [0002:000129E0], Flags: 00000002, ?ToUnknown@XMLUnknown@tinyxml2@@UAEPAV12@XZ
S_PUB32: [0003:00006304], Flags: 00000000, ??_C@_0P@FGNHHBKM@Open?5dream?4xml@
S_PUB32: [0002:00004610], Flags: 00000002, ??_GXMLDeclaration@tinyxml2@@MAEPAXI@Z
S_PUB32: [0003:00007380], Flags: 00000000, ___CastGuardVftablesStart
S_PUB32: [0002:0000EB10], Flags: 00000002, ?QueryInt64Value@XMLAttribute@tinyxml2@@QBE?AW4XMLError@2@PA_J@Z
S_PUB32: [0002:0002832B], Flags: 00000002, ___stdio_common_vsprintf
S_PUB32: [0002:000111A0], Flags: 00000002, ?ShallowEqual@XMLElement@tinyxml2@@UBE_NPBVXMLNode@2@@Z
S_PUB32: [0003:00002CF8], Flags: 00000000, ??_C@_0FF@LNIBCIJH@?$DMxmlElement?$DO?$DM?$CB?$FLCDATA?$FLI?5am?5?$DO?5the@
S_PUB32: [0003:000056F0], Flags: 00000000, ??_C@_0BI@CJNFLMKF@Error?5should?5be?5cleared@
S_PUB32: [0003:000024A8], Flags: 00000000, ??_C@_0CG@KNPGPFFM@UTF?98?3?5Browsing?5russian?5element@
S_PUB32: [0003:00001CEC], Flags: 00000000, ??_C@_09FOGPLNGG@Example_4@
S_PUB32: [0002:000284F0], Flags: 00000002, ___vcrt_initialize
S_PUB32: [0002:00006160], Flags: 00000002, ?ConvertUTF32ToUTF8@XMLUtil@tinyxml2@@SAXKPADPAH@Z
S_PUB32: [0003:000034D0], Flags: 00000000, ??_C@_0DB@OHKCIJPO@?$DM?$DPxml?5version?$DN?81?40?8?$DP?$DO?$DMa?4elem?5xm@
S_PUB32: [0003:000021DC], Flags: 00000000, ??_C@_0BP@JOIIDGJG@Query?5attribute?3?5int?5as?5double@
S_PUB32: [0002:000257D0], Flags: 00000002, ??_Gexception@std@@UAEPAXI@Z
S_PUB32: [0002:00007F10], Flags: 00000002, ?FirstChildElement@XMLNode@tinyxml2@@QBEPBVXMLElement@2@PBD@Z
S_PUB32: [0002:000276F0], Flags: 00000002, ___castguard_slow_path_check_os_handled
S_PUB32: [0002:000128E0], Flags: 00000002, ?ToText@XMLText@tinyxml2@@UBEPBV12@XZ
S_PUB32: [0002:00011E30], Flags: 00000002, ?ToDocument@XMLDocument@tinyxml2@@UBEPBV12@XZ
S_PUB32: [0002:0000FC50], Flags: 00000002, ?SetAttribute@XMLAttribute@tinyxml2@@QAEX_N@Z
S_PUB32: [0002:0000A4E0], Flags: 00000002, ?LoadFile@XMLDocument@tinyxml2@@QAE?AW4XMLError@2@PBD@Z
S_PUB32: [0002:00026130], Flags: 00000002, __RTC_GetErrDesc
S_PUB32: [0003:00002ACC], Flags: 00000000, ??_C@_0BM@HGHLFGGD@resources?1out?1printer_1?4xml@
S_PUB32: [0005:00000178], Flags: 00000000, __imp___register_thread_local_exe_atexit_callback
S_PUB32: [0002:00014900], Flags: 00000002, ??$XMLTest@M@@YA_NPBDMM_N@Z
S_PUB32: [0002:000114B0], Flags: 00000002, ?Size@?$DynArray@D$0BE@@tinyxml2@@QBEHXZ
S_PUB32: [0002:00004260], Flags: 00000002, ??A?$DynArray@PAVXMLNode@tinyxml2@@$09@tinyxml2@@QAEAAPAVXMLNode@1@H@Z
S_PUB32: [0002:000116A0], Flags: 00000002, ?StringEqual@XMLUtil@tinyxml2@@SA_NPBD0H@Z
S_PUB32: [0003:00000BC0], Flags: 00000000, ??_C@_05MAJJAKPI@FALSE@
S_PUB32: [0002:0000E540], Flags: 00000002, ?QueryBoolValue@XMLAttribute@tinyxml2@@QBE?AW4XMLError@2@PA_N@Z
S_PUB32: [0002:000160E0], Flags: 00000002, ?NullLineEndings@@YAXPAD@Z
S_PUB32: [0002:00010A20], Flags: 00000002, ?SetTracked@?$MemPoolT@$0CI@@tinyxml2@@UAEXXZ
S_PUB32: [0005:000001E4], Flags: 00000000, __imp____stdio_common_vsscanf
S_PUB32: [0003:0000433C], Flags: 00000000, ??_C@_08DPMAHLC@CStrSize@
S_PUB32: [0002:00010780], Flags: 00000002, ?SetText@XMLElement@tinyxml2@@QAEX_J@Z
S_PUB32: [0003:00006960], Flags: 00000000, ??_C@_0BO@CHIONIOI@Unknown?5Runtime?5Check?5Error?$AN?6@
S_PUB32: [0004:000005B0], Flags: 00000000, ??_R0?AVMemPool@tinyxml2@@@8
S_PUB32: [0002:000134E0], Flags: 00000002, ?Visit@XMLPrinter@tinyxml2@@UAE_NABVXMLText@2@@Z
S_PUB32: [0004:00000880], Flags: 00000000, ?gFail@@3HA
S_PUB32: [0002:00010220], Flags: 00000002, ?SetStr@StrPair@tinyxml2@@QAEXPBDH@Z
S_PUB32: [0005:000000D8], Flags: 00000000, VCRUNTIME140D_NULL_THUNK_DATA
S_PUB32: [0003:00002CDC], Flags: 00000000, ??_C@_0BH@CAGEFKOJ@PushDeclaration?$CI?$CJ?5test@
S_PUB32: [0002:00010E60], Flags: 00000002, ?ShallowClone@XMLText@tinyxml2@@UBEPAVXMLNode@2@PAVXMLDocument@2@@Z
S_PUB32: [0003:0000498C], Flags: 00000000, ??_C@_0CO@ELGOLBEM@?$DMelement?5_attr1?$DN?$CCfoo?$CC?5?3attr2?$DN?$CCb@
S_PUB32: [0003:000035E8], Flags: 00000000, ??_C@_0HN@OKHKIEOC@?$DM?$DPxml?5version?$DN?$CC1?40?$CC?5?$DP?$DO?$DM?$CBDOCTYPE@
S_PUB32: [000A:00000000], Flags: 00000000, ___guard_iat_table
S_PUB32: [0005:00000024], Flags: 00000000, __imp__GetStartupInfoW@4
S_PUB32: [0003:00004824], Flags: 00000000, ??_C@_0BE@FCILOHOA@QueryIntText?5result@
S_PUB32: [0002:0002829B], Flags: 00000002, ___std_exception_copy
S_PUB32: [0002:00014ED0], Flags: 00000002, ??$XMLTest@_K@@YA_NPBD_K1_N@Z
S_PUB32: [0004:00000848], Flags: 00000000, ?endMemState@@3U_CrtMemState@@A
S_PUB32: [0002:0000A9B0], Flags: 00000002, ?NewUnknown@XMLDocument@tinyxml2@@QAEPAVXMLUnknown@2@PBD@Z
S_PUB32: [0002:00008810], Flags: 00000002, ?GetDocument@XMLNode@tinyxml2@@QAEPAVXMLDocument@2@XZ
S_PUB32: [0003:00001EC4], Flags: 00000000, ??_C@_0CB@NAAABEIM@User?5data?5?9?5value?5behind?5pointe@
S_PUB32: [0003:00006AE0], Flags: 00000000, ??_C@_05MKKEDADM@?$CF?42X?5@
S_PUB32: [0002:0000BDF0], Flags: 00000002, ?ParseDeep@XMLUnknown@tinyxml2@@MAEPADPADPAVStrPair@2@PAH@Z
S_PUB32: [0005:000000C0], Flags: 00000000, __imp___except_handler4_common
S_PUB32: [0002:0002846F], Flags: 00000002, _UnhandledExceptionFilter@4
S_PUB32: [0002:00014500], Flags: 00000002, _vsscanf_s
S_PUB32: [0002:00014AF0], Flags: 00000002, ??$XMLTest@N@@YA_NPBDNN_N@Z
S_PUB32: [0003:00002BC0], Flags: 00000000, ??_C@_0BL@KMGOFHGK@PushText?$CI?5int?5value?5?$CJ?5test@
S_PUB32: [0003:0000400C], Flags: 00000000, ??_C@_0BN@LIPHMILK@Parse?5for?5attribute?5ordering@
S_PUB32: [0002:0000AAF0], Flags: 00000002, ?NextSiblingElement@XMLNode@tinyxml2@@QBEPBVXMLElement@2@PBD@Z
S_PUB32: [0002:0000E650], Flags: 00000002, ?QueryDoubleText@XMLElement@tinyxml2@@QBE?AW4XMLError@2@PAN@Z
S_PUB32: [0002:00009C20], Flags: 00000002, ?IsNameChar@XMLUtil@tinyxml2@@SA_NE@Z
S_PUB32: [0003:000034C0], Flags: 00000000, ??_C@_0M@DFJHOJG@Crazy?5?$CGttk?$DL@
S_PUB32: [0003:00007778], Flags: 00000000, ??_R1A@?0A@EA@XMLAttribute@tinyxml2@@8
S_PUB32: [0002:00004110], Flags: 00000002, ??1XMLVisitor@tinyxml2@@UAE@XZ
S_PUB32: [0003:00003B34], Flags: 00000000, ??_C@_0BD@EANHNKBI@Comments?5iteration@
S_PUB32: [0004:00000178], Flags: 00000000, ___isa_enabled
S_PUB32: [0003:000038B0], Flags: 00000000, ??_C@_0BP@EJFGODAI@All?5whitespaces?5document?5error@
S_PUB32: [0003:000054B8], Flags: 00000000, ??_C@_09KEHKDANO@attrD?9f32@
S_PUB32: [0003:000054A0], Flags: 00000000, ??_C@_09HCCDNDMD@attrB?9f32@
S_PUB32: [0005:000001C8], Flags: 00000000, __imp____acrt_iob_func
S_PUB32: [0002:00012990], Flags: 00000002, ?ToUnknown@XMLNode@tinyxml2@@UBEPBVXMLUnknown@2@XZ
S_PUB32: [0003:00004810], Flags: 00000000, ??_C@_0N@BDLPMPGO@Parse?5points@
S_PUB32: [0003:00002324], Flags: 00000000, ??_C@_0BH@PEOBHAMA@Query?5double?5attribute@
S_PUB32: [0003:000023A8], Flags: 00000000, ??_C@_0CA@EAIDEFBO@Attribute?5round?5trip?4?5c?9string?4@
S_PUB32: [0002:00025840], Flags: 00000002, ?__scrt_throw_std_bad_array_new_length@@YAXXZ
S_PUB32: [0002:00003330], Flags: 00000002, ??0XMLVisitor@tinyxml2@@QAE@XZ
S_PUB32: [0003:000068C8], Flags: 00000000, ??_C@_0BN@BPOGFMJL@Stack?5memory?5was?5corrupted?$AN?6@
S_PUB32: [0003:00006318], Flags: 00000000, ??_C@_0P@CGCEEMBJ@Read?5dream?4xml@
S_PUB32: [0003:00007C54], Flags: 00000000, ??_R4exception@std@@6B@
S_PUB32: [0002:0000AB90], Flags: 00000002, ?NoChildren@XMLNode@tinyxml2@@QBE_NXZ
S_PUB32: [0003:00004044], Flags: 00000000, ??_C@_01FDFGLJHB@2@
S_PUB32: [0003:00002944], Flags: 00000000, ??_C@_0BE@CPAAELIH@Attribute?3?5uint64_t@
S_PUB32: [0003:00005B48], Flags: 00000000, ??_C@_0CJ@LCHBMHGL@?4?1resources?1xmltest?957205412572@
S_PUB32: [0003:0000238C], Flags: 00000000, ??_C@_0BF@JMEHCLBP@Attribute?5match?5test@
S_PUB32: [0002:00001E70], Flags: 00000002, ??$CreateUnlinkedNode@VXMLDeclaration@tinyxml2@@$0DE@@XMLDocument@tinyxml2@@AAEPAVXMLDeclaration@1@AAV?$MemPoolT@$0DE@@1@@Z
S_PUB32: [0003:00004C2C], Flags: 00000000, ??_C@_0CL@DOJGCJIB@Parse?5with?5whitespace?5collapsin@
S_PUB32: [0003:00006420], Flags: 00000000, __real@4010000000000000
S_PUB32: [0005:00000218], Flags: 00000000, __imp___set_app_type
S_PUB32: [0002:00026AA0], Flags: 00000002, ___scrt_is_nonwritable_in_current_image
S_PUB32: [0002:00003DF0], Flags: 00000002, ??1XMLElement@tinyxml2@@EAE@XZ
S_PUB32: [0003:000055D8], Flags: 00000000, ??_C@_0BD@DONHNEKA@printme?5?9?5Accept?$CI?$CJ@
S_PUB32: [0002:00002CA0], Flags: 00000002, ??0XMLDeclaration@tinyxml2@@IAE@PAVXMLDocument@1@@Z
S_PUB32: [0003:00000B90], Flags: 00000000, ??_C@_02KCAKIFL@lt@
S_PUB32: [0003:00001A40], Flags: 00000000, ??_C@_04MDKIEGGJ@?5?$CFs?6@
S_PUB32: [0002:00004920], Flags: 00000002, ??_GXMLVisitor@tinyxml2@@UAEPAXI@Z
S_PUB32: [0002:0002843F], Flags: 00000002, __crt_atexit
S_PUB32: [0002:00012E90], Flags: 00000002, ?Unsigned64Attribute@XMLElement@tinyxml2@@QBE_KPBD_K@Z
S_PUB32: [0003:00003CD4], Flags: 00000000, ??_C@_0BA@HNALEGEM@Clone?5and?5Equal@
S_PUB32: [0003:00000B84], Flags: 00000000, ??_C@_03DCBBJBAA@amp@
S_PUB32: [0002:00026850], Flags: 00000002, ___scrt_dllmain_crt_thread_detach
S_PUB32: [0003:00004CA8], Flags: 00000000, ??_C@_0BL@HCHFEECM@Parse?5with?5all?5whitespaces@
S_PUB32: [0003:000063E0], Flags: 00000000, __real@3ff3333333333333
S_PUB32: [0003:000031A8], Flags: 00000000, ??_C@_0DC@OGDPLMDH@Entity?5transformation?3?5open?5tex@
S_PUB32: [0005:000000B8], Flags: 00000000, __imp____current_exception
S_PUB32: [0003:000078B0], Flags: 00000000, ??_R4XMLUnknown@tinyxml2@@6B@
S_PUB32: [0003:00001BA8], Flags: 00000000, ??_C@_0P@JMJCIMED@Total?5time?$DN?$CFu?6@
S_PUB32: [0003:0000642C], Flags: 00000000, __real@40166666
S_PUB32: [0003:00002624], Flags: 00000000, ??_C@_0BG@DKADDCJD@GetText?$CI?$CJ?5normal?5use?4@
S_PUB32: [0003:00005F1C], Flags: 00000000, ??_C@_0P@PPDAGDFA@ErrorLine?9Text@
S_PUB32: [0003:00005AE8], Flags: 00000000, ??_C@_06ECBGBIAH@LEAK?52@
S_PUB32: [0002:000172B0], Flags: 00000002, ?Unsigned64Value@XMLAttribute@tinyxml2@@QBE_KXZ
S_PUB32: [0002:0002828F], Flags: 00000002, _strchr
S_PUB32: [0003:00004D60], Flags: 00000000, ??_C@_0CC@DGPGGFCP@Parse?5for?5printing?5of?5sub?9eleme@
S_PUB32: [0003:00005524], Flags: 00000000, ??_C@_0CB@CLINBEOK@Parse?5hex?5no?5closing?5tag?5round?5@
S_PUB32: [0002:0000F5E0], Flags: 00000002, ?Set@StrPair@tinyxml2@@QAEXPAD0H@Z
S_PUB32: [0003:0000142C], Flags: 00000000, ??_C@_0BE@IJJMIOFN@?$DMelement?$DO?$DM?1element?$DO@
S_PUB32: [0003:0000271C], Flags: 00000000, ??_C@_0BD@LDKHKAAP@SetText?$CI?$CJ?5replace?4@
S_PUB32: [0003:00004DB4], Flags: 00000000, ??_C@_0BE@MBLOGLKH@?$DMchild?$DOabc?$DM?1child?$DO?6@
S_PUB32: [0003:00005F94], Flags: 00000000, ??_C@_0BE@ONMOMEH@?6?$DMroot?$DO?6?$DMunclosed?5?6@
S_PUB32: [0003:0000270C], Flags: 00000000, ??_C@_0M@FKDKOAKD@blue?5flame?4@
S_PUB32: [0002:0000E840], Flags: 00000002, ?QueryFloatText@XMLElement@tinyxml2@@QBE?AW4XMLError@2@PAM@Z
S_PUB32: [0002:00013320], Flags: 00000002, ?Value@XMLAttribute@tinyxml2@@QBEPBDXZ
S_PUB32: [0003:0000408C], Flags: 00000000, ??_C@_0BN@ECOIEEHM@Parse?5attribute?5with?5space?51@
S_PUB32: [0005:0000012C], Flags: 00000000, __imp___callnewh
S_PUB32: [0002:00027790], Flags: 00000002, __guard_icall_checks_enforced
S_PUB32: [0002:00010860], Flags: 00000002, ?SetText@XMLElement@tinyxml2@@QAEX_K@Z
S_PUB32: [0003:00007B44], Flags: 00000000, ??_R4?$MemPoolT@$0DE@@tinyxml2@@6B@
S_PUB32: [0002:000282FB], Flags: 00000002, _ferror
S_PUB32: [0002:00028500], Flags: 00000002, ___vcrt_thread_attach
S_PUB32: [0003:0000286C], Flags: 00000000, ??_C@_0CC@PKIADLJJ@Empty?5self?9closed?5element?5round@
S_PUB32: [0003:000011D0], Flags: 00000000, ??_C@_02NJNOFBBI@?$CFx@
S_PUB32: [0002:00026E40], Flags: 00000002, ___security_init_cookie
S_PUB32: [0003:00002AA8], Flags: 00000000, ??_C@_0BN@CEJOLMLF@XMLPrinter?5Stream?5mode?3?5load@
S_PUB32: [0003:00001FF4], Flags: 00000000, ??_C@_0BP@MHJCDDEA@DOCTYPE?5PLAY?5SYSTEM?5?$CCplay?4dtd?$CC@
S_PUB32: [0002:00015F40], Flags: 00000002, ?Mem@?$DynArray@D$09@tinyxml2@@QAEPADXZ
S_PUB32: [0002:00025590], Flags: 00000002, ??0bad_alloc@std@@QAE@ABV01@@Z
S_PUB32: [0003:0000350C], Flags: 00000000, ??_C@_0N@IKFDFIHA@dot?5in?5names@
S_PUB32: [0003:00001874], Flags: 00000000, ??_C@_0DA@GDDBJIHF@?$DMelement?5attrib1?$DN?$CC1?$CC?5attrib2?$DN?$CC2@
S_PUB32: [0002:000163A0], Flags: 00000002, ?QueryAttribute@XMLElement@tinyxml2@@QBE?AW4XMLError@2@PBDPAI@Z
S_PUB32: [0003:00006CE8], Flags: 00000000, ??_C@_0CK@CNLNOEPB@Local?5variable?5used?5before?5init@
S_PUB32: [0002:00016330], Flags: 00000002, ?QueryAttribute@XMLElement@tinyxml2@@QBE?AW4XMLError@2@PBDPAH@Z
S_PUB32: [0002:00016480], Flags: 00000002, ?QueryAttribute@XMLElement@tinyxml2@@QBE?AW4XMLError@2@PBDPAN@Z
S_PUB32: [0002:00027650], Flags: 00000002, ___castguard_slow_path_check_debugbreak
S_PUB32: [0002:00016410], Flags: 00000002, ?QueryAttribute@XMLElement@tinyxml2@@QBE?AW4XMLError@2@PBDPAM@Z
S_PUB32: [0002:000284DB], Flags: 00000002, _VirtualQuery@12
S_PUB32: [0003:000026B8], Flags: 00000000, ??_C@_0BF@OKHJFMCL@Empty?5closed?5element@
S_PUB32: [0002:000284C3], Flags: 00000002, _GetLastError@0
S_PUB32: [0005:000001D8], Flags: 00000000, __imp__exit
S_PUB32: [0002:000046F0], Flags: 00000002, ??_EXMLElement@tinyxml2@@EAEPAXI@Z
S_PUB32: [0003:00000820], Flags: 00000000, ___xp_z
S_PUB32: [0003:0000030C], Flags: 00000000, ___xi_a
S_PUB32: [0002:0000ACC0], Flags: 00000002, ?Parent@XMLNode@tinyxml2@@QBEPBV12@XZ
S_PUB32: [0003:00005A00], Flags: 00000000, ??_C@_0CD@OGNKJKJB@Parse?5to?5test?5XMLDocument?3?3Valu@
S_PUB32: [0002:00014CE0], Flags: 00000002, ??$XMLTest@_J@@YA_NPBD_J1_N@Z
S_PUB32: [0003:000054C4], Flags: 00000000, ??_C@_0CN@OLALBDAH@?$DM?$DPxml?5version?$DN?$CC1?40?$CC?5encoding?$DN?$CCU@
S_PUB32: [0003:00000A28], Flags: 00000000, ___xt_z
S_PUB32: [0002:00007E50], Flags: 00000002, ?FirstChild@XMLNode@tinyxml2@@QAEPAV12@XZ
S_PUB32: [0002:0000EEF0], Flags: 00000002, ?QueryUnsigned64Value@XMLAttribute@tinyxml2@@QBE?AW4XMLError@2@PA_K@Z
S_PUB32: [0003:00000000], Flags: 00000000, ___xc_a
S_PUB32: [0003:00006BA8], Flags: 00000000, ??_C@_0EI@CLEPFNGI@Stack?5area?5around?5_alloca?5memor@
S_PUB32: [0003:00004E54], Flags: 00000000, ??_C@_0BJ@OLHFLBMB@BOM?5preservation?5?$CIparse?$CJ@
S_PUB32: [0002:0000C2B0], Flags: 00000002, ?Pop@?$DynArray@PAUBlock@?$MemPoolT@$0DM@@tinyxml2@@$09@tinyxml2@@QAEPAUBlock@?$MemPoolT@$0DM@@2@XZ
S_PUB32: [0003:00000208], Flags: 00000000, ___xc_z
S_PUB32: [0003:00000618], Flags: 00000000, ___xi_z
S_PUB32: [0002:000143B0], Flags: 00000002, _sscanf_s
S_PUB32: [0003:0000071C], Flags: 00000000, ___xp_a
S_PUB32: [0003:00006440], Flags: 00000000, __real@40283d70a3d70a3d
S_PUB32: [0002:00027400], Flags: 00000002, __crt_debugger_hook
S_PUB32: [0003:00000924], Flags: 00000000, ___xt_a
S_PUB32: [0003:000078DC], Flags: 00000000, ??_R2XMLUnknown@tinyxml2@@8
S_PUB32: [0003:000078C8], Flags: 00000000, ??_R3XMLUnknown@tinyxml2@@8
S_PUB32: [0005:0000019C], Flags: 00000000, __imp___initialize_onexit_table
S_PUB32: [0003:00003C68], Flags: 00000000, ??_C@_0EK@ONBFBPNK@?$DM?$DPxml?5version?$DN?81?40?8?$DP?$DO?5?$DMelement?$DO@
S_PUB32: [0003:00003208], Flags: 00000000, ??_C@_0DC@IABFAFPM@Entity?5transformation?3?5open?5tex@
S_PUB32: [0002:000043E0], Flags: 00000002, ??_E?$MemPoolT@$0DI@@tinyxml2@@UAEPAXI@Z
S_PUB32: [0003:00002810], Flags: 00000000, ??_C@_0BH@EBKOAHM@Text?5in?5nested?5element@
S_PUB32: [0002:000167A0], Flags: 00000002, ?SetAttribute@XMLElement@tinyxml2@@QAEXPBDH@Z
S_PUB32: [0003:0000653C], Flags: 00000000, ??_C@_0BC@EOODALEL@Unknown?5exception@
S_PUB32: [0005:00000194], Flags: 00000000, __imp____stdio_common_vsprintf_s
S_PUB32: [0002:00007860], Flags: 00000002, ?EnsureCapacity@?$DynArray@PBD$09@tinyxml2@@AAEXH@Z
S_PUB32: [0002:00024DE0], Flags: 00000002, __dtoul3
S_PUB32: [0002:00003CE0], Flags: 00000002, ??1XMLDocument@tinyxml2@@UAE@XZ
S_PUB32: [0002:000136F0], Flags: 00000002, ?Visit@XMLVisitor@tinyxml2@@UAE_NABVXMLUnknown@2@@Z
S_PUB32: [0003:000044A0], Flags: 00000000, ??_C@_0BB@DHKMIENA@Int64Text?$CI?$CJ?5test@
S_PUB32: [0002:000283F7], Flags: 00000002, __register_thread_local_exe_atexit_callback
S_PUB32: [0002:00006560], Flags: 00000002, ?CurrentAllocs@?$MemPoolT@$0DE@@tinyxml2@@QBEHXZ
S_PUB32: [0002:00010F80], Flags: 00000002, ?ShallowEqual@XMLComment@tinyxml2@@UBE_NPBVXMLNode@2@@Z
S_PUB32: [0002:000282E3], Flags: 00000002, _isspace
S_PUB32: [0004:00000000], Flags: 00000000, ?writeBoolTrue@XMLUtil@tinyxml2@@0PBDB
S_PUB32: [0003:0000554C], Flags: 00000000, ??_C@_04BAJDEDPD@Root@
S_PUB32: [0002:0000DC40], Flags: 00000002, ?PushText@XMLPrinter@tinyxml2@@QAEXI@Z
S_PUB32: [0002:000274A0], Flags: 00000002, __except_handler4
S_PUB32: [0005:00000144], Flags: 00000000, __imp__fopen_s
S_PUB32: [0003:00003828], Flags: 00000000, ??_C@_0BF@HAJDLEGD@Empty?5document?5error@
S_PUB32: [0005:000000B0], Flags: 00000000, __imp___CxxThrowException@8
S_PUB32: [0002:00016820], Flags: 00000002, ?SetAttribute@XMLElement@tinyxml2@@QAEXPBDI@Z
S_PUB32: [0002:0000CCF0], Flags: 00000002, ?ProcessEntities@XMLDocument@tinyxml2@@QBE_NXZ
S_PUB32: [0003:000018B0], Flags: 00000000, ??_C@_0CI@JFHMCFGL@?$DMelement?5attribute1?$DN?5?$CCTest?5Attr@
S_PUB32: [0003:00001F8C], Flags: 00000000, ??_C@_0BB@NJFNOB@Save?5compact?4xml@
S_PUB32: [0002:00028409], Flags: 00000002, ___p__commode
S_PUB32: [0002:00015650], Flags: 00000002, ?Clear@?$DynArray@D$09@tinyxml2@@QAEXXZ
S_PUB32: [0002:000156B0], Flags: 00000002, ?DoubleValue@XMLAttribute@tinyxml2@@QBENXZ
S_PUB32: [0002:00028469], Flags: 00000002, _GetCurrentThreadId@0
S_PUB32: [0002:00015200], Flags: 00000002, ??0XMLConstHandle@tinyxml2@@QAE@ABVXMLNode@1@@Z
S_PUB32: [0003:00005F6C], Flags: 00000000, ??_C@_0N@BBKPAPNB@?6?$DMroot?$DO?6?$DM?$CB?5?6@
S_PUB32: [0003:00004348], Flags: 00000000, ??_C@_0CF@GPHHENIA@?$DMipxml?5ws?$DN?81?8?$DO?$DMinfo?5bla?$DN?8?5?1?$DO?$DM?1i@
S_PUB32: [0002:0000D490], Flags: 00000002, ?PushAttribute@XMLPrinter@tinyxml2@@QAEXPBDI@Z
S_PUB32: [0002:00006B30], Flags: 00000002, ?DeleteNode@XMLDocument@tinyxml2@@QAEXPAVXMLNode@2@@Z
S_PUB32: [0003:000055AC], Flags: 00000000, ??_C@_0BL@HIEBOKOL@Parse?5hex?5with?5closing?5tag@
S_PUB32: [0003:00005154], Flags: 00000000, ??_C@_0DA@PGNJJINK@Move?5node?5from?5within?5?$DMone?$DO?5to?5@
S_PUB32: [0002:00024BF0], Flags: 00000002, __ftoul3
S_PUB32: [0003:00002B4C], Flags: 00000000, ??_C@_04DDKJGDCM@bool@
S_PUB32: [0002:00023FA0], Flags: 00000002, ??2@YAPAXI@Z
S_PUB32: [0002:00006A90], Flags: 00000002, ?DeleteChildren@XMLNode@tinyxml2@@QAEXXZ
S_PUB32: [0003:00002498], Flags: 00000000, ??_C@_0N@KGCIHMHM@?$DM?P?$LI?P?$LM?P?$LF?P?$LF?Q?$IC?$DO@
S_PUB32: [0005:0000000C], Flags: 00000000, __imp__VirtualQuery@12
S_PUB32: [0002:00015260], Flags: 00000002, ??0XMLConstHandle@tinyxml2@@QAE@PBVXMLNode@1@@Z
S_PUB32: [0003:00005BF0], Flags: 00000000, ??_C@_0BJI@CFFBIEGK@?$DMplaylist?5id?$DN?8playlist1?8?$DO?$DMprope@
S_PUB32: [0003:00000B94], Flags: 00000000, ??_C@_02GHFEHLK@gt@
S_PUB32: [0002:00025620], Flags: 00000002, ??0bad_array_new_length@std@@QAE@XZ
S_PUB32: [0003:00001304], Flags: 00000000, ??_C@_02HCGKDMEN@?1?$DO@
S_PUB32: [0002:000135D0], Flags: 00000002, ?Visit@XMLVisitor@tinyxml2@@UAE_NABVXMLComment@2@@Z
S_PUB32: [0003:0000568C], Flags: 00000000, ??_C@_0BN@EIKFOBGN@Should?5be?5no?5error?5initially@
S_PUB32: [0002:00005F60], Flags: 00000002, ?ClosingType@XMLElement@tinyxml2@@QBE?AW4ElementClosingType@12@XZ
S_PUB32: [0003:00004D88], Flags: 00000000, ??_C@_06MLKDMCBD@parent@
S_PUB32: [0002:00027350], Flags: 00000002, ___scrt_stub_for_initialize_mta
S_PUB32: [0002:00018210], Flags: 00000002, _main
S_PUB32: [0002:00005650], Flags: 00000002, ?BoolText@XMLElement@tinyxml2@@QBE_N_N@Z
S_PUB32: [0003:00006AE8], Flags: 00000000, ??_C@_0EJ@LJKNEOLN@Stack?5area?5around?5_alloca?5memor@
S_PUB32: [0003:00000E48], Flags: 00000000, ??_7XMLVisitor@tinyxml2@@6B@
S_PUB32: [0005:0000004C], Flags: 00000000, __imp__GetCurrentProcess@0
S_PUB32: [0003:00006588], Flags: 00000000, ??_C@_0BF@KINCDENJ@bad?5array?5new?5length@
S_PUB32: [0003:00002A14], Flags: 00000000, ??_C@_0BB@CCCHKLCI@Open?5printer?4xml@
S_PUB32: [0002:0000C3D0], Flags: 00000002, ?PopDepth@XMLDocument@tinyxml2@@AAEXXZ
S_PUB32: [0003:00001E70], Flags: 00000000, ??_C@_03KCMAIMAP@sub@
S_PUB32: [0002:00011F40], Flags: 00000002, ?ToDouble@XMLUtil@tinyxml2@@SA_NPBDPAN@Z
S_PUB32: [0003:00003FEC], Flags: 00000000, ??_C@_0BL@FMIAMMDP@Error?5in?5snprinf?5handling?4@
S_PUB32: [0002:00008DC0], Flags: 00000002, ?HasBOM@XMLDocument@tinyxml2@@QBE_NXZ
S_PUB32: [0003:00001308], Flags: 00000000, ??_C@_02DPNDACHE@?$DM?1@
S_PUB32: [0002:0000AFE0], Flags: 00000002, ?ParseAttributes@XMLElement@tinyxml2@@AAEPADPADPAH@Z
S_PUB32: [0003:000048E8], Flags: 00000000, ??_C@_05HDPIMK@valid@
S_PUB32: [0002:00004450], Flags: 00000002, ??_E?$MemPoolT@$0DM@@tinyxml2@@UAEPAXI@Z
S_PUB32: [0003:00001104], Flags: 00000000, ??_7XMLDocument@tinyxml2@@6B@
S_PUB32: [0002:0000EF70], Flags: 00000002, ?QueryUnsignedAttribute@XMLElement@tinyxml2@@QBE?AW4XMLError@2@PBDPAI@Z
S_PUB32: [0003:00005BD0], Flags: 00000000, ??_C@_0BH@KDAONMOL@Fuzz?5attack?5prevented?4@
S_PUB32: [0002:00011520], Flags: 00000002, ?Size@?$DynArray@PAVXMLNode@tinyxml2@@$09@tinyxml2@@QBEHXZ
S_PUB32: [0004:00000148], Flags: 00000000, ___security_cookie_complement
S_PUB32: [0003:000016B8], Flags: 00000000, ??_C@_0EB@DANGBCCP@?$DMelement?$DOText?5inside?5and?5?$DMb?$DObol@
S_PUB32: [0003:0000594C], Flags: 00000000, ??_C@_0DE@IMOBOCOC@Test?5that?5declaration?5inside?5a?5@
S_PUB32: [0003:00001E74], Flags: 00000000, ??_C@_06CEIPPJF@attrib@
S_PUB32: [0003:00001CD4], Flags: 00000000, ??_C@_09IDFBKOA@Example_2@
S_PUB32: [0003:00003E68], Flags: 00000000, ??_C@_04NBFCGMPH@root@
S_PUB32: [0003:00000D34], Flags: 00000000, ??_C@_0BO@JFKIELCK@XML_ERROR_PARSING_DECLARATION@
S_PUB32: [0003:00003A30], Flags: 00000000, ??_C@_0BP@CIGHKGJM@Declarations?5for?5head?5and?5body@
S_PUB32: [0003:00003770], Flags: 00000000, ??_C@_0BE@FNPJMOFI@Comment?5formatting?4@
S_PUB32: [0002:000179F0], Flags: 00000002, ?__autoclassinit2@XMLConstHandle@tinyxml2@@QAEXI@Z
S_PUB32: [0002:000168A0], Flags: 00000002, ?SetAttribute@XMLElement@tinyxml2@@QAEXPBDM@Z
S_PUB32: [0003:00004CC8], Flags: 00000000, ??_C@_0BG@FFGMDLLC@Whitespace?5?5all?5space@
S_PUB32: [0002:00024D40], Flags: 00000002, __dtoui3
S_PUB32: [0003:00002A28], Flags: 00000000, ??_C@_03GBBIHDEJ@foo@
S_PUB32: [0003:000031E4], Flags: 00000000, ??_C@_0BO@PHKPMALP@Entity?5transformation?3?5Accept@
S_PUB32: [0003:000038D8], Flags: 00000000, ??_C@_0BE@LNMJCBEP@?$DMtest?$DO?$CG?$CDx0e?$DL?$DM?1test?$DO@
S_PUB32: [0002:00024EB0], Flags: 00000002, __dtoul3_legacy
S_PUB32: [0005:000001C0], Flags: 00000000, __imp__wcscpy_s
S_PUB32: [0003:000022F0], Flags: 00000000, ??_C@_0BF@JLLJEPCM@Query?5char?5attribute@
S_PUB32: [0004:00000C68], Flags: 00000000, ___isa_available
S_PUB32: [0003:00001FEC], Flags: 00000000, ??_C@_05MMFIBGEF@Dream@
S_PUB32: [0002:00002370], Flags: 00000002, ??0?$DynArray@PAUBlock@?$MemPoolT@$0DE@@tinyxml2@@$09@tinyxml2@@QAE@XZ
S_PUB32: [0002:00016920], Flags: 00000002, ?SetAttribute@XMLElement@tinyxml2@@QAEXPBDN@Z
S_PUB32: [0005:000000B4], Flags: 00000000, __imp____std_type_info_destroy_list
S_PUB32: [0003:0000141C], Flags: 00000000, ??_C@_0M@BHIPBDOJ@?$DMelement?5?1?$DO@
S_PUB32: [0003:000044F4], Flags: 00000000, ??_C@_08DCELGKMK@BoolText@
S_PUB32: [0003:000064B4], Flags: 00000000, __real@4e6ea831
S_PUB32: [0002:00003460], Flags: 00000002, ??1?$DynArray@PAUBlock@?$MemPoolT@$0DE@@tinyxml2@@$09@tinyxml2@@QAE@XZ
S_PUB32: [0003:00002428], Flags: 00000000, ??_C@_0BH@GIFCGBMN@resources?1utf8test?4xml@
S_PUB32: [0002:00006760], Flags: 00000002, ?DeepCopy@XMLDocument@tinyxml2@@QBEXPAV12@@Z
S_PUB32: [0002:00024B90], Flags: 00000002, __ftoui3
S_PUB32: [0002:00024C80], Flags: 00000002, __ftoul3_legacy
S_PUB32: [0003:00006C98], Flags: 00000000, ??_C@_0CK@FEGOIOPB@Cast?5to?5smaller?5type?5causing?5lo@
S_PUB32: [0003:00004EC8], Flags: 00000000, ??_C@_0BB@JGDJPPJG@Load?5bomtest?4xml@
S_PUB32: [0002:00007360], Flags: 00000002, ?EnsureCapacity@?$DynArray@PAUBlock@?$MemPoolT@$0DE@@tinyxml2@@$09@tinyxml2@@AAEXH@Z
S_PUB32: [0002:000284BD], Flags: 00000002, _GetModuleHandleW@4
S_PUB32: [0003:00002C58], Flags: 00000000, ??_C@_0BN@LNMNFLBP@PushText?$CI?5float?5value?5?$CJ?5test@
S_PUB32: [0002:00002F40], Flags: 00000002, ??0XMLNode@tinyxml2@@IAE@PAVXMLDocument@1@@Z
S_PUB32: [0002:0002830D], Flags: 00000002, _fread
S_PUB32: [0003:00007AA4], Flags: 00000000, ??_R3?$MemPoolT@$0CI@@tinyxml2@@8
S_PUB32: [0003:00007AB8], Flags: 00000000, ??_R2?$MemPoolT@$0CI@@tinyxml2@@8
S_PUB32: [0003:000024D8], Flags: 00000000, ??_C@_0BO@NLDFJKGL@resources?1out?1utf8testout?4xml@
S_PUB32: [0003:00004CE4], Flags: 00000000, ??_C@_0BP@OKIMKKJG@Parse?5with?5self?9closed?5element@
S_PUB32: [0003:00005FE4], Flags: 00000000, ??_C@_0BE@DDBGMGFA@ErrorLine?9Attribute@
S_PUB32: [0003:00001F34], Flags: 00000000, ??_C@_0BL@MKAHMKJP@?4?1resources?1out?1pretty?4xml@
S_PUB32: [0003:00002A34], Flags: 00000000, ??_C@_0M@CBHFMCKH@attrib?9text@
S_PUB32: [0002:0000DB60], Flags: 00000002, ?PushText@XMLPrinter@tinyxml2@@QAEXH@Z
S_PUB32: [0001:00000000], Flags: 00000000, __enc$textbss$begin
S_PUB32: [0002:00004530], Flags: 00000002, ??_GXMLAttribute@tinyxml2@@EAEPAXI@Z
S_PUB32: [0002:00024FD0], Flags: 00000002, __ultod3
S_PUB32: [0003:00006DA0], Flags: 00000000, ??_C@_1EI@MLPKHBGE@?$AAa?$AAp?$AAi?$AA?9?$AAm?$AAs?$AA?9?$AAw?$AAi?$AAn?$AA?9?$AAc?$AAo?$AAr?$AAe@
S_PUB32: [0003:000064D0], Flags: 00000000, ??_7type_info@@6B@
S_PUB32: [0002:00011940], Flags: 00000002, ?ToBool@XMLUtil@tinyxml2@@SA_NPBDPA_N@Z
S_PUB32: [0002:00006CE0], Flags: 00000002, ?DoubleAttribute@XMLElement@tinyxml2@@QBENPBDN@Z
S_PUB32: [0003:00002DC0], Flags: 00000000, ??_C@_0N@MEEMONHG@CDATA?5parse?4@
S_PUB32: [0003:0000598C], Flags: 00000000, ??_C@_0DL@NIGFFFDL@?$DM?$DPxml?5version?$DN?$CC1?40?$CC?5encoding?$DN?$CCu@
S_PUB32: [0003:000012BC], Flags: 00000000, ??_C@_0BN@IABAEAMP@Element?5nesting?5is?5too?5deep?4@
S_PUB32: [0003:00007854], Flags: 00000000, ??_R4XMLDeclaration@tinyxml2@@6B@
S_PUB32: [0002:000240A0], Flags: 00000002, @_RTC_CheckStackVars2@12
S_PUB32: [0003:0000446C], Flags: 00000000, ??_C@_0N@ICNACIL@UnsignedText@
S_PUB32: [0002:000044C0], Flags: 00000002, ??_GMemPool@tinyxml2@@UAEPAXI@Z
S_PUB32: [0003:00000BF8], Flags: 00000000, ??_C@_0BB@IGIENDAL@XML_NO_ATTRIBUTE@
S_PUB32: [0003:00001F54], Flags: 00000000, ??_C@_0BA@EPBHINFJ@Save?5pretty?4xml@
S_PUB32: [0004:00000160], Flags: 00000000, ?_RTC_ErrorLevels@@3PAHA
S_PUB32: [0002:00028493], Flags: 00000002, _RaiseException@16
S_PUB32: [0002:0000D3B0], Flags: 00000002, ?PushAttribute@XMLPrinter@tinyxml2@@QAEXPBDH@Z
S_PUB32: [0002:000282DD], Flags: 00000002, _isdigit
S_PUB32: [0003:00006490], Flags: 00000000, __real@41cdd50620000000
S_PUB32: [0002:000283F1], Flags: 00000002, __c_exit
S_PUB32: [0002:00024A70], Flags: 00000002, __ftoul2
S_PUB32: [0002:0000BC60], Flags: 00000002, ?ParseDeep@XMLText@tinyxml2@@MAEPADPADPAVStrPair@2@PAH@Z
S_PUB32: [0002:000247C0], Flags: 00000002, __alloca_probe
S_PUB32: [0003:0000483C], Flags: 00000000, ??_C@_0N@LKHDPBLF@QueryIntText@
S_PUB32: [0003:00002B54], Flags: 00000000, ??_C@_05KNFBNCOH@float@
S_PUB32: [0003:00008230], Flags: 00000000, ___rtc_izz
S_PUB32: [0003:000063C0], Flags: 00000000, __real@3f99999a
S_PUB32: [0004:00000608], Flags: 00000000, ??_R0?AV?$MemPoolT@$0CI@@tinyxml2@@@8
S_PUB32: [0002:000258B0], Flags: 00000002, ??3@YAXPAX@Z
S_PUB32: [0003:00001A58], Flags: 00000000, ??_C@_0BE@MGFIECLE@resources?1dream?4xml@
S_PUB32: [000A:00000000], Flags: 00000000, ___volatile_metadata
S_PUB32: [0002:00008070], Flags: 00000002, ?FloatText@XMLElement@tinyxml2@@QBEMM@Z
S_PUB32: [0003:00005488], Flags: 00000000, ??_C@_09PEOLFFLD@attrD?9f64@
S_PUB32: [0003:00000CB8], Flags: 00000000, ??_C@_0BM@LDAFAPCN@XML_ERROR_PARSING_ATTRIBUTE@
S_PUB32: [0003:00008FFC], Flags: 00000000, __CTA2?AVbad_alloc@std@@
S_PUB32: [0002:000099E0], Flags: 00000002, ?Int64Text@XMLElement@tinyxml2@@QBE_J_J@Z
S_PUB32: [0002:000074A0], Flags: 00000002, ?EnsureCapacity@?$DynArray@PAUBlock@?$MemPoolT@$0DI@@tinyxml2@@$09@tinyxml2@@AAEXH@Z
S_PUB32: [0003:00001E00], Flags: 00000000, ??_C@_0M@JJALGHEH@lastElement@
S_PUB32: [0003:000014A4], Flags: 00000000, ??_C@_0DG@CDENAKDB@?$DMelement?$DO?$DMsubelement?$DO?$DMsubsub?1?$DO?$DM@
S_PUB32: [0003:00007CE4], Flags: 00000000, ??_R1A@?0A@EA@bad_alloc@std@@8
S_PUB32: [0005:000001B0], Flags: 00000000, __imp___controlfp_s
S_PUB32: [0002:00004370], Flags: 00000002, ??_E?$MemPoolT@$0DE@@tinyxml2@@UAEPAXI@Z
S_PUB32: [0003:00001668], Flags: 00000000, ??_C@_0CI@BKBLGPAN@?$DMelement?$DOText?5inside?5element?4?$DM?1@
S_PUB32: [0002:00005140], Flags: 00000002, ?Alloc@?$MemPoolT@$0DI@@tinyxml2@@UAEPAXXZ
S_PUB32: [0002:00004DA0], Flags: 00000002, ?Alloc@?$MemPoolT@$0CI@@tinyxml2@@UAEPAXXZ
S_PUB32: [0003:00004058], Flags: 00000000, ??_C@_07GNBHHLEF@attrib2@
S_PUB32: [0003:00004374], Flags: 00000000, ??_C@_0P@BCNOFDDB@Ill?5formed?5XML@
S_PUB32: [0005:00000010], Flags: 00000000, __imp__GetProcessHeap@0
S_PUB32: [0003:00005F04], Flags: 00000000, ??_C@_0BD@DPDDLPNO@?6?$DMroot?$DO?6?5foo?5bar?5?6@
S_PUB32: [0002:00010F00], Flags: 00000002, ?ShallowClone@XMLUnknown@tinyxml2@@UBEPAVXMLNode@2@PAVXMLDocument@2@@Z
S_PUB32: [0003:00001224], Flags: 00000000, ??_C@_01PPODPGHN@?$DO@
S_PUB32: [0002:0000AA90], Flags: 00000002, ?NextSibling@XMLNode@tinyxml2@@QBEPBV12@XZ
S_PUB32: [0003:00004A48], Flags: 00000000, ??_C@_0CI@FIBMGFCP@?$DMelement?1?$DOWOA?5THIS?5ISN?8T?5GOING?5@
S_PUB32: [0002:000047D0], Flags: 00000002, ??_EXMLPrinter@tinyxml2@@UAEPAXI@Z
S_PUB32: [0002:00013750], Flags: 00000002, ?VisitEnter@XMLPrinter@tinyxml2@@UAE_NABVXMLDocument@2@@Z
S_PUB32: [0003:00006340], Flags: 00000000, ??_C@_0CN@JDGCOJFC@?6Parsing?5dream?4xml?5?$CI?$CFs?$CJ?3?5?$CF?43f?5m@
S_PUB32: [0002:00028289], Flags: 00000002, _memset
S_PUB32: [0002:00025790], Flags: 00000002, ??_Ebad_array_new_length@std@@UAEPAXI@Z
S_PUB32: [0003:00001D44], Flags: 00000000, ??_C@_0BI@IKAFNIBK@Hello?5world?5declaration@
S_PUB32: [0004:00000294], Flags: 00000000, ??_R0?AVbad_alloc@std@@@8
S_PUB32: [0003:00002B34], Flags: 00000000, ??_C@_07GDNIBEMG@int64_t@
S_PUB32: [0003:00000BB0], Flags: 00000000, ??_C@_04HCDDPBNL@TRUE@
S_PUB32: [0003:00002560], Flags: 00000000, ??_C@_0BP@EOELFJAM@UTF?98?3?5Open?5utf8testverify?4xml@
S_PUB32: [0003:0000491C], Flags: 00000000, ??_C@_0DG@KHOIEEBA@?$DMelement?$DO?$DM_sub?1?$DO?$DM?3sub?1?$DO?$DMsub?3sub@
S_PUB32: [0003:0000786C], Flags: 00000000, ??_R3XMLDeclaration@tinyxml2@@8
S_PUB32: [0003:00007880], Flags: 00000000, ??_R2XMLDeclaration@tinyxml2@@8
S_PUB32: [0002:0000AA30], Flags: 00000002, ?Next@XMLAttribute@tinyxml2@@QBEPBV12@XZ
S_PUB32: [0003:00004F80], Flags: 00000000, ??_C@_0HC@IOIHEOFF@?$DM?$DPxml?5version?$DN?$CC1?40?$CC?5?$DP?$DO?$DMroot?$DO?$DMon@
S_PUB32: [0002:00026150], Flags: 00000002, __RTC_NumErrors
S_PUB32: [0003:00004230], Flags: 00000000, ??_C@_0CI@LLJEALFG@Handle?0?5non?9const?0?5element?5name@
S_PUB32: [0003:00002668], Flags: 00000000, ??_C@_0BF@LPNBJMP@Bold?5text?5simulation@
S_PUB32: [0003:00003C24], Flags: 00000000, ??_C@_0P@DICPCCME@?$DMinfinite?$DOloop@
S_PUB32: [0005:000001B8], Flags: 00000000, __imp___wmakepath_s
S_PUB32: [0003:00006040], Flags: 00000000, ??_C@_0CF@ODPPDNLK@D01L01E02A02A03T03E03T04E05T05C@
S_PUB32: [0003:00005554], Flags: 00000000, ??_C@_0BP@NOPIELMO@Node?5document?5before?5insertion@
S_PUB32: [0002:00026CA0], Flags: 00000002, __onexit
S_PUB32: [0002:0000F440], Flags: 00000002, ?SaveFile@XMLDocument@tinyxml2@@QAE?AW4XMLError@2@PBD_N@Z
S_PUB32: [0002:000247C0], Flags: 00000002, __chkstk
S_PUB32: [0003:0000276C], Flags: 00000000, ??_C@_0CF@LAEHCCKM@SetText?$CI?$CJ?5normal?5use?4?5?$CIself?9clo@
S_PUB32: [0003:00003AB8], Flags: 00000000, ??_C@_0GI@CMIIHJDO@?$DMParent?$DO?$DMchild1?5att?$DN?8?8?1?$DO?$DM?$CB?9?9?5Wi@
S_PUB32: [0003:0000775C], Flags: 00000000, ??_R3XMLAttribute@tinyxml2@@8
S_PUB32: [0003:0000484C], Flags: 00000000, ??_C@_0BJ@CNPDAAPF@QueryUnsignedText?5result@
S_PUB32: [0003:00007770], Flags: 00000000, ??_R2XMLAttribute@tinyxml2@@8
S_PUB32: [0003:00006470], Flags: 00000000, __real@419d6f34547e6b75
S_PUB32: [0003:00005EB4], Flags: 00000000, ??_C@_0BD@KFHALIIJ@ErrorLine?9Mismatch@
S_PUB32: [0002:000137E0], Flags: 00000002, ?VisitEnter@XMLPrinter@tinyxml2@@UAE_NABVXMLElement@2@PBVXMLAttribute@2@@Z
S_PUB32: [0003:00001708], Flags: 00000000, ??_C@_0FA@BBOBGLEN@?$DMouter?$DO?$DMelement?$DOText?5inside?5and@
S_PUB32: [0003:00007B14], Flags: 00000000, ??_R2?$MemPoolT@$0DI@@tinyxml2@@8
S_PUB32: [0003:00007B00], Flags: 00000000, ??_R3?$MemPoolT@$0DI@@tinyxml2@@8
S_PUB32: [0003:00005140], Flags: 00000000, ??_C@_03OHDNLOHO@one@
S_PUB32: [0002:000075E0], Flags: 00000002, ?EnsureCapacity@?$DynArray@PAUBlock@?$MemPoolT@$0DM@@tinyxml2@@$09@tinyxml2@@AAEXH@Z
S_PUB32: [0002:000248C0], Flags: 00000002, __ftoui2
S_PUB32: [0002:00024B60], Flags: 00000002, __ftoul2_legacy
S_PUB32: [0002:00012D60], Flags: 00000002, ?Unlink@XMLNode@tinyxml2@@AAEXPAV12@@Z
S_PUB32: [0003:00004A10], Flags: 00000000, ??_C@_0CN@MHFPJKIO@Element?5names?5with?5lead?5digit?5f@
S_PUB32: [0003:000023D0], Flags: 00000000, ??_C@_0BL@CEGNIGNP@Attribute?5round?5trip?4?5int?4@
S_PUB32: [0002:00024340], Flags: 00000002, ??1type_info@@UAE@XZ
S_PUB32: [0002:00003ED0], Flags: 00000002, ??1XMLNode@tinyxml2@@MAE@XZ
S_PUB32: [0003:00002340], Flags: 00000000, ??_C@_0BM@BGILPDJI@Query?5int?5attribute?5generic@
S_PUB32: [0005:000000BC], Flags: 00000000, __imp____current_exception_context
S_PUB32: [0003:00002CC4], Flags: 00000000, ??_C@_0BD@PMAINJAA@PushComment?$CI?$CJ?5test@
S_PUB32: [0003:00002A2C], Flags: 00000000, ??_C@_04CIMGMMMG@text@
S_PUB32: [0002:0000F680], Flags: 00000002, ?SetAttribute@XMLAttribute@tinyxml2@@QAEXH@Z
S_PUB32: [0002:000043E0], Flags: 00000002, ??_G?$MemPoolT@$0DI@@tinyxml2@@UAEPAXI@Z
S_PUB32: [0005:000000D0], Flags: 00000000, __imp___purecall
S_PUB32: [0002:00002AC0], Flags: 00000002, ??0StrPair@tinyxml2@@QAE@XZ
S_PUB32: [0003:00005FFC], Flags: 00000000, ??_C@_0BP@LHLIFCEF@?6?$DMroot?$DO?6?$DMunclosed?5?6?1unexpected@
S_PUB32: [0003:00005848], Flags: 00000000, ??_C@_0DI@HHFLJJBL@Test?5that?5the?5code?5changes?5do?5n@
S_PUB32: [0003:000024FC], Flags: 00000000, ??_C@_0BI@MFHFDAAP@UTF?98?3?5Save?5testout?4xml@
S_PUB32: [0003:00000ED0], Flags: 00000000, ??_7XMLText@tinyxml2@@6B@
S_PUB32: [0002:00003AE0], Flags: 00000002, ??1StrPair@tinyxml2@@QAE@XZ
S_PUB32: [0003:00006564], Flags: 00000000, ??_C@_0P@GHFPNOJB@bad?5allocation@
S_PUB32: [0002:0000BE90], Flags: 00000002, ?ParseName@StrPair@tinyxml2@@QAEPADPAD@Z
S_PUB32: [0002:00017930], Flags: 00000002, ?XMLTest@@YA_NPBD_N111@Z
S_PUB32: [0002:00004B90], Flags: 00000002, ?Accept@XMLElement@tinyxml2@@UBE_NPAVXMLVisitor@2@@Z
S_PUB32: [0002:00007CB0], Flags: 00000002, ?FindOrCreateAttribute@XMLElement@tinyxml2@@AAEPAVXMLAttribute@2@PBD@Z
S_PUB32: [0003:00007924], Flags: 00000000, ??_R3XMLPrinter@tinyxml2@@8
S_PUB32: [0003:00007938], Flags: 00000000, ??_R2XMLPrinter@tinyxml2@@8
S_PUB32: [0003:00002ED0], Flags: 00000000, ??_C@_06EBOPLIP@Parent@
S_PUB32: [0002:00025470], Flags: 00000002, ?configure_argv@__scrt_narrow_argv_policy@@SAHXZ
S_PUB32: [0003:0000130C], Flags: 00000000, ??_C@_0L@KBEJNDBI@?$DMelement?1?$DO@
S_PUB32: [0003:00002A44], Flags: 00000000, ??_C@_0L@JEMNIILO@attrib?9int@
S_PUB32: [0002:0000FE60], Flags: 00000002, ?SetCData@XMLText@tinyxml2@@QAEX_N@Z
S_PUB32: [0002:00027210], Flags: 00000002, ___scrt_get_show_window_mode
S_PUB32: [0003:00005350], Flags: 00000000, ??_C@_0DI@HAIDNGPC@?$DMsvg?5width?5?$DN?5?$CC128?$CC?5height?5?$DN?5?$CC12@
S_PUB32: [0003:00003CE8], Flags: 00000000, ??_C@_0GA@HADGFGOF@?$DMroot?$DO?5?5?5?5?$DMchild1?5foo?$DN?8bar?8?1?$DO?5?5@
S_PUB32: [0002:000274F0], Flags: 00000002, @_guard_check_icall_nop@4
S_PUB32: [0003:0000121C], Flags: 00000000, ??_C@_03PNLDJJMO@?9?9?$DO@
S_PUB32: [0002:00006E60], Flags: 00000002, ?Empty@?$DynArray@PAUBlock@?$MemPoolT@$0CI@@tinyxml2@@$09@tinyxml2@@QBE_NXZ
S_PUB32: [0003:00006480], Flags: 00000000, __real@41cdcd6500000000
S_PUB32: [0003:00002F68], Flags: 00000000, ??_C@_0BAH@KKKMGCGH@?$DM?$DPxml?5version?$DN?$CC1?40?$CC?5standalone?$DN@
S_PUB32: [0003:00006988], Flags: 00000000, ??_C@_1GM@CNOOJIHC@?$AAR?$AAu?$AAn?$AAt?$AAi?$AAm?$AAe?$AA?5?$AAC?$AAh?$AAe?$AAc?$AAk?$AA?5?$AAE@
S_PUB32: [0003:00002928], Flags: 00000000, ??_C@_03GNABGMEE@100@
S_PUB32: [0003:00003804], Flags: 00000000, ??_C@_0BM@JADGBJGB@Embedded?5null?5throws?5error?4@
S_PUB32: [0002:00006F60], Flags: 00000002, ?Empty@?$DynArray@PAUBlock@?$MemPoolT@$0DI@@tinyxml2@@$09@tinyxml2@@QBE_NXZ
S_PUB32: [0002:0000EC20], Flags: 00000002, ?QueryIntText@XMLElement@tinyxml2@@QBE?AW4XMLError@2@PAH@Z
S_PUB32: [0002:000284A5], Flags: 00000002, _GetCurrentProcessId@0
S_PUB32: [0003:00004678], Flags: 00000000, ??_C@_0JP@HHIGLDHO@?$DMplaylist?5id?5?$DN?5?8playlist?8?$DO?$DMprop@
S_PUB32: [0003:000039BC], Flags: 00000000, ??_C@_07CPCNDMHI@?$DMx?$DO?$DM?1y?$DO@
S_PUB32: [0003:00005E18], Flags: 00000000, ??_C@_08EMBNBNLN@property@
S_PUB32: [0002:00007FB0], Flags: 00000002, ?FloatAttribute@XMLElement@tinyxml2@@QBEMPBDM@Z
S_PUB32: [0002:0000E460], Flags: 00000002, ?QueryBoolText@XMLElement@tinyxml2@@QBE?AW4XMLError@2@PA_N@Z
S_PUB32: [0002:000282D1], Flags: 00000002, ___vcrt_LoadLibraryExW
S_PUB32: [0003:00005B7C], Flags: 00000000, ??_C@_0BK@KLCAEIJG@Stack?5overflow?5prevented?4@
S_PUB32: [0002:0002833D], Flags: 00000002, _strlen
S_PUB32: [0003:00000D58], Flags: 00000000, ??_C@_0BK@OFBGHHPE@XML_ERROR_PARSING_UNKNOWN@
S_PUB32: [0003:00002D84], Flags: 00000000, ??_C@_0DA@BKAEPNI@I?5am?5?$DO?5the?5rules?$CB?6?4?4?4since?5I?5ma@
S_PUB32: [0002:00010C30], Flags: 00000002, ?ShallowClone@XMLComment@tinyxml2@@UBEPAVXMLNode@2@PAVXMLDocument@2@@Z
S_PUB32: [0002:000283A9], Flags: 00000002, __set_app_type
S_PUB32: [0003:00003910], Flags: 00000000, ??_C@_0BH@JIACOPCA@?$DMfoo?5attribute?$DNbar?$CC?5?1?$DO@
S_PUB32: [0002:000032C0], Flags: 00000002, ??0XMLUnknown@tinyxml2@@IAE@PAVXMLDocument@1@@Z
S_PUB32: [0003:00001BBC], Flags: 00000000, ??_C@_01KDCPPGHE@r@
S_PUB32: [0002:0000E7B0], Flags: 00000002, ?QueryFloatAttribute@XMLElement@tinyxml2@@QBE?AW4XMLError@2@PBDPAM@Z
S_PUB32: [0002:00025B10], Flags: 00000002, ?_RTC_StackFailure@@YAXPAXPBD@Z
S_PUB32: [0002:00004450], Flags: 00000002, ??_G?$MemPoolT@$0DM@@tinyxml2@@UAEPAXI@Z
S_PUB32: [0003:00006C78], Flags: 00000000, ??_C@_0BJ@HEGAHDFO@Stack?5pointer?5corruption@
S_PUB32: [0002:0000CEB0], Flags: 00000002, ?Push@?$DynArray@PAUBlock@?$MemPoolT@$0DE@@tinyxml2@@$09@tinyxml2@@QAEXPAUBlock@?$MemPoolT@$0DE@@2@@Z
S_PUB32: [0002:000024F0], Flags: 00000002, ??0?$DynArray@PAVXMLNode@tinyxml2@@$09@tinyxml2@@QAE@XZ
S_PUB32: [0002:0000E300], Flags: 00000002, ?Putc@XMLPrinter@tinyxml2@@MAEXD@Z
S_PUB32: [0002:0000A930], Flags: 00000002, ?NewText@XMLDocument@tinyxml2@@QAEPAVXMLText@2@PBD@Z
S_PUB32: [0002:00027030], Flags: 00000002, ___scrt_is_user_matherr_present
S_PUB32: [0002:00016020], Flags: 00000002, ?NextSibling@XMLNode@tinyxml2@@QAEPAV12@XZ
S_PUB32: [0003:00000BE4], Flags: 00000000, ??_C@_01MNNFJEPP@?$DM@
S_PUB32: [0003:00001608], Flags: 00000000, ??_C@_0FA@DKBLPPJB@?$DMelement?5attrib1?$DN?8foo?8?5attrib2?$DN@
S_PUB32: [0004:0000043C], Flags: 00000000, ??_R0?AVXMLNode@tinyxml2@@@8
S_PUB32: [0003:00004D0C], Flags: 00000000, ??_C@_06OJAIHGIC@unused@
S_PUB32: [0003:00003248], Flags: 00000000, ??_C@_0JO@DGGKOKBD@?$DMpsg?5context?$DN?$CCLine?55?5has?5?$CGquot?$DL@
S_PUB32: [0003:00002B40], Flags: 00000000, ??_C@_08FKMHFJJL@uint64_t@
S_PUB32: [0003:000011B0], Flags: 00000000, ??_C@_04HANFDJND@?$CF?48g@
S_PUB32: [0002:000063D0], Flags: 00000002, ?CreateAttribute@XMLElement@tinyxml2@@AAEPAVXMLAttribute@2@XZ
S_PUB32: [0003:00001DC0], Flags: 00000000, ??_C@_0N@OMALDHPD@firstElement@
S_PUB32: [0003:00001F24], Flags: 00000000, ??_C@_0N@JIEHICMA@Compact?5mode@
S_PUB32: [0002:000035E0], Flags: 00000002, ??1?$DynArray@PAVXMLNode@tinyxml2@@$09@tinyxml2@@QAE@XZ
S_PUB32: [0003:00000B88], Flags: 00000000, ??_C@_04LBCJFAKL@apos@
S_PUB32: [0002:000267A0], Flags: 00000002, ___scrt_dllmain_after_initialize_c
S_PUB32: [0002:000283D9], Flags: 00000002, __set_fmode
S_PUB32: [0002:00012240], Flags: 00000002, ?ToInt64@XMLUtil@tinyxml2@@SA_NPBDPA_J@Z
S_PUB32: [0002:00009350], Flags: 00000002, ?InsertEndChild@XMLNode@tinyxml2@@QAEPAV12@PAV12@@Z
S_PUB32: [0003:0000790C], Flags: 00000000, ??_R4XMLPrinter@tinyxml2@@6B@
S_PUB32: [0002:00007720], Flags: 00000002, ?EnsureCapacity@?$DynArray@PAVXMLNode@tinyxml2@@$09@tinyxml2@@AAEXH@Z
S_PUB32: [0003:00004B24], Flags: 00000000, ??_C@_0BD@GJIBMDHE@No?5error?5initially@
S_PUB32: [0003:00000DF4], Flags: 00000000, ??_C@_0BB@PLDKPHOM@XML_NO_TEXT_NODE@
S_PUB32: [0002:00002270], Flags: 00000002, ??0?$DynArray@D$0BE@@tinyxml2@@QAE@XZ
S_PUB32: [0003:00005284], Flags: 00000000, ??_C@_0DD@CDLMPJPA@Move?5node?5from?5within?5?$DMone?$DO?5aft@
S_PUB32: [0002:00028361], Flags: 00000002, _clock
S_PUB32: [0003:000028D8], Flags: 00000000, ??_C@_06ODACHPEO@failed@
S_PUB32: [0005:0000020C], Flags: 00000000, __imp__ferror
S_PUB32: [0003:00001DE0], Flags: 00000000, ??_C@_0BL@LNHKGDJJ@New?5element?5inserted?5first@
S_PUB32: [0002:000282BF], Flags: 00000002, __except_handler4_common
S_PUB32: [0003:00003EB8], Flags: 00000000, ??_C@_0JB@NOPEGLAA@?$DM?$DPxml?5version?5?$DN?81?40?8?$DP?$DO?$DM?$CB?9?9?5Top?5@
S_PUB32: [0002:00028385], Flags: 00000002, __callnewh
S_PUB32: [0005:00000140], Flags: 00000000, __imp___seh_filter_exe
S_PUB32: [0003:000045F8], Flags: 00000000, ??_C@_0FE@EJNFEBKF@?$DMplaylist?5id?5?$DN?5?8playlist?8?$DO?$DMprop@
S_PUB32: [0002:0000A720], Flags: 00000002, ?Name@XMLElement@tinyxml2@@QBEPBDXZ
S_PUB32: [0003:000049C4], Flags: 00000000, ??_C@_0CL@EMHFCFPM@Non?9alpha?5attribute?5lead?5charac@
S_PUB32: [0002:000169A0], Flags: 00000002, ?SetAttribute@XMLElement@tinyxml2@@QAEXPBD_J@Z
S_PUB32: [0003:000029DC], Flags: 00000000, ??_C@_0BC@MAMIFGLH@Element?3?5uint64_t@
S_PUB32: [0002:000283C7], Flags: 00000002, __initterm
S_PUB32: [0002:00003360], Flags: 00000002, ??1?$DynArray@D$0BE@@tinyxml2@@QAE@XZ
S_PUB32: [0005:000000A0], Flags: 00000000, __imp__strchr
S_PUB32: [0003:0000103C], Flags: 00000000, ??_7XMLElement@tinyxml2@@6B@
S_PUB32: [0002:000113D0], Flags: 00000002, ?ShallowEqual@XMLUnknown@tinyxml2@@UBE_NPBVXMLNode@2@@Z
S_PUB32: [0002:00002A60], Flags: 00000002, ??0MemPool@tinyxml2@@QAE@XZ
S_PUB32: [0005:000001D4], Flags: 00000000, __imp__isalpha
S_PUB32: [0004:0000087C], Flags: 00000000, ?gPass@@3HA
S_PUB32: [0002:0000F760], Flags: 00000002, ?SetAttribute@XMLAttribute@tinyxml2@@QAEXI@Z
S_PUB32: [0002:00005FC0], Flags: 00000002, ?CollapseWhitespace@StrPair@tinyxml2@@AAEXXZ
S_PUB32: [0002:00012C60], Flags: 00000002, ?TransferTo@StrPair@tinyxml2@@QAEXPAV12@@Z
S_PUB32: [0004:00000C6C], Flags: 00000000, ___favor
S_PUB32: [0004:000006D0], Flags: 00000000, ??_R0?AVtype_info@@@8
S_PUB32: [0002:00026C20], Flags: 00000002, ___scrt_release_startup_lock
S_PUB32: [0003:00001200], Flags: 00000000, ??_C@_0BD@BLOEEMNC@XMLElement?5name?$DN?$CFs@
S_PUB32: [0003:000022E8], Flags: 00000000, ??_C@_06BNJCAIGJ@double@
S_PUB32: [0002:00024540], Flags: 00000002, ___report_securityfailure
S_PUB32: [0003:000038F0], Flags: 00000000, ??_C@_0L@HLANKKOE@Hex?5values@
S_PUB32: [0003:00002518], Flags: 00000000, ??_C@_0BM@KFDPPCKJ@UTF?98?3?5Open?5utf8testout?4xml@
S_PUB32: [0002:0000CE00], Flags: 00000002, ?Push@?$DynArray@PAUBlock@?$MemPoolT@$0CI@@tinyxml2@@$09@tinyxml2@@QAEXPAUBlock@?$MemPoolT@$0CI@@2@@Z
S_PUB32: [0002:0000CF60], Flags: 00000002, ?Push@?$DynArray@PAUBlock@?$MemPoolT@$0DI@@tinyxml2@@$09@tinyxml2@@QAEXPAUBlock@?$MemPoolT@$0DI@@2@@Z
S_PUB32: [0002:000130E0], Flags: 00000002, ?UnsignedText@XMLElement@tinyxml2@@QBEII@Z
S_PUB32: [000A:00000000], Flags: 00000000, ___guard_fids_table
S_PUB32: [0002:00013470], Flags: 00000002, ?Visit@XMLPrinter@tinyxml2@@UAE_NABVXMLDeclaration@2@@Z
S_PUB32: [0002:00008E20], Flags: 00000002, ?Identify@XMLDocument@tinyxml2@@QAEPADPADPAPAVXMLNode@2@@Z
S_PUB32: [0002:000161D0], Flags: 00000002, ?Push@?$DynArray@D$09@tinyxml2@@QAEXD@Z
S_PUB32: [0003:000035A0], Flags: 00000000, ??_C@_0CF@PDDEMPDP@1?41?5Start?5easy?5ignore?5fin?5thick@
S_PUB32: [0002:00004530], Flags: 00000002, ??_EXMLAttribute@tinyxml2@@EAEPAXI@Z
S_PUB32: [0002:000284B7], Flags: 00000002, _GetStartupInfoW@4
S_PUB32: [0002:000284C9], Flags: 00000002, _HeapAlloc@12
S_PUB32: [0003:000058C0], Flags: 00000000, ??_C@_0DN@CKOFBIEP@Test?5that?5declaration?5after?5sel@
S_PUB32: [0003:00006C20], Flags: 00000000, ??_C@_0DE@OHJBPMBP@A?5variable?5is?5being?5used?5withou@
S_PUB32: [0002:0000B4C0], Flags: 00000002, ?ParseDeep@XMLDeclaration@tinyxml2@@MAEPADPADPAVStrPair@2@PAH@Z
S_PUB32: [0003:00007678], Flags: 00000000, ??_R2XMLDocument@tinyxml2@@8
S_PUB32: [0003:00007664], Flags: 00000000, ??_R3XMLDocument@tinyxml2@@8
S_PUB32: [0003:00002734], Flags: 00000000, ??_C@_06NJAOBOIJ@?$DMfoo?1?$DO@
S_PUB32: [0003:00005A90], Flags: 00000000, ??_C@_0EB@BKKMHDCI@?$DM?$CBDOCTYPE?5html?$DO?$DMhtml?$DO?$DMbody?$DO?$DMp?$DOt@
S_PUB32: [0004:00000508], Flags: 00000000, ??_R0?AVXMLDeclaration@tinyxml2@@@8
S_PUB32: [0003:00005FAC], Flags: 00000000, ??_C@_0BC@PGGGOLLO@ErrorLine?9Element@
S_PUB32: [0003:0000543C], Flags: 00000000, ??_C@_0CA@OJAFFNID@Parse?5self?9closed?5empty?5element@
S_PUB32: [0002:00028403], Flags: 00000002, __set_new_mode
S_PUB32: [0002:000044C0], Flags: 00000002, ??_EMemPool@tinyxml2@@UAEPAXI@Z
S_PUB32: [0003:000041C0], Flags: 00000000, ??_C@_0DI@NEBJDFIB@Handle?0?5parse?5element?5with?5attr@
S_PUB32: [0003:00007A8C], Flags: 00000000, ??_R4?$MemPoolT@$0CI@@tinyxml2@@6B@
S_PUB32: [0003:00007D08], Flags: 00000000, ??_R4bad_array_new_length@std@@6B@
S_PUB32: [000A:00000000], Flags: 00000000, ___guard_longjmp_count
S_PUB32: [0003:000010B0], Flags: 00000000, ??_7?$MemPoolT@$0CI@@tinyxml2@@6B@
S_PUB32: [0002:0002841B], Flags: 00000002, _strcat_s
S_PUB32: [0002:00011770], Flags: 00000002, ?SwapRemove@?$DynArray@PAVXMLNode@tinyxml2@@$09@tinyxml2@@QAEXH@Z
S_PUB32: [0003:00001A9C], Flags: 00000000, ??_C@_0BG@JACNOAFK@Name?5of?5play?5?$CI2?$CJ?3?5?$CFs?6@
S_PUB32: [0003:00001218], Flags: 00000000, ??_C@_03MCHNFBAC@?$FN?$FN?$DO@
S_PUB32: [0003:00003DA8], Flags: 00000000, ??_C@_0HG@CHMJCMDJ@?$DM?$DPxml?5version?5?$DN?81?40?8?$DP?$DO?$DMroot?$DO?5?5?5@
S_PUB32: [0002:000284B1], Flags: 00000002, _InitializeSListHead@4
S_PUB32: [0005:00000044], Flags: 00000000, __imp__IsProcessorFeaturePresent@4
S_PUB32: [0002:000254F0], Flags: 00000002, ?set_app_type@__scrt_main_policy@@SAXXZ
S_PUB32: [0003:00002F34], Flags: 00000000, ??_C@_0CG@MLGHGPCL@Test?5InsertAfterChild?5on?5empty?5@
S_PUB32: [0003:00002598], Flags: 00000000, ??_C@_0M@DCMPPKDG@saved?5?3?$CFs?$DM?6@
S_PUB32: [0003:000022D4], Flags: 00000000, ??_C@_08MGPAICNM@strValue@
S_PUB32: [0004:0000017C], Flags: 00000000, ___scrt_native_dllmain_reason
S_PUB32: [0003:00002EE8], Flags: 00000000, ??_C@_0L@GKOAONMC@childText1@
S_PUB32: [0003:00002B5C], Flags: 00000000, ??_C@_04EOMNPHNH@1?456@
S_PUB32: [0005:000000A4], Flags: 00000000, __imp____CxxFrameHandler3
S_PUB32: [0005:000001FC], Flags: 00000000, __imp__fseek
S_PUB32: [0003:00002044], Flags: 00000000, ??_C@_0BC@NDFMOCKL@Load?5dreamout?4xml@
S_PUB32: [0005:00000170], Flags: 00000000, __imp__fopen
S_PUB32: [0002:00026C50], Flags: 00000002, ___scrt_uninitialize_crt
S_PUB32: [0005:00000214], Flags: 00000000, __imp__fclose
S_PUB32: [0003:0000788C], Flags: 00000000, ??_R1A@?0A@EA@XMLDeclaration@tinyxml2@@8
S_PUB32: [0003:00005A2C], Flags: 00000000, ??_C@_0CI@NNBHMAC@ErrorName?$CI?$CJ?5not?5null?5after?5Clea@
S_PUB32: [0003:00006070], Flags: 00000000, ??_C@_0JG@LKDEOAOC@?$DM?$DPxml?5version?$DN?$CC1?40?$CC?$DP?$DO?6?$DMroot?5a?$DN?8@
S_PUB32: [0003:00007C30], Flags: 00000000, ??_R1A@?0A@EA@type_info@@8
S_PUB32: [0005:00000054], Flags: 00000000, __imp__UnhandledExceptionFilter@4
S_PUB32: [0005:00000154], Flags: 00000000, __imp___get_initial_narrow_environment
S_PUB32: [0002:00028337], Flags: 00000002, ___stdio_common_vsscanf
S_PUB32: [0002:00004370], Flags: 00000002, ??_G?$MemPoolT@$0DE@@tinyxml2@@UAEPAXI@Z
S_PUB32: [000A:00000000], Flags: 00000000, ___guard_longjmp_table
S_PUB32: [0003:00008FE8], Flags: 00000000, __TI2?AVbad_alloc@std@@
S_PUB32: [0001:00013BE2], Flags: 00000000, __enc$textbss$end
S_PUB32: [0002:00024990], Flags: 00000002, __ftol2
S_PUB32: [0003:00001B94], Flags: 00000000, ??_C@_0BA@NCOPPKFI@Delete?5time?$DN?$CFu?6@
S_PUB32: [0002:00024CB0], Flags: 00000002, __ftol3
S_PUB32: [0005:0000017C], Flags: 00000000, __imp___configthreadlocale
S_PUB32: [0003:000048B8], Flags: 00000000, ??_C@_0BH@GFBLAHEK@QueryDoubleText?5result@
S_PUB32: [0003:000036C8], Flags: 00000000, ??_C@_0BB@LNPNOBID@PLAY?5SYSTEM?5load@
S_PUB32: [0002:0000D010], Flags: 00000002, ?Push@?$DynArray@PAUBlock@?$MemPoolT@$0DM@@tinyxml2@@$09@tinyxml2@@QAEXPAUBlock@?$MemPoolT@$0DM@@2@@Z
S_PUB32: [0003:00007810], Flags: 00000000, ??_R3XMLText@tinyxml2@@8
S_PUB32: [0003:00006558], Flags: 00000000, ??_7bad_alloc@std@@6B@
S_PUB32: [0003:00007824], Flags: 00000000, ??_R2XMLText@tinyxml2@@8
S_PUB32: [0003:00006394], Flags: 00000000, ??_C@_0BD@GBHHAEKH@?6Pass?5?$CFd?0?5Fail?5?$CFd?6@
S_PUB32: [0003:0000126C], Flags: 00000000, ??_C@_0M@IADOOHPD@filename?$DN?$CFs@
S_PUB32: [0003:00007744], Flags: 00000000, ??_R4XMLAttribute@tinyxml2@@6B@
S_PUB32: [0003:00003164], Flags: 00000000, ??_C@_0BO@MCPEDDIC@Entity?5transformation?3?5read?4?5@
S_PUB32: [0002:000047D0], Flags: 00000002, ??_GXMLPrinter@tinyxml2@@UAEPAXI@Z
S_PUB32: [0003:00006B44], Flags: 00000000, ??_C@_02LLMPMKNF@?$DO?5@
S_PUB32: [0003:00007AE8], Flags: 00000000, ??_R4?$MemPoolT@$0DI@@tinyxml2@@6B@
S_PUB32: [0002:00008290], Flags: 00000002, ?Free@?$MemPoolT@$0DI@@tinyxml2@@UAEXPAX@Z
S_PUB32: [0005:0000001C], Flags: 00000000, __imp__GetLastError@0
S_PUB32: [0002:00013FE0], Flags: 00000002, ___local_stdio_scanf_options
S_PUB32: [0002:00025790], Flags: 00000002, ??_Gbad_array_new_length@std@@UAEPAXI@Z
S_PUB32: [0003:00002DD0], Flags: 00000000, ??_C@_0FM@NJMMKIOK@?$DMxmlElement?$DO?$DM?$CB?$FLCDATA?$FL?$DMb?$DOI?5am?5?$DO?5@
S_PUB32: [0002:00008340], Flags: 00000002, ?Free@?$MemPoolT@$0DM@@tinyxml2@@UAEXPAX@Z
S_PUB32: [0002:00015770], Flags: 00000002, ?EnsureCapacity@?$DynArray@D$09@tinyxml2@@AAEXH@Z
S_PUB32: [0003:00002CA0], Flags: 00000000, ??_C@_0BM@HBGMINDA@PushText?$CI?5bool?5value?5?$CJ?5test@
S_PUB32: [0003:00004820], Flags: 00000000, ??_C@_01EANLCPLP@y@
S_PUB32: [0003:000034A8], Flags: 00000000, ??_C@_0BD@KLPMDKDG@No?5entity?5parsing?4@
S_PUB32: [0002:000081E0], Flags: 00000002, ?Free@?$MemPoolT@$0DE@@tinyxml2@@UAEXPAX@Z
S_PUB32: [0003:00004E1C], Flags: 00000000, ??_C@_0CO@PCABNGG@Loading?5an?5empty?5file?5and?5Error@
S_PUB32: [0002:000054E0], Flags: 00000002, ?Attribute@XMLElement@tinyxml2@@QBEPBDPBD0@Z
S_PUB32: [0003:000028F0], Flags: 00000000, ??_C@_0BK@GGMOBEPG@Attribute?3?5string?5default@
S_PUB32: [0002:00026EF0], Flags: 00000002, __get_startup_argv_mode
S_PUB32: [0004:00000CD0], Flags: 00000000, ___DebuggerCurrentSteppingThreadId
S_PUB32: [0003:000076A8], Flags: 00000000, ??_R1A@?0A@EA@XMLNode@tinyxml2@@8
S_PUB32: [0003:00000C2C], Flags: 00000000, ??_C@_0BJ@FAMPBCLJ@XML_ERROR_FILE_NOT_FOUND@
S_PUB32: [0002:00027350], Flags: 00000002, ___scrt_exe_initialize_mta
S_PUB32: [0002:00003660], Flags: 00000002, ??1?$DynArray@PBD$09@tinyxml2@@QAE@XZ
S_PUB32: [0002:000154D0], Flags: 00000002, ?BoolValue@XMLAttribute@tinyxml2@@QBE_NXZ
S_PUB32: [0002:00016640], Flags: 00000002, ?QueryAttribute@XMLElement@tinyxml2@@QBE?AW4XMLError@2@PBDPA_N@Z
S_PUB32: [0002:000243E0], Flags: 00000002, ___report_gsfailure
S_PUB32: [0002:00024EF0], Flags: 00000002, __dtol3
S_PUB32: [0005:000000C8], Flags: 00000000, __imp____vcrt_GetModuleHandleW
S_PUB32: [0003:000045D4], Flags: 00000000, ??_C@_0BL@JIJEAIGF@Int64Text?$CI?$CJ?5hex?5value?5test@
S_PUB32: [0004:000007F8], Flags: 00000000, ?_OptionsStorage@?1??__local_stdio_printf_options@@9@4_KA
S_PUB32: [0003:0000547C], Flags: 00000000, ??_C@_09OJOOGFAL@attrC?9f64@
S_PUB32: [0003:000022E4], Flags: 00000000, ??_C@_03JBIPMCLC@int@
S_PUB32: [0002:00028415], Flags: 00000002, _strcpy_s
S_PUB32: [0002:00005D60], Flags: 00000002, ?ClearError@XMLDocument@tinyxml2@@QAEXXZ
S_PUB32: [0003:000020F4], Flags: 00000000, ??_C@_07KEDHPJMI@Bad?5XML@
S_PUB32: [0002:00002570], Flags: 00000002, ??0?$DynArray@PBD$09@tinyxml2@@QAE@XZ
S_PUB32: [0003:00006CCC], Flags: 00000000, ??_C@_0BI@CIGMDCBH@Stack?5memory?5corruption@
S_PUB32: [0002:00027D70], Flags: 00000002, ?_RTC_GetSrcLine@@YAHPAEPA_WKPAH1K@Z
S_PUB32: [0002:00016A20], Flags: 00000002, ?SetAttribute@XMLElement@tinyxml2@@QAEXPBD_K@Z
S_PUB32: [0002:00027460], Flags: 00000002, __RTC_Terminate
S_PUB32: [0003:00000E08], Flags: 00000000, ??_C@_0BL@HMFAGBIO@XML_ELEMENT_DEPTH_EXCEEDED@
S_PUB32: [0003:00004B6C], Flags: 00000000, ??_C@_0BH@KAEODEHO@No?5error?5after?5Clear?$CI?$CJ@
S_PUB32: [0003:00003900], Flags: 00000000, ??_C@_0O@HKEHIJIC@Low?5entities?4@
S_PUB32: [0002:000037A0], Flags: 00000002, ??1?$MemPoolT@$0DE@@tinyxml2@@UAE@XZ
S_PUB32: [0002:000121D0], Flags: 00000002, ?ToFloat@XMLUtil@tinyxml2@@SA_NPBDPAM@Z
S_PUB32: [0002:000242D0], Flags: 00000002, __CRT_RTC_INITW
S_PUB32: [000A:00000000], Flags: 00000000, ___enclave_config
S_PUB32: [0002:0000F930], Flags: 00000002, ?SetAttribute@XMLAttribute@tinyxml2@@QAEXN@Z
S_PUB32: [0003:00004B3C], Flags: 00000000, ??_C@_0BA@MINDMBPC@This?5is?5not?5XML@
S_PUB32: [0003:00002C7C], Flags: 00000000, ??_C@_0BO@HCPNICAJ@PushText?$CI?5double?5value?5?$CJ?5test@
S_PUB32: [0003:00006A5C], Flags: 00000000, ??_C@_0BB@PFFGGCJP@Unknown?5Filename@
S_PUB32: [0003:00003B70], Flags: 00000000, ??_C@_0EM@CJMHAPLB@?$DM?$DPxml?5version?$DN?$CC1?40?$CC?5encoding?$DN?$CCu@
S_PUB32: [0002:000040A0], Flags: 00000002, ??1XMLUnknown@tinyxml2@@MAE@XZ
S_PUB32: [0003:000044B4], Flags: 00000000, ??_C@_0L@DOAKAJIH@DoubleText@
S_PUB32: [0002:000039E0], Flags: 00000002, ??1DepthTracker@XMLDocument@tinyxml2@@QAE@XZ
S_PUB32: [0002:00015960], Flags: 00000002, ?FirstChild@XMLConstHandle@tinyxml2@@QBE?BV12@XZ
S_PUB32: [0003:00006E50], Flags: 00000000, ??_C@_1HE@EBEAGLFB@?$AAS?$AAO?$AAF?$AAT?$AAW?$AAA?$AAR?$AAE?$AA?2?$AAW?$AAo?$AAw?$AA6?$AA4?$AA3@
S_PUB32: [0002:00028487], Flags: 00000002, _IsProcessorFeaturePresent@4
S_PUB32: [0002:00028463], Flags: 00000002, _wcscpy_s
S_PUB32: [0003:00001E64], Flags: 00000000, ??_C@_07HCLJNICE@element@
S_PUB32: [0005:00000130], Flags: 00000000, __imp__malloc
S_PUB32: [000A:00000000], Flags: 00000000, ___safe_se_handler_count
S_PUB32: [0002:000284AB], Flags: 00000002, _GetSystemTimeAsFileTime@4
S_PUB32: [0002:00028445], Flags: 00000002, __crt_at_quick_exit
S_PUB32: [0002:000283FD], Flags: 00000002, __configthreadlocale
S_PUB32: [0003:000029F4], Flags: 00000000, ??_C@_0BK@DNAKAGGJ@resources?1out?1printer?4xml@
S_PUB32: [0003:000055F0], Flags: 00000000, ??_C@_0CI@LJBKCKAH@Issue?5302?4?5Should?5be?5no?5error?5i@
S_PUB32: [0005:0000016C], Flags: 00000000, __imp____p___argv
S_PUB32: [0003:0000375C], Flags: 00000000, ??_C@_0BB@GGPEMION@?5Somewhat?$DMevil?$DO?5@
S_PUB32: [0002:0000DD20], Flags: 00000002, ?PushText@XMLPrinter@tinyxml2@@QAEXM@Z
S_PUB32: [0004:00000410], Flags: 00000000, ??_R0?AVXMLDocument@tinyxml2@@@8
S_PUB32: [0002:00009B60], Flags: 00000002, ?IntText@XMLElement@tinyxml2@@QBEHH@Z
S_PUB32: [0003:00001280], Flags: 00000000, ??_C@_0CK@LEBPANPP@Error?$DN?$CFs?5ErrorID?$DN?$CFd?5?$CI0x?$CFx?$CJ?5Line@
S_PUB32: [0002:00013DC0], Flags: 00000002, ?__autoclassinit2@StrPair@tinyxml2@@QAEXI@Z
S_PUB32: [0003:00000C0C], Flags: 00000000, ??_C@_0BJ@NLEFELMO@XML_WRONG_ATTRIBUTE_TYPE@
S_PUB32: [0005:00000168], Flags: 00000000, __imp____p___argc
S_PUB32: [0002:00011060], Flags: 00000002, ?ShallowEqual@XMLDeclaration@tinyxml2@@UBE_NPBVXMLNode@2@@Z
S_PUB32: [0003:00001AB8], Flags: 00000000, ??_C@_0BC@BLMCCKNI@attributeApproach@
S_PUB32: [0002:00025700], Flags: 00000002, ??1bad_array_new_length@std@@UAE@XZ
S_PUB32: [0003:0000245C], Flags: 00000000, ??_C@_08JEEDKNPB@document@
S_PUB32: [0003:000078E8], Flags: 00000000, ??_R1A@?0A@EA@XMLUnknown@tinyxml2@@8
S_PUB32: [0002:00013200], Flags: 00000002, ?Untracked@?$MemPoolT@$0DE@@tinyxml2@@QBEHXZ
S_PUB32: [0003:00007CC4], Flags: 00000000, ??_R3bad_alloc@std@@8
S_PUB32: [0003:00004AE4], Flags: 00000000, ??_C@_0CC@LPFCLDF@Document?5has?5something?5to?5Clear@
S_PUB32: [0003:00007CD8], Flags: 00000000, ??_R2bad_alloc@std@@8
S_PUB32: [0003:000010CC], Flags: 00000000, ??_7?$MemPoolT@$0DI@@tinyxml2@@6B@
S_PUB32: [0002:000242C0], Flags: 00000002, __CRT_RTC_INIT
S_PUB32: [0003:0000411C], Flags: 00000000, ??_C@_0BI@PAJAIDMH@Attribute?5with?5space?5?$CD1@
S_PUB32: [0003:00006F48], Flags: 00000000, __load_config_used
S_PUB32: [0003:0000570C], Flags: 00000000, ??_C@_0DN@LFAIEMKA@?$DM?$DPxml?5version?$DN?$CC1?40?$CC?5?$DP?$DO?5?5?5?$DM?$CB?9?9?5x@
S_PUB32: [0003:000012B4], Flags: 00000000, ??_C@_02LMMGGCAJ@?3?5@
S_PUB32: [0003:00001794], Flags: 00000000, ??_C@_0CC@EMHAMCMI@?$DMelement?5attrib?$DN?8This?$CGlt?$DLThat?8?5@
S_PUB32: [0002:000284E1], Flags: 00000002, _FreeLibrary@4
S_PUB32: [0002:0002840F], Flags: 00000002, __free_dbg
S_PUB32: [0003:0000590C], Flags: 00000000, ??_C@_0DD@FOEIDKDM@Test?5that?5declaration?5after?5a?5c@
S_PUB32: [0002:00005880], Flags: 00000002, ?Clear@?$MemPoolT@$0DE@@tinyxml2@@QAEXXZ
S_PUB32: [0002:00011D20], Flags: 00000002, ?ToDeclaration@XMLNode@tinyxml2@@UAEPAVXMLDeclaration@2@XZ
S_PUB32: [0003:00001DA0], Flags: 00000000, ??_C@_0BJ@OLMHDPEG@Element?5with?5sub?5element@
S_PUB32: [0003:00003D5C], Flags: 00000000, ??_C@_0CH@MDFFIDCO@Parse?5before?5deep?5cloning?5root?5@
S_PUB32: [0003:000063C8], Flags: 00000000, __real@3fbf9add3739635f
S_PUB32: [0003:000063BC], Flags: 00000000, __real@3dfcd6ea
S_PUB32: [0002:00011BC0], Flags: 00000002, ?ToComment@XMLNode@tinyxml2@@UAEPAVXMLComment@2@XZ
S_PUB32: [0005:0000003C], Flags: 00000000, __imp__RaiseException@16
S_PUB32: [0003:00006C00], Flags: 00000000, ??_C@_0BK@ODNDAGKB@?$CFs?$CFs?$CFp?$CFs?$CFzd?$CFs?$CFd?$CFs?$CFs?$CFs?$CFs?$CFs@
S_PUB32: [0002:000284CF], Flags: 00000002, _HeapFree@12
S_PUB32: [0005:0000014C], Flags: 00000000, __imp___configure_narrow_argv
S_PUB32: [0002:00015320], Flags: 00000002, ??0XMLHandle@tinyxml2@@QAE@PAVXMLNode@1@@Z
S_PUB32: [0003:00004DE8], Flags: 00000000, ??_C@_0BE@MDBJGIIB@resources?1empty?4xml@
S_PUB32: [0003:00007830], Flags: 00000000, ??_R1A@?0A@EA@XMLText@tinyxml2@@8
S_PUB32: [0002:00017D90], Flags: 00000002, ?example_3@@YAHXZ
S_PUB32: [0005:000001D0], Flags: 00000000, __imp__isdigit
S_PUB32: [0002:00004A90], Flags: 00000002, ?Accept@XMLDocument@tinyxml2@@UBE_NPAVXMLVisitor@2@@Z
S_PUB32: [0005:00000190], Flags: 00000000, __imp__strcat_s
S_PUB32: [0002:00028301], Flags: 00000002, _fgetc
S_PUB32: [0002:00028349], Flags: 00000002, _fgets
S_PUB32: [0002:000267E0], Flags: 00000002, ___scrt_dllmain_before_initialize_c
S_PUB32: [0002:000026F0], Flags: 00000002, ??0?$MemPoolT@$0DE@@tinyxml2@@QAE@XZ
S_PUB32: [0002:00028283], Flags: 00000002, _memcpy
S_PUB32: [0002:00008130], Flags: 00000002, ?Free@?$MemPoolT@$0CI@@tinyxml2@@UAEXPAX@Z
S_PUB32: [0003:00004B88], Flags: 00000000, ??_C@_0IH@HJKJGCIC@?$DMelement?$DO?$DMa?$DO?5This?5?6is?5?$CGapos?$DL?5?5t@
S_PUB32: [0002:000261C0], Flags: 00000002, __RTC_SetErrorType
S_PUB32: [0002:000112F0], Flags: 00000002, ?ShallowEqual@XMLText@tinyxml2@@UBE_NPBVXMLNode@2@@Z
S_PUB32: [0003:00001E7C], Flags: 00000000, ??_C@_07GJGNEJFD@comment@
S_PUB32: [0003:00004888], Flags: 00000000, ??_C@_0BG@MCJELCFP@QueryFloatText?5result@
S_PUB32: [0003:00001094], Flags: 00000000, ??_7?$MemPoolT@$0DM@@tinyxml2@@6B@
S_PUB32: [0003:00002B28], Flags: 00000000, ??_C@_08CLLOMHGD@unsigned@
S_PUB32: [0003:00004770], Flags: 00000000, ??_C@_05BABJKOGB@blank@
S_PUB32: [0002:000282CB], Flags: 00000002, ___vcrt_GetModuleHandleW
S_PUB32: [0003:00002B1C], Flags: 00000000, ??_C@_08KCBLMJOP@Tinyxml2@
S_PUB32: [0002:00015FB0], Flags: 00000002, ?Mem@?$DynArray@D$0BE@@tinyxml2@@QBEPBDXZ
S_PUB32: [0003:00004108], Flags: 00000000, ??_C@_0P@NGBJGMEL@Test?5Attribute@
S_PUB32: [0002:00012F60], Flags: 00000002, ?Unsigned64Text@XMLElement@tinyxml2@@QBE_K_K@Z
S_PUB32: [0002:00015EE0], Flags: 00000002, ?LastChildElement@XMLNode@tinyxml2@@QAEPAVXMLElement@2@PBD@Z
S_PUB32: [0003:00003450], Flags: 00000000, ??_C@_0EJ@ELOFOBAI@Line?55?5has?5?$CGquot?$DLquotation?5mark@
S_PUB32: [0003:00006A70], Flags: 00000000, ??_C@_0BE@GNBOBNCK@Unknown?5Module?5Name@
S_PUB32: [0003:000025FC], Flags: 00000000, ??_C@_0BC@MPHMOILN@Double?5whitespace@
S_PUB32: [0003:00002A98], Flags: 00000000, ??_C@_0O@IGMMHGDL@attrib?9double@
S_PUB32: [0003:00005470], Flags: 00000000, ??_C@_09CCLCLGKO@attrB?9f64@
S_PUB32: [0003:0000541C], Flags: 00000000, ??_C@_0BJ@HDLMKGCO@Parse?5root?9sample?9field0@
S_PUB32: [0003:0000486C], Flags: 00000000, ??_C@_0BC@CCNPEEIL@QueryUnsignedText@
S_PUB32: [0002:00006680], Flags: 00000002, ?DeepClone@XMLNode@tinyxml2@@QBEPAV12@PAVXMLDocument@2@@Z
S_PUB32: [0002:0000A800], Flags: 00000002, ?NewDeclaration@XMLDocument@tinyxml2@@QAEPAVXMLDeclaration@2@PBD@Z
S_PUB32: [0003:00005A5C], Flags: 00000000, ??_C@_0CJ@FEGCAFFF@ErrorName?$CI?$CJ?5not?5empty?5after?5Cle@
S_PUB32: [0003:00002100], Flags: 00000000, ??_C@_0FH@NGFMMHBG@Error?$DNXML_ERROR_PARSING_ATTRIBU@
S_PUB32: [0002:00004300], Flags: 00000002, ??_G?$MemPoolT@$0CI@@tinyxml2@@UAEPAXI@Z
S_PUB32: [0002:000282EF], Flags: 00000002, _fopen_s
S_PUB32: [0002:0002842D], Flags: 00000002, __initialize_onexit_table
S_PUB32: [0002:00013380], Flags: 00000002, ?Value@XMLNode@tinyxml2@@QBEPBDXZ
S_PUB32: [0003:00000B7C], Flags: 00000000, ??_C@_04KJFGKBNM@quot@
S_PUB32: [0002:0000E730], Flags: 00000002, ?QueryDoubleValue@XMLAttribute@tinyxml2@@QBE?AW4XMLError@2@PAN@Z
S_PUB32: [0002:000284F0], Flags: 00000002, ___scrt_stub_for_acrt_initialize
S_PUB32: [0002:00028457], Flags: 00000002, __wmakepath_s
S_PUB32: [0002:00027360], Flags: 00000002, ___scrt_unhandled_exception_filter@4
S_PUB32: [0002:000164F0], Flags: 00000002, ?QueryAttribute@XMLElement@tinyxml2@@QBE?AW4XMLError@2@PBDPAPBD@Z
S_PUB32: [0003:00000BA8], Flags: 00000000, ??_C@_04HPMIDMKH@True@
S_PUB32: [0003:00005E5C], Flags: 00000000, ??_C@_0BN@CFFFJBEM@?$DMroot?$DO?6?$DM?$DPxml?5version?$DN?$CC1?40?$CC?$DP?$DO@
S_PUB32: [0002:00009280], Flags: 00000002, ?InsertChildPreamble@XMLNode@tinyxml2@@ABEXPAV12@@Z
S_PUB32: [0003:000012E8], Flags: 00000000, ??_C@_0BC@CIAMHNHO@xml?5version?$DN?$CC1?40?$CC@
S_PUB32: [0002:00027500], Flags: 00000002, _ReadNoFence
S_PUB32: [0002:000284D5], Flags: 00000002, _GetProcessHeap@0
S_PUB32: [0003:000054AC], Flags: 00000000, ??_C@_09LJHPAAGG@attrC?9f32@
S_PUB32: [0003:000027A8], Flags: 00000000, ??_C@_0CG@CJOLAFFM@SetText?$CI?$CJ?5replace?5with?5tag?9like@
S_PUB32: [0005:000001F8], Flags: 00000000, __imp__ftell
S_PUB32: [0002:00015C40], Flags: 00000002, ?GetLineNum@XMLAttribute@tinyxml2@@QBEHXZ
S_PUB32: [0002:00011140], Flags: 00000002, ?ShallowEqual@XMLDocument@tinyxml2@@UBE_NPBVXMLNode@2@@Z
S_PUB32: [0004:0000048C], Flags: 00000000, ??_R0?AVXMLAttribute@tinyxml2@@@8
S_PUB32: [0003:00004198], Flags: 00000000, ??_C@_0CA@IBJIGOGD@Infinite?5loop?5in?5shallow?5equal?4@
S_PUB32: [0002:000141D0], Flags: 00000002, __vsnprintf_s_l
S_PUB32: [0003:00004738], Flags: 00000000, ??_C@_08GIPFMOBG@playlist@
S_PUB32: [0003:00007A18], Flags: 00000000, ??_R4XMLNode@tinyxml2@@6B@
S_PUB32: [000A:00000000], Flags: 00000000, ___safe_se_handler_table
S_PUB32: [0002:000282AD], Flags: 00000002, ___std_type_info_destroy_list
S_PUB32: [0003:000063AC], Flags: 00000000, __real@2edbe6ff
S_PUB32: [0002:00011CC0], Flags: 00000002, ?ToDeclaration@XMLDeclaration@tinyxml2@@UBEPBV12@XZ
S_PUB32: [0003:00007684], Flags: 00000000, ??_R1A@?0A@EA@XMLDocument@tinyxml2@@8
S_PUB32: [0003:00002684], Flags: 00000000, ??_C@_0BN@JFKHBMCC@GetText?$CI?$CJ?5contained?5element?4@
S_PUB32: [0003:00004318], Flags: 00000000, ??_C@_0BM@GCGFEAOC@BOM?5and?5default?5declaration@
S_PUB32: [0002:00013C10], Flags: 00000002, ?Write@XMLPrinter@tinyxml2@@IAEXPBD@Z
S_PUB32: [0002:00009730], Flags: 00000002, ?InsertNewDeclaration@XMLElement@tinyxml2@@QAEPAVXMLDeclaration@2@PBD@Z
S_PUB32: [0003:00007700], Flags: 00000000, ??_R3XMLElement@tinyxml2@@8
S_PUB32: [0003:00007714], Flags: 00000000, ??_R2XMLElement@tinyxml2@@8
S_PUB32: [0002:000083F0], Flags: 00000002, ?GetCharacterRef@XMLUtil@tinyxml2@@SAPBDPBDPADPAH@Z
S_PUB32: [0002:00024360], Flags: 00000002, ??_Etype_info@@UAEPAXI@Z
S_PUB32: [0002:00007060], Flags: 00000002, ?Empty@StrPair@tinyxml2@@QBE_NXZ
S_PUB32: [0003:00007944], Flags: 00000000, ??_R1A@?0A@EA@XMLPrinter@tinyxml2@@8
S_PUB32: [0002:000152C0], Flags: 00000002, ??0XMLHandle@tinyxml2@@QAE@AAVXMLNode@1@@Z
S_PUB32: [0002:00005310], Flags: 00000002, ?Alloc@?$MemPoolT@$0DM@@tinyxml2@@UAEPAXXZ
S_PUB32: [0002:00011B60], Flags: 00000002, ?ToComment@XMLComment@tinyxml2@@UBEPBV12@XZ
S_PUB32: [0003:00005E44], Flags: 00000000, ??_C@_0BC@EJNAFANL@ErrorLine?9Parsing@
S_PUB32: [0003:00005F5C], Flags: 00000000, ??_C@_0O@PHJIMBGI@?6?$DMroot?$DO?6?$DM?$DP?5?$DO?6@
S_PUB32: [0003:00000BB8], Flags: 00000000, ??_C@_05MKDOIIA@False@
S_PUB32: [0002:00017C50], Flags: 00000002, ?example_2@@YAHXZ
S_PUB32: [0003:0000253C], Flags: 00000000, ??_C@_0BN@JICGPLMD@resources?1utf8testverify?4xml@
S_PUB32: [0002:0000ED80], Flags: 00000002, ?QueryUnsigned64Attribute@XMLElement@tinyxml2@@QBE?AW4XMLError@2@PBDPA_K@Z
S_PUB32: [0002:0000C9F0], Flags: 00000002, ?PrintString@XMLPrinter@tinyxml2@@AAEXPBD_N@Z
S_PUB32: [0002:0000B560], Flags: 00000002, ?ParseDeep@XMLElement@tinyxml2@@MAEPADPADPAVStrPair@2@PAH@Z
S_PUB32: [0002:00002170], Flags: 00000002, ??$CreateUnlinkedNode@VXMLUnknown@tinyxml2@@$0DE@@XMLDocument@tinyxml2@@AAEPAVXMLUnknown@1@AAV?$MemPoolT@$0DE@@1@@Z
S_PUB32: [0005:0000018C], Flags: 00000000, __imp__strcpy_s
S_PUB32: [0002:00017370], Flags: 00000002, ?UnsignedValue@XMLAttribute@tinyxml2@@QBEIXZ
S_PUB32: [0003:00001948], Flags: 00000000, ??_C@_0EM@NCEFLKIF@?$DMdoc?$DO?$DMelement?5attribute?$DN?8attrib@
S_PUB32: [0002:00002070], Flags: 00000002, ??$CreateUnlinkedNode@VXMLText@tinyxml2@@$0DI@@XMLDocument@tinyxml2@@AAEPAVXMLText@1@AAV?$MemPoolT@$0DI@@1@@Z
S_PUB32: [0002:0000A5F0], Flags: 00000002, ?MarkInUse@XMLDocument@tinyxml2@@QAEXQBVXMLNode@2@@Z
S_PUB32: [0002:00014490], Flags: 00000002, _vsnprintf_s
S_PUB32: [0002:00017AB0], Flags: 00000002, ?__autoclassinit2@XMLHandle@tinyxml2@@QAEXI@Z
S_PUB32: [0002:00014290], Flags: 00000002, __vsscanf_s_l
S_PUB32: [0005:0000027C], Flags: 00000000, __IMPORT_DESCRIPTOR_KERNEL32
S_PUB32: [0003:000010E8], Flags: 00000000, ??_7?$MemPoolT@$0DE@@tinyxml2@@6B@
S_PUB32: [0002:00013630], Flags: 00000002, ?Visit@XMLVisitor@tinyxml2@@UAE_NABVXMLDeclaration@2@@Z
S_PUB32: [0003:000064B8], Flags: 00000000, __real@60ad78ec
S_PUB32: [0003:00004170], Flags: 00000000, ??_C@_0CC@MHGJFAOK@Parse?5two?5elements?5with?5attribu@
S_PUB32: [0003:00004C8C], Flags: 00000000, ??_C@_0BI@FBKIDIGN@?$DMelement?$DO?5?5?5?5?$DM?1element?$DO@
S_PUB32: [0002:000256A0], Flags: 00000002, ??0exception@std@@QAE@QBDH@Z
S_PUB32: [0002:00025750], Flags: 00000002, ??_Gbad_alloc@std@@UAEPAXI@Z
S_PUB32: [0002:000097D0], Flags: 00000002, ?InsertNewText@XMLElement@tinyxml2@@QAEPAVXMLText@2@PBD@Z
S_PUB32: [0002:00006DA0], Flags: 00000002, ?DoubleText@XMLElement@tinyxml2@@QBENN@Z
S_PUB32: [0003:000030A4], Flags: 00000000, ??_C@_0CE@NHCDCCLB@Entity?5transformation?5parse?5rou@
S_PUB32: [0002:00025650], Flags: 00000002, ??0exception@std@@QAE@ABV01@@Z
S_PUB32: [0002:0000D220], Flags: 00000002, ?PushArr@?$DynArray@D$0BE@@tinyxml2@@QAEPADH@Z
S_PUB32: [0003:00002468], Flags: 00000000, ??_C@_07PEAPJBGG@Russian@
S_PUB32: [0003:00007A5C], Flags: 00000000, ??_R2?$MemPoolT@$0DM@@tinyxml2@@8
S_PUB32: [0003:00001910], Flags: 00000000, ??_C@_0CJ@HKNOGIBO@?$DMelement?5attribute1?5?$DN?5?$CCTest?5Att@
S_PUB32: [0003:00007A48], Flags: 00000000, ??_R3?$MemPoolT@$0DM@@tinyxml2@@8
S_PUB32: [0003:000035CC], Flags: 00000000, ??_C@_0BH@NGKLNOLB@Entity?5with?5one?5digit?4@
S_PUB32: [0003:000076E8], Flags: 00000000, ??_R4XMLElement@tinyxml2@@6B@
S_PUB32: [0003:00006E28], Flags: 00000000, ??_C@_0BB@GLNAEDBD@RegQueryValueExW@
S_PUB32: [0003:000026D4], Flags: 00000000, ??_C@_09KPLDGONG@darkness?4@
S_PUB32: [0002:00027280], Flags: 00000002, ___scrt_is_managed_app
S_PUB32: [0003:000012B8], Flags: 00000000, ??_C@_03OFAPEBGM@?$CFs?6@
S_PUB32: [0003:00003980], Flags: 00000000, ??_C@_04EIPGDJCO@?$DMx?$DO?5@
S_PUB32: [0002:000282A7], Flags: 00000002, __CxxThrowException@8
S_PUB32: [0003:00007CAC], Flags: 00000000, ??_R4bad_alloc@std@@6B@
S_PUB32: [0003:00004C60], Flags: 00000000, ??_C@_0BB@FJIIKGDN@This?5is?5?8?5text?5?8@
S_PUB32: [0003:00002A78], Flags: 00000000, ??_C@_0O@DBPFGLPP@attrib?9uint64@
S_PUB32: [0003:00000E78], Flags: 00000000, ??_7XMLNode@tinyxml2@@6B@
S_PUB32: [0002:00026F90], Flags: 00000002, __initialize_default_precision
S_PUB32: [0002:00005590], Flags: 00000002, ?BoolAttribute@XMLElement@tinyxml2@@QBE_NPBD_N@Z
S_PUB32: [0003:00004E74], Flags: 00000000, ??_C@_0BL@BKJEMECM@BOM?5preservation?5?$CIcompare?$CJ@
S_PUB32: [0002:0000A780], Flags: 00000002, ?NewComment@XMLDocument@tinyxml2@@QAEPAVXMLComment@2@PBD@Z
S_PUB32: [0003:00003C04], Flags: 00000000, ??_C@_0BK@HKANBGJD@Handle?5end?5tag?5whitespace@
S_PUB32: [0003:0000557C], Flags: 00000000, ??_C@_0BO@POHLOM@Node?5document?5after?5insertion@
S_PUB32: [0003:00001300], Flags: 00000000, ??_C@_02ILLPBGAO@?$DN?$CC@
S_PUB32: [0002:000282C5], Flags: 00000002, ___vcrt_GetModuleFileNameW
S_PUB32: [0002:00004CA0], Flags: 00000002, ?Accept@XMLText@tinyxml2@@UBE_NPAVXMLVisitor@2@@Z
S_PUB32: [0002:000158A0], Flags: 00000002, ?ErrorID@XMLDocument@tinyxml2@@QBE?AW4XMLError@2@XZ
S_PUB32: [0002:00006820], Flags: 00000002, ?DeleteAttribute@XMLElement@tinyxml2@@CAXPAVXMLAttribute@2@@Z
S_PUB32: [0002:00007A20], Flags: 00000002, ?ErrorIDToName@XMLDocument@tinyxml2@@SAPBDW4XMLError@2@@Z
S_PUB32: [0003:00006B88], Flags: 00000000, ??_C@_07DFDJCKFN@?6Size?3?5@
S_PUB32: [0003:00001E30], Flags: 00000000, ??_C@_0O@JLGBKBMA@middleElement@
S_PUB32: [0002:0000F2E0], Flags: 00000002, ?SaveFile@XMLDocument@tinyxml2@@QAE?AW4XMLError@2@PAU_iobuf@@_N@Z
S_PUB32: [0002:00028451], Flags: 00000002, _terminate
S_PUB32: [0002:00028397], Flags: 00000002, __CrtDbgReportW
S_PUB32: [0003:00006F1C], Flags: 00000000, ??_C@_1BC@JINFINNJ@?$AAM?$AAS?$AAP?$AAD?$AAB?$AA1?$AA4?$AA0@
S_PUB32: [0005:000001BC], Flags: 00000000, __imp___wsplitpath_s
S_PUB32: [0002:000283C1], Flags: 00000002, __get_initial_narrow_environment
S_PUB32: [0002:00013F90], Flags: 00000002, ___local_stdio_printf_options
S_PUB32: [0003:0000904C], Flags: 00000000, __TI3?AVbad_array_new_length@std@@
S_PUB32: [0002:00016B20], Flags: 00000002, ?SetBOM@XMLDocument@tinyxml2@@QAEX_N@Z
S_PUB32: [0003:00004798], Flags: 00000000, ??_C@_0BM@BDFMFMJN@PreviousSiblingElement?5test@
S_PUB32: [0003:000042F0], Flags: 00000000, ??_C@_0CB@JOAJEEPI@Handle?0?5const?0?5element?5not?5foun@
S_PUB32: [0002:00014430], Flags: 00000002, _vfprintf
S_PUB32: [0003:00003F94], Flags: 00000000, ??_C@_0BG@GBBPAJON@DeepCopy?5of?5document?4@
S_PUB32: [0002:00024650], Flags: 00000002, ___report_securityfailureEx
S_PUB32: [0003:0000632C], Flags: 00000000, ??_C@_0BA@EEEOMODF@Parse?5dream?4xml@
S_PUB32: [0002:0000D0C0], Flags: 00000002, ?Push@?$DynArray@PAVXMLNode@tinyxml2@@$09@tinyxml2@@QAEXPAVXMLNode@2@@Z
S_PUB32: [0003:00004D34], Flags: 00000000, ??_C@_0CE@KBPIICGI@?$DMparent?$DO?$DMchild?$DOabc?$DM?1child?$DO?$DM?1par@
S_PUB32: [0003:00001A28], Flags: 00000000, ??_C@_05KOLFGEDA@DEBUG@
S_PUB32: [0002:00028307], Flags: 00000002, _fputc
S_PUB32: [0002:00017170], Flags: 00000002, ?ToElement@XMLConstHandle@tinyxml2@@QBEPBVXMLElement@2@XZ
S_PUB32: [0003:0000900C], Flags: 00000000, __CT??_R0?AVbad_alloc@std@@@8??0bad_alloc@std@@QAE@ABV01@@Z12
S_PUB32: [0003:0000902C], Flags: 00000000, __CT??_R0?AVexception@std@@@8??0exception@std@@QAE@ABV01@@Z12
S_PUB32: [0005:00000038], Flags: 00000000, __imp__MultiByteToWideChar@24
S_PUB32: [0003:00002588], Flags: 00000000, ??_C@_0M@BACAGND@verify?3?$CFs?$DM?6@
S_PUB32: [0002:00025550], Flags: 00000002, _mainCRTStartup
S_PUB32: [0002:00025720], Flags: 00000002, ??1exception@std@@UAE@XZ
S_PUB32: [0002:00011C60], Flags: 00000002, ?ToDeclaration@XMLDeclaration@tinyxml2@@UAEPAV12@XZ
S_PUB32: [0004:00000638], Flags: 00000000, ??_R0?AV?$MemPoolT@$0DI@@tinyxml2@@@8
S_PUB32: [0003:000079D4], Flags: 00000000, ??_R2MemPool@tinyxml2@@8
S_PUB32: [0003:000048D4], Flags: 00000000, ??_C@_0BA@IBOJFNAC@QueryDoubleText@
S_PUB32: [0003:000079C0], Flags: 00000000, ??_R3MemPool@tinyxml2@@8
S_PUB32: [0002:00006FE0], Flags: 00000002, ?Empty@?$DynArray@PAUBlock@?$MemPoolT@$0DM@@tinyxml2@@$09@tinyxml2@@QBE_NXZ
S_PUB32: [0002:0000C340], Flags: 00000002, ?Pop@?$DynArray@PBD$09@tinyxml2@@QAEPBDXZ
S_PUB32: [0002:000282D7], Flags: 00000002, _isalpha
S_PUB32: [0002:0002844B], Flags: 00000002, __controlfp_s
S_PUB32: [0002:0000B420], Flags: 00000002, ?ParseDeep@XMLComment@tinyxml2@@MAEPADPADPAVStrPair@2@PAH@Z
S_PUB32: [0002:00028391], Flags: 00000002, __CrtDbgReport
S_PUB32: [0002:000243A0], Flags: 00000002, ___raise_securityfailure
S_PUB32: [0002:00007220], Flags: 00000002, ?EnsureCapacity@?$DynArray@PAUBlock@?$MemPoolT@$0CI@@tinyxml2@@$09@tinyxml2@@AAEXH@Z
S_PUB32: [0002:0000E5C0], Flags: 00000002, ?QueryDoubleAttribute@XMLElement@tinyxml2@@QBE?AW4XMLError@2@PBDPAN@Z
S_PUB32: [0002:00013C90], Flags: 00000002, ?Write@XMLPrinter@tinyxml2@@MAEXPBDI@Z
S_PUB32: [0005:00000018], Flags: 00000000, __imp__HeapAlloc@12
S_PUB32: [0002:00028379], Flags: 00000002, __CrtMemDumpStatistics
S_PUB32: [0004:00000CC4], Flags: 00000000, ___dyn_tls_init_callback
S_PUB32: [0002:00013D60], Flags: 00000002, ?__autoclassinit2@DepthTracker@XMLDocument@tinyxml2@@QAEXI@Z
S_PUB32: [0003:0000429C], Flags: 00000000, ??_C@_0CA@LOMIOCKP@Handle?0?5const?0?5element?5is?5found@
S_PUB32: [0002:00028475], Flags: 00000002, _SetUnhandledExceptionFilter@4
S_PUB32: [0002:00024820], Flags: 00000002, __ftoi2
S_PUB32: [0002:00009690], Flags: 00000002, ?InsertNewComment@XMLElement@tinyxml2@@QAEPAVXMLComment@2@PBD@Z
S_PUB32: [0002:00009870], Flags: 00000002, ?InsertNewUnknown@XMLElement@tinyxml2@@QAEPAVXMLUnknown@2@PBD@Z
S_PUB32: [0002:00011B00], Flags: 00000002, ?ToComment@XMLComment@tinyxml2@@UAEPAV12@XZ
S_PUB32: [0003:00002288], Flags: 00000000, ??_C@_03BLIIKFAI@bar@
S_PUB32: [0003:00004D14], Flags: 00000000, ??_C@_0BJ@PHGGEOAM@Tracking?5unused?5elements@
S_PUB32: [0003:000044DC], Flags: 00000000, ??_C@_0BC@CIBDFADB@FloatText?$CI?$CJ?$CJ?5test@
S_PUB32: [0002:00028481], Flags: 00000002, _TerminateProcess@8
S_PUB32: [0004:000004B8], Flags: 00000000, ??_R0?AVXMLComment@tinyxml2@@@8
S_PUB32: [0003:00003AA4], Flags: 00000000, ??_C@_0BB@FBELHALE@?5far?5?$CGamp?$DL?5away?5@
S_PUB32: [0003:00002EA8], Flags: 00000000, ??_C@_0CA@GMICGAMB@CDATA?5parse?4?5?$FL?5tixml1?31480107?5?$FN@
S_PUB32: [0004:000004E0], Flags: 00000000, ??_R0?AVXMLText@tinyxml2@@@8
S_PUB32: [0002:00017B10], Flags: 00000002, ?example_1@@YAHXZ
S_PUB32: [0002:00010CB0], Flags: 00000002, ?ShallowClone@XMLDeclaration@tinyxml2@@UBEPAVXMLNode@2@PAVXMLDocument@2@@Z
S_PUB32: [0003:00005090], Flags: 00000000, ??_C@_0GN@FCBOADCO@?$DM?$DPxml?5version?$DN?$CC1?40?$CC?5?$DP?$DO?$DMroot?$DO?$DMon@
S_PUB32: [0002:00013400], Flags: 00000002, ?Visit@XMLPrinter@tinyxml2@@UAE_NABVXMLComment@2@@Z
S_PUB32: [0003:000064B0], Flags: 00000000, __real@4e6e6b28
S_PUB32: [0002:00015E20], Flags: 00000002, ?IntValue@XMLAttribute@tinyxml2@@QBEHXZ
S_PUB32: [0003:00000D98], Flags: 00000000, ??_C@_0BN@LCLEMLDC@XML_ERROR_MISMATCHED_ELEMENT@
S_PUB32: [0002:00025FC0], Flags: 00000002, __RTC_UninitUse
S_PUB32: [0002:0000F0E0], Flags: 00000002, ?QueryUnsignedValue@XMLAttribute@tinyxml2@@QBE?AW4XMLError@2@PAI@Z
S_PUB32: [0002:000260E0], Flags: 00000002, _sprintf_s
S_PUB32: [0002:0000DAD0], Flags: 00000002, ?PushHeader@XMLPrinter@tinyxml2@@QAEX_N0@Z
S_PUB32: [0002:0002836D], Flags: 00000002, __CrtMemCheckpoint
S_PUB32: [0002:00008880], Flags: 00000002, ?GetStr@StrPair@tinyxml2@@QAEPBDXZ
S_PUB32: [0005:00000058], Flags: 00000000, __imp__GetCurrentThreadId@0
S_PUB32: [0002:000165D0], Flags: 00000002, ?QueryAttribute@XMLElement@tinyxml2@@QBE?AW4XMLError@2@PBDPA_K@Z
S_PUB32: [0002:00015CA0], Flags: 00000002, ?GetLineNum@XMLNode@tinyxml2@@QBEHXZ
S_PUB32: [0002:00013560], Flags: 00000002, ?Visit@XMLPrinter@tinyxml2@@UAE_NABVXMLUnknown@2@@Z
S_PUB32: [0002:00006C00], Flags: 00000002, ?DeleteNode@XMLNode@tinyxml2@@CAXPAV12@@Z
S_PUB32: [0003:000037D8], Flags: 00000000, ??_C@_0CE@NFMLDHKO@?$DMelement?5att?$AAr?$DN?8red?8?5attr?$DN?8blue@
S_PUB32: [0003:000048A4], Flags: 00000000, ??_C@_0P@GCNAFAFM@QueryFloatText@
S_PUB32: [0002:00028433], Flags: 00000002, __register_onexit_function
S_PUB32: [0004:00000560], Flags: 00000000, ??_R0?AVXMLPrinter@tinyxml2@@@8
S_PUB32: [0004:000005D8], Flags: 00000000, ??_R0?AV?$MemPoolT@$0DM@@tinyxml2@@@8
S_PUB32: [0002:0002831F], Flags: 00000002, _fwrite
S_PUB32: [0002:00016AA0], Flags: 00000002, ?SetAttribute@XMLElement@tinyxml2@@QAEXPBD_N@Z
S_PUB32: [0004:00000538], Flags: 00000000, ??_R0?AVXMLUnknown@tinyxml2@@@8
S_PUB32: [0003:00002ED8], Flags: 00000000, ??_C@_0L@HDPLNMID@childText0@
S_PUB32: [0003:00000BCC], Flags: 00000000, ??_C@_04FFDNBKGC@?$DM?$CB?9?9@
S_PUB32: [0003:00003740], Flags: 00000000, ??_C@_0BG@LFJDONGF@Comment?5somewhat?5evil@
S_PUB32: [0002:00028331], Flags: 00000002, ___stdio_common_vsnprintf_s
S_PUB32: [0003:000011B8], Flags: 00000000, ??_C@_05CEKCMKAN@?$CF?417g@
S_PUB32: [0003:000011A8], Flags: 00000000, ??_C@_02GMHACPFF@?$CFu@
S_PUB32: [0002:0000AE50], Flags: 00000002, ?Parse@XMLDocument@tinyxml2@@QAE?AW4XMLError@2@PBDI@Z
S_PUB32: [0002:00016740], Flags: 00000002, ?RootElement@XMLDocument@tinyxml2@@QAEPAVXMLElement@2@XZ
S_PUB32: [0002:00027590], Flags: 00000002, ___castguard_check_failure_nop
S_PUB32: [0004:00000CA0], Flags: 00000000, ?__type_info_root_node@@3U__type_info_node@@A
S_PUB32: [0002:00009150], Flags: 00000002, ?InsertAfterChild@XMLNode@tinyxml2@@QAEPAV12@PAV12@0@Z
S_PUB32: [0003:0000588C], Flags: 00000000, ??_C@_0CM@NFEEIPIM@Test?5that?5the?5second?5declaratio@
S_PUB32: [0005:00000128], Flags: 00000000, __imp___CrtSetDbgFlag
S_PUB32: [0002:0000F840], Flags: 00000002, ?SetAttribute@XMLAttribute@tinyxml2@@QAEXM@Z
S_PUB32: [0002:00004300], Flags: 00000002, ??_E?$MemPoolT@$0CI@@tinyxml2@@UAEPAXI@Z
S_PUB32: [0003:00003C50], Flags: 00000000, ??_C@_0BE@JGNLGJDE@Infinite?5loop?5test?4@
S_PUB32: [0003:000064AC], Flags: 00000000, __real@4ceb79a3
S_PUB32: [0002:000283A3], Flags: 00000002, __seh_filter_exe
S_PUB32: [0002:0002847B], Flags: 00000002, _GetCurrentProcess@0
S_PUB32: [0002:00011D70], Flags: 00000002, ?ToDeclaration@XMLNode@tinyxml2@@UBEPBVXMLDeclaration@2@XZ
S_PUB32: [0003:00004030], Flags: 00000000, ??_C@_0BA@PMCCNHHC@Attribute?5order@
S_PUB32: [0003:00000BD4], Flags: 00000000, ??_C@_09BLLNCBLF@?$DM?$CB?$FLCDATA?$FL@
S_PUB32: [0002:00007B70], Flags: 00000002, ?ErrorStr@XMLDocument@tinyxml2@@QBEPBDXZ
S_PUB32: [0005:000001A4], Flags: 00000000, __imp___execute_onexit_table
S_PUB32: [0002:0000DE00], Flags: 00000002, ?PushText@XMLPrinter@tinyxml2@@QAEXN@Z
S_PUB32: [0002:00003A80], Flags: 00000002, ??1MemPool@tinyxml2@@UAE@XZ
S_PUB32: [0003:00004EB4], Flags: 00000000, ??_C@_0BB@CFAENCLG@Save?5bomtest?4xml@
S_PUB32: [0002:0000E9A0], Flags: 00000002, ?QueryInt64Attribute@XMLElement@tinyxml2@@QBE?AW4XMLError@2@PBDPA_J@Z
S_PUB32: [0003:00002798], Flags: 00000000, ??_C@_0O@MIIPHOPP@?$DMb?$DOhorses?$DM?1b?$DO@
S_PUB32: [0002:00027080], Flags: 00000002, ___scrt_fastfail
S_PUB32: [0002:00027060], Flags: 00000002, ___scrt_get_dyn_tls_init_callback
S_PUB32: [0005:00000174], Flags: 00000000, __imp___c_exit
S_PUB32: [0003:00008334], Flags: 00000000, ___rtc_taa
S_PUB32: [0003:00004884], Flags: 00000000, ??_C@_01FJMABOPO@x@
S_PUB32: [0003:00003680], Flags: 00000000, ??_C@_0BC@PMGHIBJM@PLAY?5SYSTEM?5parse@
S_PUB32: [0002:000069B0], Flags: 00000002, ?DeleteChild@XMLNode@tinyxml2@@QAEXPAV12@@Z
S_PUB32: [0002:0000D570], Flags: 00000002, ?PushAttribute@XMLPrinter@tinyxml2@@QAEXPBDN@Z
S_PUB32: [0005:00000290], Flags: 00000000, __IMPORT_DESCRIPTOR_VCRUNTIME140D
S_PUB32: [0003:00001A48], Flags: 00000000, ??_C@_0O@PJBPHMNJ@?5?$CFs?5?$FL?$CFs?$FN?$FL?$CFs?$FN?6@
S_PUB32: [0002:000166B0], Flags: 00000002, ?QueryStringAttribute@XMLElement@tinyxml2@@QBE?AW4XMLError@2@PBDPAPBD@Z
S_PUB32: [0003:000011D8], Flags: 00000000, ??_C@_03DLDNIBIK@?$CFlf@
S_PUB32: [0003:000077D4], Flags: 00000000, ??_R1A@?0A@EA@XMLComment@tinyxml2@@8
S_PUB32: [0003:0000798C], Flags: 00000000, ??_R3XMLVisitor@tinyxml2@@8
S_PUB32: [0002:000029F0], Flags: 00000002, ??0DepthTracker@XMLDocument@tinyxml2@@QAE@PAV12@@Z
S_PUB32: [0003:000079A0], Flags: 00000000, ??_R2XMLVisitor@tinyxml2@@8
S_PUB32: [0002:00027690], Flags: 00000002, ___castguard_slow_path_check_fastfail
S_PUB32: [0003:0000201C], Flags: 00000000, ??_C@_0CA@JHNCBPHK@And?5Robin?5shall?5restore?5amends?4@
S_PUB32: [0003:00001030], Flags: 00000000, ??_7XMLAttribute@tinyxml2@@6B@
S_PUB32: [0002:00026930], Flags: 00000002, ___scrt_initialize_crt
S_PUB32: [0002:00027270], Flags: 00000002, ___scrt_initialize_winrt
S_PUB32: [0002:00009EE0], Flags: 00000002, ?IsWhiteSpace@XMLUtil@tinyxml2@@SA_ND@Z
S_PUB32: [0003:000055CC], Flags: 00000000, ??_C@_07PIFLBHOA@printme@
S_PUB32: [0003:0000292C], Flags: 00000000, ??_C@_0BD@MOGJJEAE@Attribute?3?5int64_t@
S_PUB32: [0002:000283EB], Flags: 00000002, __cexit
S_PUB32: [0002:00024360], Flags: 00000002, ??_Gtype_info@@UAEPAXI@Z
S_PUB32: [0002:00025AA0], Flags: 00000002, ?_RTC_Failure@@YAXPAXH@Z
S_PUB32: [0003:000077B4], Flags: 00000000, ??_R3XMLComment@tinyxml2@@8
S_PUB32: [0003:00006024], Flags: 00000000, ??_C@_0BH@FIEDMNNF@ErrorLine?9ElementClose@
S_PUB32: [0003:000077C8], Flags: 00000000, ??_R2XMLComment@tinyxml2@@8
S_PUB32: [0002:00015900], Flags: 00000002, ?ErrorLineNum@XMLDocument@tinyxml2@@QBEHXZ
S_PUB32: [0003:00000C4C], Flags: 00000000, ??_C@_0CD@IINDOEGO@XML_ERROR_FILE_COULD_NOT_BE_OPE@
S_PUB32: [0002:0002849F], Flags: 00000002, _WideCharToMultiByte@32
S_PUB32: [0002:00024060], Flags: 00000002, @_RTC_AllocaHelper@12
S_PUB32: [0003:00000BC8], Flags: 00000000, ??_C@_02HFBBBACF@?$DM?$DP@
S_PUB32: [0003:00005DF4], Flags: 00000000, ??_C@_0BN@LCDCAEOL@Crash?5bug?5parsing?5?9?5Accept?$CI?$CJ@
S_PUB32: [0002:00025560], Flags: 00000002, ??0bad_alloc@std@@AAE@QBD@Z
S_PUB32: [0003:000011AC], Flags: 00000000, ??_C@_02DKCKIIND@?$CFs@
S_PUB32: [0005:000001CC], Flags: 00000000, __imp__isspace
S_PUB32: [0002:00023F93], Flags: 00000002, _QueryPerformanceCounter@4
S_PUB32: [0005:00000184], Flags: 00000000, __imp____p__commode
S_PUB32: [0003:00001854], Flags: 00000000, ??_C@_0BK@KAMADEFH@?$DMelement?$DO?$DMsub?1?$DO?$DM?1element?$DO@
S_PUB32: [0003:00002364], Flags: 00000000, ??_C@_0BP@NMPPNHCO@Query?5double?5attribute?5generic@
S_PUB32: [0003:000012B7], Flags: 00000000, ??_C@_00CNPNBAHC@@
S_PUB32: [0003:000019A4], Flags: 00000000, ??_C@_0DA@INPPIMCH@?$DMelement?5attrib?$DN?8bar?8?$DO?$DMsub?$DOText@
S_PUB32: [0003:00001268], Flags: 00000000, ??_C@_02JDPG@rb@
S_PUB32: [0003:00006378], Flags: 00000000, ??_C@_0BG@LFKBBLIH@No?5leaks?5before?5exit?$DP@
S_PUB32: [0003:00007A30], Flags: 00000000, ??_R4?$MemPoolT@$0DM@@tinyxml2@@6B@
S_PUB32: [0003:00002264], Flags: 00000000, ??_C@_0BO@FGLKNEME@Query?5attribute?3?5not?5a?5number@
S_PUB32: [0002:00026740], Flags: 00000002, ___scrt_acquire_startup_lock
S_PUB32: [0002:00007DF0], Flags: 00000002, ?FirstAttribute@XMLElement@tinyxml2@@QBEPBVXMLAttribute@2@XZ
S_PUB32: [0003:0000127C], Flags: 00000000, ??_C@_01NOFIACDB@w@
S_PUB32: [0003:000027D8], Flags: 00000000, ??_C@_0CN@IPKKIGIC@?$DMfoo?$DO?$DMbar?$DOText?5in?5nested?5elemen@
S_PUB32: [0003:000028AC], Flags: 00000000, ??_C@_0P@IEOMIGHG@Attribute?3?5int@
S_PUB32: [0003:00005AE0], Flags: 00000000, ??_C@_06GJDLELME@LEAK?51@
S_PUB32: [0005:00000150], Flags: 00000000, __imp___initialize_narrow_environment
S_PUB32: [0003:00002910], Flags: 00000000, ??_C@_0BC@FEGBDBOG@Attribute?3?5string@
S_PUB32: [0003:00000D14], Flags: 00000000, ??_C@_0BK@KECLFPGB@XML_ERROR_PARSING_COMMENT@
S_PUB32: [0003:00001548], Flags: 00000000, ??_C@_0GM@NJCOIECN@?$DM?$CB?9?9comment?5beside?5elements?0?5th@
S_PUB32: [0003:00003308], Flags: 00000000, ??_C@_0BP@LGFBHJGA@Entity?5transformation?3?5write?4?5@
S_PUB32: [0002:00016560], Flags: 00000002, ?QueryAttribute@XMLElement@tinyxml2@@QBE?AW4XMLError@2@PBDPA_J@Z
S_PUB32: [0002:00025510], Flags: 00000002, ?set_commode@__scrt_file_policy@@SAXXZ
S_PUB32: [0003:00002834], Flags: 00000000, ??_C@_0CO@IMDKLJDD@SetText?$CI?$CJ?5prefix?5to?5nested?5non?9@
S_PUB32: [0003:000019E0], Flags: 00000000, ??_C@_0CK@JPGBMHEP@?o?$LL?$LP?$DM?$DPxml?5version?$DN?$CC1?40?$CC?5encoding@
S_PUB32: [0003:00006660], Flags: 00000000, ??_C@_0NN@JMPELKLB@The?5value?5of?5ESP?5was?5not?5proper@
S_PUB32: [0003:00001E88], Flags: 00000000, ??_C@_07NNFIJNBL@?$CG?5Text?$CB@
S_PUB32: [0002:00025750], Flags: 00000002, ??_Ebad_alloc@std@@UAEPAXI@Z
S_PUB32: [0003:000057C0], Flags: 00000000, ??_C@_0CA@HODNPEHP@?$DMfirst?5?1?$DO?$DM?$DPxml?5version?$DN?$CC1?40?$CC?5?$DP?$DO@
S_PUB32: [0003:00004270], Flags: 00000000, ??_C@_0CF@NEEHPFOJ@Handle?0?5non?9const?0?5element?5not?5@
S_PUB32: [0003:00003724], Flags: 00000000, ??_C@_0BI@HBLJONDE@?$DM?$CB?9?9?5Somewhat?$DMevil?$DO?5?9?9?$DO@
S_PUB32: [0003:00007A00], Flags: 00000000, ??_R4XMLVisitor@tinyxml2@@6B@
S_PUB32: [0002:00011C10], Flags: 00000002, ?ToComment@XMLNode@tinyxml2@@UBEPBVXMLComment@2@XZ
S_PUB32: [0002:0000A170], Flags: 00000002, ?LastChildElement@XMLNode@tinyxml2@@QBEPBVXMLElement@2@PBD@Z
S_PUB32: [0003:00005228], Flags: 00000000, ??_C@_0CI@CODAANPB@Move?5node?5from?5within?5?$DMone?$DO?5aft@
S_PUB32: [0003:000036B4], Flags: 00000000, ??_C@_0BB@LPOABCFH@PLAY?5SYSTEM?5save@
S_PUB32: [0002:00028373], Flags: 00000002, __CrtMemDifference
S_PUB32: [0005:000002B8], Flags: 00000000, __NULL_IMPORT_DESCRIPTOR
S_PUB32: [0002:000282B9], Flags: 00000002, ___current_exception_context
S_PUB32: [0004:00000668], Flags: 00000000, ??_R0?AV?$MemPoolT@$0DE@@tinyxml2@@@8
S_PUB32: [0002:000100D0], Flags: 00000002, ?SetInternedStr@StrPair@tinyxml2@@QAEXPBD@Z
S_PUB32: [0002:0000C190], Flags: 00000002, ?Pop@?$DynArray@PAUBlock@?$MemPoolT@$0DE@@tinyxml2@@$09@tinyxml2@@QAEPAUBlock@?$MemPoolT@$0DE@@2@XZ
S_PUB32: [0002:000283D3], Flags: 00000002, __exit
S_PUB32: [0004:00000808], Flags: 00000000, ?_OptionsStorage@?1??__local_stdio_scanf_options@@9@4_KA
S_PUB32: [0003:0000779C], Flags: 00000000, ??_R4XMLComment@tinyxml2@@6B@
S_PUB32: [0005:00000110], Flags: 00000000, __imp__strcmp
S_PUB32: [0003:000013A8], Flags: 00000000, ??_C@_0GB@MFCMMDKI@?$DMinformation?$DO?7?$DMattributeApproac@


*** TYPES

0x1000 : Length = 126, Leaf = 0x1203 LF_FIELDLIST
	list[0] = LF_ENUMERATE, public, value = 0, name = 'PowerUserPresent'
	list[1] = LF_ENUMERATE, public, value = 1, name = 'PowerUserNotPresent'
	list[2] = LF_ENUMERATE, public, value = 2, name = 'PowerUserInactive'
	list[3] = LF_ENUMERATE, public, value = 3, name = 'PowerUserMaximum'
	list[4] = LF_ENUMERATE, public, value = 3, name = 'PowerUserInvalid'

0x1001 : Length = 70, Leaf = 0x1507 LF_ENUM
	# members = 5,  type = T_INT4(0074) field list type 0x1000
	enum name = _USER_ACTIVITY_PRESENCE, UDT(0x00001001)

0x1002 : Length = 58, Leaf = 0x1203 LF_FIELDLIST
	list[0] = LF_ENUMERATE, public, value = 0, name = 'PRESERVE_WHITESPACE'
	list[1] = LF_ENUMERATE, public, value = 1, name = 'COLLAPSE_WHITESPACE'

0x1003 : Length = 62, Leaf = 0x1507 LF_ENUM
	# members = 2,  type = T_INT4(0074) field list type 0x1002
	enum name = tinyxml2::Whitespace, UDT(0x00001003)

0x1004 : Length = 810, Leaf = 0x1203 LF_FIELDLIST
	list[0] = LF_ENUMERATE, public, value = 1, name = 'COMIMAGE_FLAGS_ILONLY'
	list[1] = LF_ENUMERATE, public, value = 2, name = 'COMIMAGE_FLAGS_32BITREQUIRED'
	list[2] = LF_ENUMERATE, public, value = 4, name = 'COMIMAGE_FLAGS_IL_LIBRARY'
	list[3] = LF_ENUMERATE, public, value = 8, name = 'COMIMAGE_FLAGS_STRONGNAMESIGNED'
	list[4] = LF_ENUMERATE, public, value = 16, name = 'COMIMAGE_FLAGS_NATIVE_ENTRYPOINT'
	list[5] = LF_ENUMERATE, public, value = (LF_ULONG) 65536, name = 'COMIMAGE_FLAGS_TRACKDEBUGDATA'
	list[6] = LF_ENUMERATE, public, value = (LF_ULONG) 131072, name = 'COMIMAGE_FLAGS_32BITPREFERRED'
	list[7] = LF_ENUMERATE, public, value = 2, name = 'COR_VERSION_MAJOR_V2'
	list[8] = LF_ENUMERATE, public, value = 2, name = 'COR_VERSION_MAJOR'
	list[9] = LF_ENUMERATE, public, value = 5, name = 'COR_VERSION_MINOR'
	list[10] = LF_ENUMERATE, public, value = 8, name = 'COR_DELETED_NAME_LENGTH'
	list[11] = LF_ENUMERATE, public, value = 8, name = 'COR_VTABLEGAP_NAME_LENGTH'
	list[12] = LF_ENUMERATE, public, value = 1, name = 'NATIVE_TYPE_MAX_CB'
	list[13] = LF_ENUMERATE, public, value = 255, name = 'COR_ILMETHOD_SECT_SMALL_MAX_DATASIZE'
	list[14] = LF_ENUMERATE, public, value = 1, name = 'IMAGE_COR_MIH_METHODRVA'
	list[15] = LF_ENUMERATE, public, value = 2, name = 'IMAGE_COR_MIH_EHRVA'
	list[16] = LF_ENUMERATE, public, value = 8, name = 'IMAGE_COR_MIH_BASICBLOCK'
	list[17] = LF_ENUMERATE, public, value = 1, name = 'COR_VTABLE_32BIT'
	list[18] = LF_ENUMERATE, public, value = 2, name = 'COR_VTABLE_64BIT'
	list[19] = LF_ENUMERATE, public, value = 4, name = 'COR_VTABLE_FROM_UNMANAGED'
	list[20] = LF_ENUMERATE, public, value = 8, name = 'COR_VTABLE_FROM_UNMANAGED_RETAIN_APPDOMAIN'
	list[21] = LF_ENUMERATE, public, value = 16, name = 'COR_VTABLE_CALL_MOST_DERIVED'
	list[22] = LF_ENUMERATE, public, value = 32, name = 'IMAGE_COR_EATJ_THUNK_SIZE'
	list[23] = LF_ENUMERATE, public, value = 1024, name = 'MAX_CLASS_NAME'
	list[24] = LF_ENUMERATE, public, value = 1024, name = 'MAX_PACKAGE_NAME'

0x1005 : Length = 82, Leaf = 0x1507 LF_ENUM
	# members = 25,  type = T_INT4(0074) field list type 0x1004
	enum name = ReplacesCorHdrNumericDefines, UDT(0x00001005)

0x1006 : Length = 174, Leaf = 0x1203 LF_FIELDLIST
	list[0] = LF_ENUMERATE, public, value = 0, name = 'TP_CALLBACK_PRIORITY_HIGH'
	list[1] = LF_ENUMERATE, public, value = 1, name = 'TP_CALLBACK_PRIORITY_NORMAL'
	list[2] = LF_ENUMERATE, public, value = 2, name = 'TP_CALLBACK_PRIORITY_LOW'
	list[3] = LF_ENUMERATE, public, value = 3, name = 'TP_CALLBACK_PRIORITY_INVALID'
	list[4] = LF_ENUMERATE, public, value = 3, name = 'TP_CALLBACK_PRIORITY_COUNT'

0x1007 : Length = 66, Leaf = 0x1507 LF_ENUM
	# members = 5,  type = T_INT4(0074) field list type 0x1006
	enum name = _TP_CALLBACK_PRIORITY, UDT(0x00001007)

0x1008 : Length = 66, Leaf = 0x1505 LF_STRUCTURE
	# members = 0,  field list type 0x0000, FORWARD REF, 
	Derivation list type 0x0000, VT shape type 0x0000
	Size = 0, class name = _CrtMemBlockHeader, unique name = .?AU_CrtMemBlockHeader@@

0x1009 : Length = 10, Leaf = 0x1002 LF_POINTER
	Pointer (NEAR32), Size: 4
	Element type : 0x1008

0x100a : Length = 14, Leaf = 0x1503 LF_ARRAY
	Element type = T_UINT4(0075)
	Index type = T_ULONG(0022)
	length = 20
	Name = 

0x100b : Length = 118, Leaf = 0x1203 LF_FIELDLIST
	list[0] = LF_MEMBER, public, type = 0x1009, offset = 0
		member name = 'pBlockHeader'
	list[1] = LF_MEMBER, public, type = 0x100A, offset = 4
		member name = 'lCounts'
	list[2] = LF_MEMBER, public, type = 0x100A, offset = 24
		member name = 'lSizes'
	list[3] = LF_MEMBER, public, type = T_UINT4(0075), offset = 44
		member name = 'lHighWaterCount'
	list[4] = LF_MEMBER, public, type = T_UINT4(0075), offset = 48
		member name = 'lTotalCount'

0x100c : Length = 54, Leaf = 0x1505 LF_STRUCTURE
	# members = 5,  field list type 0x100b, 
	Derivation list type 0x0000, VT shape type 0x0000
	Size = 52, class name = _CrtMemState, unique name = .?AU_CrtMemState@@, UDT(0x0000100c)

0x100d : Length = 346, Leaf = 0x1203 LF_FIELDLIST
	list[0] = LF_ENUMERATE, public, value = 0, name = 'DISPLAYCONFIG_SCANLINE_ORDERING_UNSPECIFIED'
	list[1] = LF_ENUMERATE, public, value = 1, name = 'DISPLAYCONFIG_SCANLINE_ORDERING_PROGRESSIVE'
	list[2] = LF_ENUMERATE, public, value = 2, name = 'DISPLAYCONFIG_SCANLINE_ORDERING_INTERLACED'
	list[3] = LF_ENUMERATE, public, value = 2, name = 'DISPLAYCONFIG_SCANLINE_ORDERING_INTERLACED_UPPERFIELDFIRST'
	list[4] = LF_ENUMERATE, public, value = 3, name = 'DISPLAYCONFIG_SCANLINE_ORDERING_INTERLACED_LOWERFIELDFIRST'
	list[5] = LF_ENUMERATE, public, value = (LF_CHAR) -1(0xFF), name = 'DISPLAYCONFIG_SCANLINE_ORDERING_FORCE_UINT32'

0x100e : Length = 86, Leaf = 0x1507 LF_ENUM
	# members = 6,  type = T_INT4(0074) field list type 0x100d
	enum name = DISPLAYCONFIG_SCANLINE_ORDERING, UDT(0x0000100e)

0x100f : Length = 186, Leaf = 0x1203 LF_FIELDLIST
	list[0] = LF_ENUMERATE, public, value = 1, name = 'JOB_OBJECT_NET_RATE_CONTROL_ENABLE'
	list[1] = LF_ENUMERATE, public, value = 2, name = 'JOB_OBJECT_NET_RATE_CONTROL_MAX_BANDWIDTH'
	list[2] = LF_ENUMERATE, public, value = 4, name = 'JOB_OBJECT_NET_RATE_CONTROL_DSCP_TAG'
	list[3] = LF_ENUMERATE, public, value = 7, name = 'JOB_OBJECT_NET_RATE_CONTROL_VALID_FLAGS'

0x1010 : Length = 90, Leaf = 0x1507 LF_ENUM
	# members = 4,  type = T_INT4(0074) field list type 0x100f
	enum name = JOB_OBJECT_NET_RATE_CONTROL_FLAGS, UDT(0x00001010)

0x1011 : Length = 262, Leaf = 0x1203 LF_FIELDLIST
	list[0] = LF_ENUMERATE, public, value = 1, name = 'JOB_OBJECT_IO_RATE_CONTROL_ENABLE'
	list[1] = LF_ENUMERATE, public, value = 2, name = 'JOB_OBJECT_IO_RATE_CONTROL_STANDALONE_VOLUME'
	list[2] = LF_ENUMERATE, public, value = 4, name = 'JOB_OBJECT_IO_RATE_CONTROL_FORCE_UNIT_ACCESS_ALL'
	list[3] = LF_ENUMERATE, public, value = 8, name = 'JOB_OBJECT_IO_RATE_CONTROL_FORCE_UNIT_ACCESS_ON_SOFT_CAP'
	list[4] = LF_ENUMERATE, public, value = 15, name = 'JOB_OBJECT_IO_RATE_CONTROL_VALID_FLAGS'

0x1012 : Length = 90, Leaf = 0x1507 LF_ENUM
	# members = 5,  type = T_INT4(0074) field list type 0x1011
	enum name = JOB_OBJECT_IO_RATE_CONTROL_FLAGS, UDT(0x00001012)

0x1013 : Length = 10, Leaf = 0x1001 LF_MODIFIER
	const, modifies type T_INT4(0074)

0x1014 : Length = 626, Leaf = 0x1203 LF_FIELDLIST
	list[0] = LF_ENUMERATE, public, value = 0, name = 'XML_SUCCESS'
	list[1] = LF_ENUMERATE, public, value = 1, name = 'XML_NO_ATTRIBUTE'
	list[2] = LF_ENUMERATE, public, value = 2, name = 'XML_WRONG_ATTRIBUTE_TYPE'
	list[3] = LF_ENUMERATE, public, value = 3, name = 'XML_ERROR_FILE_NOT_FOUND'
	list[4] = LF_ENUMERATE, public, value = 4, name = 'XML_ERROR_FILE_COULD_NOT_BE_OPENED'
	list[5] = LF_ENUMERATE, public, value = 5, name = 'XML_ERROR_FILE_READ_ERROR'
	list[6] = LF_ENUMERATE, public, value = 6, name = 'XML_ERROR_PARSING_ELEMENT'
	list[7] = LF_ENUMERATE, public, value = 7, name = 'XML_ERROR_PARSING_ATTRIBUTE'
	list[8] = LF_ENUMERATE, public, value = 8, name = 'XML_ERROR_PARSING_TEXT'
	list[9] = LF_ENUMERATE, public, value = 9, name = 'XML_ERROR_PARSING_CDATA'
	list[10] = LF_ENUMERATE, public, value = 10, name = 'XML_ERROR_PARSING_COMMENT'
	list[11] = LF_ENUMERATE, public, value = 11, name = 'XML_ERROR_PARSING_DECLARATION'
	list[12] = LF_ENUMERATE, public, value = 12, name = 'XML_ERROR_PARSING_UNKNOWN'
	list[13] = LF_ENUMERATE, public, value = 13, name = 'XML_ERROR_EMPTY_DOCUMENT'
	list[14] = LF_ENUMERATE, public, value = 14, name = 'XML_ERROR_MISMATCHED_ELEMENT'
	list[15] = LF_ENUMERATE, public, value = 15, name = 'XML_ERROR_PARSING'
	list[16] = LF_ENUMERATE, public, value = 16, name = 'XML_CAN_NOT_CONVERT_TEXT'
	list[17] = LF_ENUMERATE, public, value = 17, name = 'XML_NO_TEXT_NODE'
	list[18] = LF_ENUMERATE, public, value = 18, name = 'XML_ELEMENT_DEPTH_EXCEEDED'
	list[19] = LF_ENUMERATE, public, value = 19, name = 'XML_ERROR_COUNT'

0x1015 : Length = 58, Leaf = 0x1507 LF_ENUM
	# members = 20,  type = T_INT4(0074) field list type 0x1014
	enum name = tinyxml2::XMLError, UDT(0x00001015)

0x1016 : Length = 94, Leaf = 0x1505 LF_STRUCTURE
	# members = 0,  field list type 0x0000, NESTED, FORWARD REF, 
	Derivation list type 0x0000, VT shape type 0x0000
	Size = 0, class name = _LARGE_INTEGER::<unnamed-type-u>, unique name = .?AU<unnamed-type-u>@_LARGE_INTEGER@@, UDT(0x0000101a)

0x1017 : Length = 102, Leaf = 0x1203 LF_FIELDLIST
	list[0] = LF_MEMBER, public, type = T_ULONG(0022), offset = 0
		member name = 'LowPart'
	list[1] = LF_MEMBER, public, type = T_LONG(0012), offset = 4
		member name = 'HighPart'
	list[2] = LF_NESTTYPE, type = 0x1016, <unnamed-type-u>
	list[3] = LF_MEMBER, public, type = 0x1016, offset = 0
		member name = 'u'
	list[4] = LF_MEMBER, public, type = T_QUAD(0013), offset = 0
		member name = 'QuadPart'

0x1018 : Length = 50, Leaf = 0x1506 LF_UNION
	# members = 5,  field list type 0x1017, CONTAINS NESTED, SEALED, Size = 8	,class name = _LARGE_INTEGER, unique name = .?AT_LARGE_INTEGER@@, UDT(0x00001018)

0x1019 : Length = 42, Leaf = 0x1203 LF_FIELDLIST
	list[0] = LF_MEMBER, public, type = T_ULONG(0022), offset = 0
		member name = 'LowPart'
	list[1] = LF_MEMBER, public, type = T_LONG(0012), offset = 4
		member name = 'HighPart'

0x101a : Length = 94, Leaf = 0x1505 LF_STRUCTURE
	# members = 2,  field list type 0x1019, NESTED, 
	Derivation list type 0x0000, VT shape type 0x0000
	Size = 8, class name = _LARGE_INTEGER::<unnamed-type-u>, unique name = .?AU<unnamed-type-u>@_LARGE_INTEGER@@, UDT(0x0000101a)

0x101b : Length = 6, Leaf = 0x000a LF_VTSHAPE
	Number of entries : 1
		[0]: NEAR

0x101c : Length = 10, Leaf = 0x1002 LF_POINTER
	Pointer (NEAR32), Size: 4
	Element type : 0x101B

0x101d : Length = 10, Leaf = 0x1001 LF_MODIFIER
	const, modifies type T_RCHAR(0070)

0x101e : Length = 10, Leaf = 0x1002 LF_POINTER
	Pointer (NEAR32), Size: 4
	Element type : 0x101D

0x101f : Length = 74, Leaf = 0x1504 LF_CLASS
	# members = 0,  field list type 0x0000, FORWARD REF, 
	Derivation list type 0x0000, VT shape type 0x0000
	Size = 0, class name = tinyxml2::XMLAttribute, unique name = .?AVXMLAttribute@tinyxml2@@, UDT(0x0000105e)

0x1020 : Length = 10, Leaf = 0x1001 LF_MODIFIER
	const, modifies type 0x101F

0x1021 : Length = 10, Leaf = 0x1002 LF_POINTER
	const Pointer (NEAR32), Size: 4
	Element type : 0x1020

0x1022 : Length = 6, Leaf = 0x1201 LF_ARGLIST argument count = 0

0x1023 : Length = 26, Leaf = 0x1009 LF_MFUNCTION
	Return type = 0x101E, Class type = 0x101F, This type = 0x1021, 
	Call type = ThisCall, Func attr = none
	Parms = 0, Arg list type = 0x1022, This adjust = 0

0x1024 : Length = 26, Leaf = 0x1009 LF_MFUNCTION
	Return type = T_INT4(0074), Class type = 0x101F, This type = 0x1021, 
	Call type = ThisCall, Func attr = none
	Parms = 0, Arg list type = 0x1022, This adjust = 0

0x1025 : Length = 10, Leaf = 0x1002 LF_POINTER
	Pointer (NEAR32), Size: 4
	Element type : 0x1020

0x1026 : Length = 26, Leaf = 0x1009 LF_MFUNCTION
	Return type = 0x1025, Class type = 0x101F, This type = 0x1021, 
	Call type = ThisCall, Func attr = none
	Parms = 0, Arg list type = 0x1022, This adjust = 0

0x1027 : Length = 26, Leaf = 0x1009 LF_MFUNCTION
	Return type = T_QUAD(0013), Class type = 0x101F, This type = 0x1021, 
	Call type = ThisCall, Func attr = none
	Parms = 0, Arg list type = 0x1022, This adjust = 0

0x1028 : Length = 26, Leaf = 0x1009 LF_MFUNCTION
	Return type = T_UQUAD(0023), Class type = 0x101F, This type = 0x1021, 
	Call type = ThisCall, Func attr = none
	Parms = 0, Arg list type = 0x1022, This adjust = 0

0x1029 : Length = 26, Leaf = 0x1009 LF_MFUNCTION
	Return type = T_UINT4(0075), Class type = 0x101F, This type = 0x1021, 
	Call type = ThisCall, Func attr = none
	Parms = 0, Arg list type = 0x1022, This adjust = 0

0x102a : Length = 26, Leaf = 0x1009 LF_MFUNCTION
	Return type = T_BOOL08(0030), Class type = 0x101F, This type = 0x1021, 
	Call type = ThisCall, Func attr = none
	Parms = 0, Arg list type = 0x1022, This adjust = 0

0x102b : Length = 26, Leaf = 0x1009 LF_MFUNCTION
	Return type = T_REAL64(0041), Class type = 0x101F, This type = 0x1021, 
	Call type = ThisCall, Func attr = none
	Parms = 0, Arg list type = 0x1022, This adjust = 0

0x102c : Length = 26, Leaf = 0x1009 LF_MFUNCTION
	Return type = T_REAL32(0040), Class type = 0x101F, This type = 0x1021, 
	Call type = ThisCall, Func attr = none
	Parms = 0, Arg list type = 0x1022, This adjust = 0

0x102d : Length = 10, Leaf = 0x1201 LF_ARGLIST argument count = 1
	list[0] = T_32PINT4(0474)

0x102e : Length = 26, Leaf = 0x1009 LF_MFUNCTION
	Return type = 0x1015, Class type = 0x101F, This type = 0x1021, 
	Call type = ThisCall, Func attr = none
	Parms = 1, Arg list type = 0x102d, This adjust = 0

0x102f : Length = 10, Leaf = 0x1201 LF_ARGLIST argument count = 1
	list[0] = T_32PUINT4(0475)

0x1030 : Length = 26, Leaf = 0x1009 LF_MFUNCTION
	Return type = 0x1015, Class type = 0x101F, This type = 0x1021, 
	Call type = ThisCall, Func attr = none
	Parms = 1, Arg list type = 0x102f, This adjust = 0

0x1031 : Length = 10, Leaf = 0x1201 LF_ARGLIST argument count = 1
	list[0] = T_32PQUAD(0413)

0x1032 : Length = 26, Leaf = 0x1009 LF_MFUNCTION
	Return type = 0x1015, Class type = 0x101F, This type = 0x1021, 
	Call type = ThisCall, Func attr = none
	Parms = 1, Arg list type = 0x1031, This adjust = 0

0x1033 : Length = 10, Leaf = 0x1201 LF_ARGLIST argument count = 1
	list[0] = T_32PUQUAD(0423)

0x1034 : Length = 26, Leaf = 0x1009 LF_MFUNCTION
	Return type = 0x1015, Class type = 0x101F, This type = 0x1021, 
	Call type = ThisCall, Func attr = none
	Parms = 1, Arg list type = 0x1033, This adjust = 0

0x1035 : Length = 10, Leaf = 0x1201 LF_ARGLIST argument count = 1
	list[0] = T_32PBOOL08(0430)

0x1036 : Length = 26, Leaf = 0x1009 LF_MFUNCTION
	Return type = 0x1015, Class type = 0x101F, This type = 0x1021, 
	Call type = ThisCall, Func attr = none
	Parms = 1, Arg list type = 0x1035, This adjust = 0

0x1037 : Length = 10, Leaf = 0x1201 LF_ARGLIST argument count = 1
	list[0] = T_32PREAL64(0441)

0x1038 : Length = 26, Leaf = 0x1009 LF_MFUNCTION
	Return type = 0x1015, Class type = 0x101F, This type = 0x1021, 
	Call type = ThisCall, Func attr = none
	Parms = 1, Arg list type = 0x1037, This adjust = 0

0x1039 : Length = 10, Leaf = 0x1201 LF_ARGLIST argument count = 1
	list[0] = T_32PREAL32(0440)

0x103a : Length = 26, Leaf = 0x1009 LF_MFUNCTION
	Return type = 0x1015, Class type = 0x101F, This type = 0x1021, 
	Call type = ThisCall, Func attr = none
	Parms = 1, Arg list type = 0x1039, This adjust = 0

0x103b : Length = 10, Leaf = 0x1002 LF_POINTER
	const Pointer (NEAR32), Size: 4
	Element type : 0x101F

0x103c : Length = 10, Leaf = 0x1201 LF_ARGLIST argument count = 1
	list[0] = T_REAL32(0040)

0x103d : Length = 26, Leaf = 0x1009 LF_MFUNCTION
	Return type = T_VOID(0003), Class type = 0x101F, This type = 0x103B, 
	Call type = ThisCall, Func attr = none
	Parms = 1, Arg list type = 0x103c, This adjust = 0

0x103e : Length = 10, Leaf = 0x1201 LF_ARGLIST argument count = 1
	list[0] = T_REAL64(0041)

0x103f : Length = 26, Leaf = 0x1009 LF_MFUNCTION
	Return type = T_VOID(0003), Class type = 0x101F, This type = 0x103B, 
	Call type = ThisCall, Func attr = none
	Parms = 1, Arg list type = 0x103e, This adjust = 0

0x1040 : Length = 10, Leaf = 0x1201 LF_ARGLIST argument count = 1
	list[0] = T_BOOL08(0030)

0x1041 : Length = 26, Leaf = 0x1009 LF_MFUNCTION
	Return type = T_VOID(0003), Class type = 0x101F, This type = 0x103B, 
	Call type = ThisCall, Func attr = none
	Parms = 1, Arg list type = 0x1040, This adjust = 0

0x1042 : Length = 10, Leaf = 0x1201 LF_ARGLIST argument count = 1
	list[0] = T_UQUAD(0023)

0x1043 : Length = 26, Leaf = 0x1009 LF_MFUNCTION
	Return type = T_VOID(0003), Class type = 0x101F, This type = 0x103B, 
	Call type = ThisCall, Func attr = none
	Parms = 1, Arg list type = 0x1042, This adjust = 0

0x1044 : Length = 10, Leaf = 0x1201 LF_ARGLIST argument count = 1
	list[0] = T_QUAD(0013)

0x1045 : Length = 26, Leaf = 0x1009 LF_MFUNCTION
	Return type = T_VOID(0003), Class type = 0x101F, This type = 0x103B, 
	Call type = ThisCall, Func attr = none
	Parms = 1, Arg list type = 0x1044, This adjust = 0

0x1046 : Length = 10, Leaf = 0x1201 LF_ARGLIST argument count = 1
	list[0] = T_UINT4(0075)

0x1047 : Length = 26, Leaf = 0x1009 LF_MFUNCTION
	Return type = T_VOID(0003), Class type = 0x101F, This type = 0x103B, 
	Call type = ThisCall, Func attr = none
	Parms = 1, Arg list type = 0x1046, This adjust = 0

0x1048 : Length = 10, Leaf = 0x1201 LF_ARGLIST argument count = 1
	list[0] = T_INT4(0074)

0x1049 : Length = 26, Leaf = 0x1009 LF_MFUNCTION
	Return type = T_VOID(0003), Class type = 0x101F, This type = 0x103B, 
	Call type = ThisCall, Func attr = none
	Parms = 1, Arg list type = 0x1048, This adjust = 0

0x104a : Length = 10, Leaf = 0x1201 LF_ARGLIST argument count = 1
	list[0] = 0x101E

0x104b : Length = 26, Leaf = 0x1009 LF_MFUNCTION
	Return type = T_VOID(0003), Class type = 0x101F, This type = 0x103B, 
	Call type = ThisCall, Func attr = none
	Parms = 1, Arg list type = 0x104a, This adjust = 0

0x104c : Length = 66, Leaf = 0x1206 LF_METHODLIST
	list[0] = public, VANILLA, 0x103D, 
	list[1] = public, VANILLA, 0x103F, 
	list[2] = public, VANILLA, 0x1041, 
	list[3] = public, VANILLA, 0x1043, 
	list[4] = public, VANILLA, 0x1045, 
	list[5] = public, VANILLA, 0x1047, 
	list[6] = public, VANILLA, 0x1049, 
	list[7] = public, VANILLA, 0x104B, 

0x104d : Length = 18, Leaf = 0x1203 LF_FIELDLIST
	list[0] = LF_ENUMERATE, public, value = 200, name = 'BUF_SIZE'

0x104e : Length = 118, Leaf = 0x1507 LF_ENUM
	# members = 1,  type = T_INT4(0074) field list type 0x104d
NESTED, 	enum name = tinyxml2::XMLAttribute::<unnamed-enum-BUF_SIZE>, UDT(0x0000104e)

0x104f : Length = 10, Leaf = 0x1002 LF_POINTER
	L-value Reference (NEAR32), Size: 4
	Element type : 0x1020

0x1050 : Length = 10, Leaf = 0x1201 LF_ARGLIST argument count = 1
	list[0] = 0x104F

0x1051 : Length = 26, Leaf = 0x1009 LF_MFUNCTION
	Return type = T_VOID(0003), Class type = 0x101F, This type = 0x103B, 
	Call type = ThisCall, Func attr = instance constructor
	Parms = 1, Arg list type = 0x1050, This adjust = 0

0x1052 : Length = 26, Leaf = 0x1009 LF_MFUNCTION
	Return type = T_VOID(0003), Class type = 0x101F, This type = 0x103B, 
	Call type = ThisCall, Func attr = instance constructor
	Parms = 0, Arg list type = 0x1022, This adjust = 0

0x1053 : Length = 18, Leaf = 0x1206 LF_METHODLIST
	list[0] = private, VANILLA, 0x1051, 
	list[1] = private, VANILLA, 0x1052, 

0x1054 : Length = 26, Leaf = 0x1009 LF_MFUNCTION
	Return type = T_VOID(0003), Class type = 0x101F, This type = 0x103B, 
	Call type = ThisCall, Func attr = none
	Parms = 0, Arg list type = 0x1022, This adjust = 0

0x1055 : Length = 26, Leaf = 0x1009 LF_MFUNCTION
	Return type = T_VOID(0003), Class type = 0x101F, This type = 0x103B, 
	Call type = ThisCall, Func attr = none
	Parms = 1, Arg list type = 0x1050, This adjust = 0

0x1056 : Length = 18, Leaf = 0x1201 LF_ARGLIST argument count = 3
	list[0] = T_32PRCHAR(0470)
	list[1] = T_BOOL08(0030)
	list[2] = T_32PINT4(0474)

0x1057 : Length = 26, Leaf = 0x1009 LF_MFUNCTION
	Return type = T_32PRCHAR(0470), Class type = 0x101F, This type = 0x103B, 
	Call type = ThisCall, Func attr = none
	Parms = 3, Arg list type = 0x1056, This adjust = 0

0x1058 : Length = 62, Leaf = 0x1504 LF_CLASS
	# members = 0,  field list type 0x0000, FORWARD REF, 
	Derivation list type 0x0000, VT shape type 0x0000
	Size = 0, class name = tinyxml2::StrPair, unique name = .?AVStrPair@tinyxml2@@, UDT(0x00001363)

0x1059 : Length = 10, Leaf = 0x1002 LF_POINTER
	Pointer (NEAR32), Size: 4
	Element type : 0x101F

0x105a : Length = 62, Leaf = 0x1504 LF_CLASS
	# members = 0,  field list type 0x0000, FORWARD REF, 
	Derivation list type 0x0000, VT shape type 0x0000
	Size = 0, class name = tinyxml2::MemPool, unique name = .?AVMemPool@tinyxml2@@, UDT(0x00001229)

0x105b : Length = 10, Leaf = 0x1002 LF_POINTER
	Pointer (NEAR32), Size: 4
	Element type : 0x105A

0x105c : Length = 26, Leaf = 0x1009 LF_MFUNCTION
	Return type = T_32PVOID(0403), Class type = 0x101F, This type = 0x103B, 
	Call type = ThisCall, Func attr = none
	Parms = 1, Arg list type = 0x1046, This adjust = 0

0x105d : Length = 766, Leaf = 0x1203 LF_FIELDLIST
	list[0] = LF_VFUNCTAB, type = 0x101C
	list[1] = LF_ONEMETHOD, public, VANILLA, index = 0x1023, name = 'Name'
	list[2] = LF_ONEMETHOD, public, VANILLA, index = 0x1023, name = 'Value'
	list[3] = LF_ONEMETHOD, public, VANILLA, index = 0x1024, name = 'GetLineNum'
	list[4] = LF_ONEMETHOD, public, VANILLA, index = 0x1026, name = 'Next'
	list[5] = LF_ONEMETHOD, public, VANILLA, index = 0x1024, name = 'IntValue'
	list[6] = LF_ONEMETHOD, public, VANILLA, index = 0x1027, name = 'Int64Value'
	list[7] = LF_ONEMETHOD, public, VANILLA, index = 0x1028, name = 'Unsigned64Value'
	list[8] = LF_ONEMETHOD, public, VANILLA, index = 0x1029, name = 'UnsignedValue'
	list[9] = LF_ONEMETHOD, public, VANILLA, index = 0x102A, name = 'BoolValue'
	list[10] = LF_ONEMETHOD, public, VANILLA, index = 0x102B, name = 'DoubleValue'
	list[11] = LF_ONEMETHOD, public, VANILLA, index = 0x102C, name = 'FloatValue'
	list[12] = LF_ONEMETHOD, public, VANILLA, index = 0x102E, name = 'QueryIntValue'
	list[13] = LF_ONEMETHOD, public, VANILLA, index = 0x1030, name = 'QueryUnsignedValue'
	list[14] = LF_ONEMETHOD, public, VANILLA, index = 0x1032, name = 'QueryInt64Value'
	list[15] = LF_ONEMETHOD, public, VANILLA, index = 0x1034, name = 'QueryUnsigned64Value'
	list[16] = LF_ONEMETHOD, public, VANILLA, index = 0x1036, name = 'QueryBoolValue'
	list[17] = LF_ONEMETHOD, public, VANILLA, index = 0x1038, name = 'QueryDoubleValue'
	list[18] = LF_ONEMETHOD, public, VANILLA, index = 0x103A, name = 'QueryFloatValue'
	list[19] = LF_METHOD, count = 8, list = 0x104C, name = 'SetAttribute'
	list[20] = LF_NESTTYPE, type = 0x104E, <unnamed-enum-BUF_SIZE>
	list[21] = LF_METHOD, count = 2, list = 0x1053, name = 'XMLAttribute'
	list[22] = LF_ONEMETHOD, private, INTRODUCING VIRTUAL, index = 0x1054, 
		vfptr offset = 0, name = '~XMLAttribute'
	list[23] = LF_ONEMETHOD, private, VANILLA, index = 0x1055, name = 'operator='
	list[24] = LF_ONEMETHOD, private, VANILLA, index = 0x104B, name = 'SetName'
	list[25] = LF_ONEMETHOD, private, VANILLA, index = 0x1057, name = 'ParseDeep'
	list[26] = LF_MEMBER, private, type = 0x1058, offset = 4
		member name = '_name'
	list[27] = LF_MEMBER, private, type = 0x1058, offset = 16
		member name = '_value'
	list[28] = LF_MEMBER, private, type = T_INT4(0074), offset = 28
		member name = '_parseLineNum'
	list[29] = LF_MEMBER, private, type = 0x1059, offset = 32
		member name = '_next'
	list[30] = LF_MEMBER, private, type = 0x105B, offset = 36
		member name = '_memPool'
	list[31] = LF_ONEMETHOD, public, VANILLA, (compgenx), index = 0x1047, name = '__autoclassinit2'
	list[32] = LF_ONEMETHOD, public, VANILLA, (compgenx), index = 0x1054, name = '__local_vftable_ctor_closure'
	list[33] = LF_ONEMETHOD, private, INTRODUCING VIRTUAL, (compgenx), index = 0x105C, 
		vfptr offset = 0, name = '__vecDelDtor'

0x105e : Length = 74, Leaf = 0x1504 LF_CLASS
	# members = 42,  field list type 0x105d, CONSTRUCTOR, OVERLOAD, CONTAINS NESTED, OVERLOADED ASSIGNMENT, 
	Derivation list type 0x0000, VT shape type 0x101b
	Size = 40, class name = tinyxml2::XMLAttribute, unique name = .?AVXMLAttribute@tinyxml2@@, UDT(0x0000105e)

0x105f : Length = 62, Leaf = 0x1504 LF_CLASS
	# members = 0,  field list type 0x0000, FORWARD REF, 
	Derivation list type 0x0000, VT shape type 0x0000
	Size = 0, class name = tinyxml2::XMLNode, unique name = .?AVXMLNode@tinyxml2@@, UDT(0x00001264)

0x1060 : Length = 70, Leaf = 0x1504 LF_CLASS
	# members = 0,  field list type 0x0000, FORWARD REF, 
	Derivation list type 0x0000, VT shape type 0x0000
	Size = 0, class name = tinyxml2::XMLUnknown, unique name = .?AVXMLUnknown@tinyxml2@@, UDT(0x00001085)

0x1061 : Length = 10, Leaf = 0x1001 LF_MODIFIER
	const, modifies type 0x1060

0x1062 : Length = 10, Leaf = 0x1002 LF_POINTER
	Pointer (NEAR32), Size: 4
	Element type : 0x1061

0x1063 : Length = 10, Leaf = 0x1002 LF_POINTER
	const Pointer (NEAR32), Size: 4
	Element type : 0x1061

0x1064 : Length = 26, Leaf = 0x1009 LF_MFUNCTION
	Return type = 0x1062, Class type = 0x1060, This type = 0x1063, 
	Call type = ThisCall, Func attr = none
	Parms = 0, Arg list type = 0x1022, This adjust = 0

0x1065 : Length = 10, Leaf = 0x1002 LF_POINTER
	Pointer (NEAR32), Size: 4
	Element type : 0x1060

0x1066 : Length = 10, Leaf = 0x1002 LF_POINTER
	const Pointer (NEAR32), Size: 4
	Element type : 0x1060

0x1067 : Length = 26, Leaf = 0x1009 LF_MFUNCTION
	Return type = 0x1065, Class type = 0x1060, This type = 0x1066, 
	Call type = ThisCall, Func attr = none
	Parms = 0, Arg list type = 0x1022, This adjust = 0

0x1068 : Length = 18, Leaf = 0x1206 LF_METHODLIST
	list[0] = public, VIRTUAL, 0x1064, 
	list[1] = public, VIRTUAL, 0x1067, 

0x1069 : Length = 70, Leaf = 0x1504 LF_CLASS
	# members = 0,  field list type 0x0000, FORWARD REF, 
	Derivation list type 0x0000, VT shape type 0x0000
	Size = 0, class name = tinyxml2::XMLVisitor, unique name = .?AVXMLVisitor@tinyxml2@@, UDT(0x0000139d)

0x106a : Length = 10, Leaf = 0x1002 LF_POINTER
	Pointer (NEAR32), Size: 4
	Element type : 0x1069

0x106b : Length = 10, Leaf = 0x1201 LF_ARGLIST argument count = 1
	list[0] = 0x106A

0x106c : Length = 26, Leaf = 0x1009 LF_MFUNCTION
	Return type = T_BOOL08(0030), Class type = 0x1060, This type = 0x1063, 
	Call type = ThisCall, Func attr = none
	Parms = 1, Arg list type = 0x106b, This adjust = 0

0x106d : Length = 10, Leaf = 0x1002 LF_POINTER
	Pointer (NEAR32), Size: 4
	Element type : 0x105F

0x106e : Length = 70, Leaf = 0x1504 LF_CLASS
	# members = 0,  field list type 0x0000, FORWARD REF, 
	Derivation list type 0x0000, VT shape type 0x0000
	Size = 0, class name = tinyxml2::XMLDocument, unique name = .?AVXMLDocument@tinyxml2@@, UDT(0x000013d7)

0x106f : Length = 10, Leaf = 0x1002 LF_POINTER
	Pointer (NEAR32), Size: 4
	Element type : 0x106E

0x1070 : Length = 10, Leaf = 0x1201 LF_ARGLIST argument count = 1
	list[0] = 0x106F

0x1071 : Length = 26, Leaf = 0x1009 LF_MFUNCTION
	Return type = 0x106D, Class type = 0x1060, This type = 0x1063, 
	Call type = ThisCall, Func attr = none
	Parms = 1, Arg list type = 0x1070, This adjust = 0

0x1072 : Length = 10, Leaf = 0x1001 LF_MODIFIER
	const, modifies type 0x105F

0x1073 : Length = 10, Leaf = 0x1002 LF_POINTER
	Pointer (NEAR32), Size: 4
	Element type : 0x1072

0x1074 : Length = 10, Leaf = 0x1201 LF_ARGLIST argument count = 1
	list[0] = 0x1073

0x1075 : Length = 26, Leaf = 0x1009 LF_MFUNCTION
	Return type = T_BOOL08(0030), Class type = 0x1060, This type = 0x1063, 
	Call type = ThisCall, Func attr = none
	Parms = 1, Arg list type = 0x1074, This adjust = 0

0x1076 : Length = 10, Leaf = 0x1002 LF_POINTER
	L-value Reference (NEAR32), Size: 4
	Element type : 0x1061

0x1077 : Length = 10, Leaf = 0x1201 LF_ARGLIST argument count = 1
	list[0] = 0x1076

0x1078 : Length = 26, Leaf = 0x1009 LF_MFUNCTION
	Return type = T_VOID(0003), Class type = 0x1060, This type = 0x1066, 
	Call type = ThisCall, Func attr = instance constructor
	Parms = 1, Arg list type = 0x1077, This adjust = 0

0x1079 : Length = 26, Leaf = 0x1009 LF_MFUNCTION
	Return type = T_VOID(0003), Class type = 0x1060, This type = 0x1066, 
	Call type = ThisCall, Func attr = instance constructor
	Parms = 1, Arg list type = 0x1070, This adjust = 0

0x107a : Length = 18, Leaf = 0x1206 LF_METHODLIST
	list[0] = private, VANILLA, 0x1078, 
	list[1] = protected, VANILLA, 0x1079, 

0x107b : Length = 26, Leaf = 0x1009 LF_MFUNCTION
	Return type = T_VOID(0003), Class type = 0x1060, This type = 0x1066, 
	Call type = ThisCall, Func attr = none
	Parms = 0, Arg list type = 0x1022, This adjust = 0

0x107c : Length = 10, Leaf = 0x1002 LF_POINTER
	Pointer (NEAR32), Size: 4
	Element type : 0x1058

0x107d : Length = 18, Leaf = 0x1201 LF_ARGLIST argument count = 3
	list[0] = T_32PRCHAR(0470)
	list[1] = 0x107C
	list[2] = T_32PINT4(0474)

0x107e : Length = 26, Leaf = 0x1009 LF_MFUNCTION
	Return type = T_32PRCHAR(0470), Class type = 0x1060, This type = 0x1066, 
	Call type = ThisCall, Func attr = none
	Parms = 3, Arg list type = 0x107d, This adjust = 0

0x107f : Length = 10, Leaf = 0x1002 LF_POINTER
	L-value Reference (NEAR32), Size: 4
	Element type : 0x1060

0x1080 : Length = 26, Leaf = 0x1009 LF_MFUNCTION
	Return type = 0x107F, Class type = 0x1060, This type = 0x1066, 
	Call type = ThisCall, Func attr = none
	Parms = 1, Arg list type = 0x1077, This adjust = 0

0x1081 : Length = 26, Leaf = 0x1009 LF_MFUNCTION
	Return type = T_VOID(0003), Class type = 0x1060, This type = 0x1066, 
	Call type = ThisCall, Func attr = none
	Parms = 1, Arg list type = 0x1046, This adjust = 0

0x1082 : Length = 26, Leaf = 0x1009 LF_MFUNCTION
	Return type = T_32PVOID(0403), Class type = 0x1060, This type = 0x1066, 
	Call type = ThisCall, Func attr = none
	Parms = 1, Arg list type = 0x1046, This adjust = 0

0x1083 : Length = 234, Leaf = 0x1203 LF_FIELDLIST
	list[0] = LF_BCLASS, public, type = 0x105F, offset = 0
	list[1] = LF_METHOD, count = 2, list = 0x1068, name = 'ToUnknown'
	list[2] = LF_ONEMETHOD, public, VIRTUAL, index = 0x106C, name = 'Accept'
	list[3] = LF_ONEMETHOD, public, VIRTUAL, index = 0x1071, name = 'ShallowClone'
	list[4] = LF_ONEMETHOD, public, VIRTUAL, index = 0x1075, name = 'ShallowEqual'
	list[5] = LF_METHOD, count = 2, list = 0x107A, name = 'XMLUnknown'
	list[6] = LF_ONEMETHOD, protected, VIRTUAL, index = 0x107B, name = '~XMLUnknown'
	list[7] = LF_ONEMETHOD, protected, VIRTUAL, index = 0x107E, name = 'ParseDeep'
	list[8] = LF_ONEMETHOD, private, VANILLA, index = 0x1080, name = 'operator='
	list[9] = LF_ONEMETHOD, public, VANILLA, (compgenx), index = 0x1081, name = '__autoclassinit2'
	list[10] = LF_ONEMETHOD, protected, INTRODUCING VIRTUAL, (compgenx), index = 0x1082, 
		vfptr offset = 60, name = '__vecDelDtor'

0x1084 : Length = 14, Leaf = 0x000a LF_VTSHAPE
	Number of entries : 17
		[0]: NEAR32
		[1]: NEAR32
		[2]: NEAR32
		[3]: NEAR32
		[4]: NEAR32
		[5]: NEAR32
		[6]: NEAR32
		[7]: NEAR32
		[8]: NEAR32
		[9]: NEAR32
		[10]: NEAR32
		[11]: NEAR32
		[12]: NEAR32
		[13]: NEAR32
		[14]: NEAR32
		[15]: NEAR32
		[16]: NEAR

0x1085 : Length = 70, Leaf = 0x1504 LF_CLASS
	# members = 13,  field list type 0x1083, CONSTRUCTOR, OVERLOAD, OVERLOADED ASSIGNMENT, 
	Derivation list type 0x0000, VT shape type 0x1084
	Size = 52, class name = tinyxml2::XMLUnknown, unique name = .?AVXMLUnknown@tinyxml2@@, UDT(0x00001085)

0x1086 : Length = 70, Leaf = 0x1504 LF_CLASS
	# members = 0,  field list type 0x0000, FORWARD REF, 
	Derivation list type 0x0000, VT shape type 0x0000
	Size = 0, class name = tinyxml2::XMLPrinter, unique name = .?AVXMLPrinter@tinyxml2@@, UDT(0x000010dc)

0x1087 : Length = 10, Leaf = 0x1002 LF_POINTER
	const Pointer (NEAR32), Size: 4
	Element type : 0x1086

0x1088 : Length = 10, Leaf = 0x1001 LF_MODIFIER
	const, modifies type 0x1086

0x1089 : Length = 10, Leaf = 0x1002 LF_POINTER
	L-value Reference (NEAR32), Size: 4
	Element type : 0x1088

0x108a : Length = 10, Leaf = 0x1201 LF_ARGLIST argument count = 1
	list[0] = 0x1089

0x108b : Length = 26, Leaf = 0x1009 LF_MFUNCTION
	Return type = T_VOID(0003), Class type = 0x1086, This type = 0x1087, 
	Call type = ThisCall, Func attr = instance constructor
	Parms = 1, Arg list type = 0x108a, This adjust = 0

0x108c : Length = 42, Leaf = 0x1505 LF_STRUCTURE
	# members = 0,  field list type 0x0000, FORWARD REF, 
	Derivation list type 0x0000, VT shape type 0x0000
	Size = 0, class name = _iobuf, unique name = .?AU_iobuf@@, UDT(0x000013fa)

0x108d : Length = 10, Leaf = 0x1002 LF_POINTER
	Pointer (NEAR32), Size: 4
	Element type : 0x108C

0x108e : Length = 18, Leaf = 0x1201 LF_ARGLIST argument count = 3
	list[0] = 0x108D
	list[1] = T_BOOL08(0030)
	list[2] = T_INT4(0074)

0x108f : Length = 26, Leaf = 0x1009 LF_MFUNCTION
	Return type = T_VOID(0003), Class type = 0x1086, This type = 0x1087, 
	Call type = ThisCall, Func attr = instance constructor
	Parms = 3, Arg list type = 0x108e, This adjust = 0

0x1090 : Length = 18, Leaf = 0x1206 LF_METHODLIST
	list[0] = private, VANILLA, 0x108B, 
	list[1] = public, VANILLA, 0x108F, 

0x1091 : Length = 26, Leaf = 0x1009 LF_MFUNCTION
	Return type = T_VOID(0003), Class type = 0x1086, This type = 0x1087, 
	Call type = ThisCall, Func attr = none
	Parms = 0, Arg list type = 0x1022, This adjust = 0

0x1092 : Length = 14, Leaf = 0x1201 LF_ARGLIST argument count = 2
	list[0] = T_BOOL08(0030)
	list[1] = T_BOOL08(0030)

0x1093 : Length = 26, Leaf = 0x1009 LF_MFUNCTION
	Return type = T_VOID(0003), Class type = 0x1086, This type = 0x1087, 
	Call type = ThisCall, Func attr = none
	Parms = 2, Arg list type = 0x1092, This adjust = 0

0x1094 : Length = 14, Leaf = 0x1201 LF_ARGLIST argument count = 2
	list[0] = 0x101E
	list[1] = T_BOOL08(0030)

0x1095 : Length = 26, Leaf = 0x1009 LF_MFUNCTION
	Return type = T_VOID(0003), Class type = 0x1086, This type = 0x1087, 
	Call type = ThisCall, Func attr = none
	Parms = 2, Arg list type = 0x1094, This adjust = 0

0x1096 : Length = 14, Leaf = 0x1201 LF_ARGLIST argument count = 2
	list[0] = 0x101E
	list[1] = T_REAL64(0041)

0x1097 : Length = 26, Leaf = 0x1009 LF_MFUNCTION
	Return type = T_VOID(0003), Class type = 0x1086, This type = 0x1087, 
	Call type = ThisCall, Func attr = none
	Parms = 2, Arg list type = 0x1096, This adjust = 0

0x1098 : Length = 14, Leaf = 0x1201 LF_ARGLIST argument count = 2
	list[0] = 0x101E
	list[1] = T_UQUAD(0023)

0x1099 : Length = 26, Leaf = 0x1009 LF_MFUNCTION
	Return type = T_VOID(0003), Class type = 0x1086, This type = 0x1087, 
	Call type = ThisCall, Func attr = none
	Parms = 2, Arg list type = 0x1098, This adjust = 0

0x109a : Length = 14, Leaf = 0x1201 LF_ARGLIST argument count = 2
	list[0] = 0x101E
	list[1] = T_QUAD(0013)

0x109b : Length = 26, Leaf = 0x1009 LF_MFUNCTION
	Return type = T_VOID(0003), Class type = 0x1086, This type = 0x1087, 
	Call type = ThisCall, Func attr = none
	Parms = 2, Arg list type = 0x109a, This adjust = 0

0x109c : Length = 14, Leaf = 0x1201 LF_ARGLIST argument count = 2
	list[0] = 0x101E
	list[1] = T_UINT4(0075)

0x109d : Length = 26, Leaf = 0x1009 LF_MFUNCTION
	Return type = T_VOID(0003), Class type = 0x1086, This type = 0x1087, 
	Call type = ThisCall, Func attr = none
	Parms = 2, Arg list type = 0x109c, This adjust = 0

0x109e : Length = 14, Leaf = 0x1201 LF_ARGLIST argument count = 2
	list[0] = 0x101E
	list[1] = T_INT4(0074)

0x109f : Length = 26, Leaf = 0x1009 LF_MFUNCTION
	Return type = T_VOID(0003), Class type = 0x1086, This type = 0x1087, 
	Call type = ThisCall, Func attr = none
	Parms = 2, Arg list type = 0x109e, This adjust = 0

0x10a0 : Length = 14, Leaf = 0x1201 LF_ARGLIST argument count = 2
	list[0] = 0x101E
	list[1] = 0x101E

0x10a1 : Length = 26, Leaf = 0x1009 LF_MFUNCTION
	Return type = T_VOID(0003), Class type = 0x1086, This type = 0x1087, 
	Call type = ThisCall, Func attr = none
	Parms = 2, Arg list type = 0x10a0, This adjust = 0

0x10a2 : Length = 58, Leaf = 0x1206 LF_METHODLIST
	list[0] = public, VANILLA, 0x1097, 
	list[1] = public, VANILLA, 0x1095, 
	list[2] = public, VANILLA, 0x1099, 
	list[3] = public, VANILLA, 0x109B, 
	list[4] = public, VANILLA, 0x109D, 
	list[5] = public, VANILLA, 0x109F, 
	list[6] = public, VANILLA, 0x10A1, 

0x10a3 : Length = 26, Leaf = 0x1009 LF_MFUNCTION
	Return type = T_VOID(0003), Class type = 0x1086, This type = 0x1087, 
	Call type = ThisCall, Func attr = none
	Parms = 1, Arg list type = 0x1040, This adjust = 0

0x10a4 : Length = 26, Leaf = 0x1009 LF_MFUNCTION
	Return type = T_VOID(0003), Class type = 0x1086, This type = 0x1087, 
	Call type = ThisCall, Func attr = none
	Parms = 1, Arg list type = 0x103e, This adjust = 0

0x10a5 : Length = 26, Leaf = 0x1009 LF_MFUNCTION
	Return type = T_VOID(0003), Class type = 0x1086, This type = 0x1087, 
	Call type = ThisCall, Func attr = none
	Parms = 1, Arg list type = 0x103c, This adjust = 0

0x10a6 : Length = 26, Leaf = 0x1009 LF_MFUNCTION
	Return type = T_VOID(0003), Class type = 0x1086, This type = 0x1087, 
	Call type = ThisCall, Func attr = none
	Parms = 1, Arg list type = 0x1042, This adjust = 0

0x10a7 : Length = 26, Leaf = 0x1009 LF_MFUNCTION
	Return type = T_VOID(0003), Class type = 0x1086, This type = 0x1087, 
	Call type = ThisCall, Func attr = none
	Parms = 1, Arg list type = 0x1044, This adjust = 0

0x10a8 : Length = 26, Leaf = 0x1009 LF_MFUNCTION
	Return type = T_VOID(0003), Class type = 0x1086, This type = 0x1087, 
	Call type = ThisCall, Func attr = none
	Parms = 1, Arg list type = 0x1046, This adjust = 0

0x10a9 : Length = 26, Leaf = 0x1009 LF_MFUNCTION
	Return type = T_VOID(0003), Class type = 0x1086, This type = 0x1087, 
	Call type = ThisCall, Func attr = none
	Parms = 1, Arg list type = 0x1048, This adjust = 0

0x10aa : Length = 66, Leaf = 0x1206 LF_METHODLIST
	list[0] = public, VANILLA, 0x10A4, 
	list[1] = public, VANILLA, 0x10A5, 
	list[2] = public, VANILLA, 0x10A3, 
	list[3] = public, VANILLA, 0x10A6, 
	list[4] = public, VANILLA, 0x10A7, 
	list[5] = public, VANILLA, 0x10A8, 
	list[6] = public, VANILLA, 0x10A9, 
	list[7] = public, VANILLA, 0x1095, 

0x10ab : Length = 26, Leaf = 0x1009 LF_MFUNCTION
	Return type = T_VOID(0003), Class type = 0x1086, This type = 0x1087, 
	Call type = ThisCall, Func attr = none
	Parms = 1, Arg list type = 0x104a, This adjust = 0

0x10ac : Length = 70, Leaf = 0x1504 LF_CLASS
	# members = 0,  field list type 0x0000, FORWARD REF, 
	Derivation list type 0x0000, VT shape type 0x0000
	Size = 0, class name = tinyxml2::XMLElement, unique name = .?AVXMLElement@tinyxml2@@, UDT(0x00001345)

0x10ad : Length = 10, Leaf = 0x1001 LF_MODIFIER
	const, modifies type 0x10AC

0x10ae : Length = 10, Leaf = 0x1002 LF_POINTER
	L-value Reference (NEAR32), Size: 4
	Element type : 0x10AD

0x10af : Length = 14, Leaf = 0x1201 LF_ARGLIST argument count = 2
	list[0] = 0x10AE
	list[1] = 0x1025

0x10b0 : Length = 26, Leaf = 0x1009 LF_MFUNCTION
	Return type = T_BOOL08(0030), Class type = 0x1086, This type = 0x1087, 
	Call type = ThisCall, Func attr = none
	Parms = 2, Arg list type = 0x10af, This adjust = 0

0x10b1 : Length = 10, Leaf = 0x1001 LF_MODIFIER
	const, modifies type 0x106E

0x10b2 : Length = 10, Leaf = 0x1002 LF_POINTER
	L-value Reference (NEAR32), Size: 4
	Element type : 0x10B1

0x10b3 : Length = 10, Leaf = 0x1201 LF_ARGLIST argument count = 1
	list[0] = 0x10B2

0x10b4 : Length = 26, Leaf = 0x1009 LF_MFUNCTION
	Return type = T_BOOL08(0030), Class type = 0x1086, This type = 0x1087, 
	Call type = ThisCall, Func attr = none
	Parms = 1, Arg list type = 0x10b3, This adjust = 0

0x10b5 : Length = 18, Leaf = 0x1206 LF_METHODLIST
	list[0] = public, VIRTUAL, 0x10B0, 
	list[1] = public, VIRTUAL, 0x10B4, 

0x10b6 : Length = 10, Leaf = 0x1201 LF_ARGLIST argument count = 1
	list[0] = 0x10AE

0x10b7 : Length = 26, Leaf = 0x1009 LF_MFUNCTION
	Return type = T_BOOL08(0030), Class type = 0x1086, This type = 0x1087, 
	Call type = ThisCall, Func attr = none
	Parms = 1, Arg list type = 0x10b6, This adjust = 0

0x10b8 : Length = 18, Leaf = 0x1206 LF_METHODLIST
	list[0] = public, VIRTUAL, 0x10B7, 
	list[1] = public, VIRTUAL, 0x10B4, 

0x10b9 : Length = 26, Leaf = 0x1009 LF_MFUNCTION
	Return type = T_BOOL08(0030), Class type = 0x1086, This type = 0x1087, 
	Call type = ThisCall, Func attr = none
	Parms = 1, Arg list type = 0x1077, This adjust = 0

0x10ba : Length = 78, Leaf = 0x1504 LF_CLASS
	# members = 0,  field list type 0x0000, FORWARD REF, 
	Derivation list type 0x0000, VT shape type 0x0000
	Size = 0, class name = tinyxml2::XMLDeclaration, unique name = .?AVXMLDeclaration@tinyxml2@@, UDT(0x00001298)

0x10bb : Length = 10, Leaf = 0x1001 LF_MODIFIER
	const, modifies type 0x10BA

0x10bc : Length = 10, Leaf = 0x1002 LF_POINTER
	L-value Reference (NEAR32), Size: 4
	Element type : 0x10BB

0x10bd : Length = 10, Leaf = 0x1201 LF_ARGLIST argument count = 1
	list[0] = 0x10BC

0x10be : Length = 26, Leaf = 0x1009 LF_MFUNCTION
	Return type = T_BOOL08(0030), Class type = 0x1086, This type = 0x1087, 
	Call type = ThisCall, Func attr = none
	Parms = 1, Arg list type = 0x10bd, This adjust = 0

0x10bf : Length = 70, Leaf = 0x1504 LF_CLASS
	# members = 0,  field list type 0x0000, FORWARD REF, 
	Derivation list type 0x0000, VT shape type 0x0000
	Size = 0, class name = tinyxml2::XMLComment, unique name = .?AVXMLComment@tinyxml2@@, UDT(0x000010f1)

0x10c0 : Length = 10, Leaf = 0x1001 LF_MODIFIER
	const, modifies type 0x10BF

0x10c1 : Length = 10, Leaf = 0x1002 LF_POINTER
	L-value Reference (NEAR32), Size: 4
	Element type : 0x10C0

0x10c2 : Length = 10, Leaf = 0x1201 LF_ARGLIST argument count = 1
	list[0] = 0x10C1

0x10c3 : Length = 26, Leaf = 0x1009 LF_MFUNCTION
	Return type = T_BOOL08(0030), Class type = 0x1086, This type = 0x1087, 
	Call type = ThisCall, Func attr = none
	Parms = 1, Arg list type = 0x10c2, This adjust = 0

0x10c4 : Length = 62, Leaf = 0x1504 LF_CLASS
	# members = 0,  field list type 0x0000, FORWARD REF, 
	Derivation list type 0x0000, VT shape type 0x0000
	Size = 0, class name = tinyxml2::XMLText, unique name = .?AVXMLText@tinyxml2@@, UDT(0x000012ad)

0x10c5 : Length = 10, Leaf = 0x1001 LF_MODIFIER
	const, modifies type 0x10C4

0x10c6 : Length = 10, Leaf = 0x1002 LF_POINTER
	L-value Reference (NEAR32), Size: 4
	Element type : 0x10C5

0x10c7 : Length = 10, Leaf = 0x1201 LF_ARGLIST argument count = 1
	list[0] = 0x10C6

0x10c8 : Length = 26, Leaf = 0x1009 LF_MFUNCTION
	Return type = T_BOOL08(0030), Class type = 0x1086, This type = 0x1087, 
	Call type = ThisCall, Func attr = none
	Parms = 1, Arg list type = 0x10c7, This adjust = 0

0x10c9 : Length = 34, Leaf = 0x1206 LF_METHODLIST
	list[0] = public, VIRTUAL, 0x10B9, 
	list[1] = public, VIRTUAL, 0x10BE, 
	list[2] = public, VIRTUAL, 0x10C3, 
	list[3] = public, VIRTUAL, 0x10C8, 

0x10ca : Length = 10, Leaf = 0x1002 LF_POINTER
	const Pointer (NEAR32), Size: 4
	Element type : 0x1088

0x10cb : Length = 26, Leaf = 0x1009 LF_MFUNCTION
	Return type = 0x101E, Class type = 0x1086, This type = 0x10CA, 
	Call type = ThisCall, Func attr = none
	Parms = 0, Arg list type = 0x1022, This adjust = 0

0x10cc : Length = 26, Leaf = 0x1009 LF_MFUNCTION
	Return type = T_INT4(0074), Class type = 0x1086, This type = 0x10CA, 
	Call type = ThisCall, Func attr = none
	Parms = 0, Arg list type = 0x1022, This adjust = 0

0x10cd : Length = 14, Leaf = 0x1201 LF_ARGLIST argument count = 2
	list[0] = 0x101E
	list[1] = T_NOTYPE(0000)

0x10ce : Length = 26, Leaf = 0x1009 LF_MFUNCTION
	Return type = T_VOID(0003), Class type = 0x1086, This type = 0x1087, 
	Call type = C Near, Func attr = none
	Parms = 2, Arg list type = 0x10cd, This adjust = 0

0x10cf : Length = 22, Leaf = 0x1206 LF_METHODLIST
	list[0] = protected, VANILLA, 0x10AB, 
	list[1] = protected, INTRODUCING VIRTUAL, 0x109D,  vfptr offset = 52

0x10d0 : Length = 10, Leaf = 0x1201 LF_ARGLIST argument count = 1
	list[0] = T_RCHAR(0070)

0x10d1 : Length = 26, Leaf = 0x1009 LF_MFUNCTION
	Return type = T_VOID(0003), Class type = 0x1086, This type = 0x1087, 
	Call type = ThisCall, Func attr = none
	Parms = 1, Arg list type = 0x10d0, This adjust = 0

0x10d2 : Length = 90, Leaf = 0x1504 LF_CLASS
	# members = 0,  field list type 0x0000, FORWARD REF, 
	Derivation list type 0x0000, VT shape type 0x0000
	Size = 0, class name = tinyxml2::DynArray<char const *,10>, unique name = .?AV?$DynArray@PBD$09@tinyxml2@@, UDT(0x00001285)

0x10d3 : Length = 38, Leaf = 0x1203 LF_FIELDLIST
	list[0] = LF_ENUMERATE, public, value = 64, name = 'ENTITY_RANGE'
	list[1] = LF_ENUMERATE, public, value = 200, name = 'BUF_SIZE'

0x10d4 : Length = 122, Leaf = 0x1507 LF_ENUM
	# members = 2,  type = T_INT4(0074) field list type 0x10d3
NESTED, 	enum name = tinyxml2::XMLPrinter::<unnamed-enum-ENTITY_RANGE>, UDT(0x000010d4)

0x10d5 : Length = 14, Leaf = 0x1503 LF_ARRAY
	Element type = T_BOOL08(0030)
	Index type = T_ULONG(0022)
	length = 64
	Name = 

0x10d6 : Length = 82, Leaf = 0x1504 LF_CLASS
	# members = 0,  field list type 0x0000, FORWARD REF, 
	Derivation list type 0x0000, VT shape type 0x0000
	Size = 0, class name = tinyxml2::DynArray<char,20>, unique name = .?AV?$DynArray@D$0BE@@tinyxml2@@, UDT(0x000011fa)

0x10d7 : Length = 10, Leaf = 0x1002 LF_POINTER
	L-value Reference (NEAR32), Size: 4
	Element type : 0x1086

0x10d8 : Length = 26, Leaf = 0x1009 LF_MFUNCTION
	Return type = 0x10D7, Class type = 0x1086, This type = 0x1087, 
	Call type = ThisCall, Func attr = none
	Parms = 1, Arg list type = 0x108a, This adjust = 0

0x10d9 : Length = 26, Leaf = 0x1009 LF_MFUNCTION
	Return type = T_32PVOID(0403), Class type = 0x1086, This type = 0x1087, 
	Call type = ThisCall, Func attr = none
	Parms = 1, Arg list type = 0x1046, This adjust = 0

0x10da : Length = 970, Leaf = 0x1203 LF_FIELDLIST
	list[0] = LF_BCLASS, public, type = 0x1069, offset = 0
	list[1] = LF_METHOD, count = 2, list = 0x1090, name = 'XMLPrinter'
	list[2] = LF_ONEMETHOD, public, VIRTUAL, index = 0x1091, name = '~XMLPrinter'
	list[3] = LF_ONEMETHOD, public, VANILLA, index = 0x1093, name = 'PushHeader'
	list[4] = LF_ONEMETHOD, public, VANILLA, index = 0x1095, name = 'OpenElement'
	list[5] = LF_METHOD, count = 7, list = 0x10A2, name = 'PushAttribute'
	list[6] = LF_ONEMETHOD, public, INTRODUCING VIRTUAL, index = 0x10A3, 
		vfptr offset = 36, name = 'CloseElement'
	list[7] = LF_METHOD, count = 8, list = 0x10AA, name = 'PushText'
	list[8] = LF_ONEMETHOD, public, VANILLA, index = 0x10AB, name = 'PushComment'
	list[9] = LF_ONEMETHOD, public, VANILLA, index = 0x10AB, name = 'PushDeclaration'
	list[10] = LF_ONEMETHOD, public, VANILLA, index = 0x10AB, name = 'PushUnknown'
	list[11] = LF_METHOD, count = 2, list = 0x10B5, name = 'VisitEnter'
	list[12] = LF_METHOD, count = 2, list = 0x10B8, name = 'VisitExit'
	list[13] = LF_METHOD, count = 4, list = 0x10C9, name = 'Visit'
	list[14] = LF_ONEMETHOD, public, VANILLA, index = 0x10CB, name = 'CStr'
	list[15] = LF_ONEMETHOD, public, VANILLA, index = 0x10CC, name = 'CStrSize'
	list[16] = LF_ONEMETHOD, public, VANILLA, index = 0x10A3, name = 'ClearBuffer'
	list[17] = LF_ONEMETHOD, protected, INTRODUCING VIRTUAL, index = 0x10B7, 
		vfptr offset = 40, name = 'CompactMode'
	list[18] = LF_ONEMETHOD, protected, INTRODUCING VIRTUAL, index = 0x10A9, 
		vfptr offset = 44, name = 'PrintSpace'
	list[19] = LF_ONEMETHOD, protected, INTRODUCING VIRTUAL, index = 0x10CE, 
		vfptr offset = 48, name = 'Print'
	list[20] = LF_METHOD, count = 2, list = 0x10CF, name = 'Write'
	list[21] = LF_ONEMETHOD, protected, INTRODUCING VIRTUAL, index = 0x10D1, 
		vfptr offset = 56, name = 'Putc'
	list[22] = LF_ONEMETHOD, protected, VANILLA, index = 0x1091, name = 'SealElementIfJustOpened'
	list[23] = LF_MEMBER, protected, type = T_BOOL08(0030), offset = 4
		member name = '_elementJustOpened'
	list[24] = LF_MEMBER, protected, type = 0x10D2, offset = 8
		member name = '_stack'
	list[25] = LF_ONEMETHOD, private, VANILLA, index = 0x10A3, name = 'PrepareForNewNode'
	list[26] = LF_ONEMETHOD, private, VANILLA, index = 0x1095, name = 'PrintString'
	list[27] = LF_MEMBER, private, type = T_BOOL08(0030), offset = 60
		member name = '_firstElement'
	list[28] = LF_MEMBER, private, type = 0x108D, offset = 64
		member name = '_fp'
	list[29] = LF_MEMBER, private, type = T_INT4(0074), offset = 68
		member name = '_depth'
	list[30] = LF_MEMBER, private, type = T_INT4(0074), offset = 72
		member name = '_textDepth'
	list[31] = LF_MEMBER, private, type = T_BOOL08(0030), offset = 76
		member name = '_processEntities'
	list[32] = LF_MEMBER, private, type = T_BOOL08(0030), offset = 77
		member name = '_compactMode'
	list[33] = LF_NESTTYPE, type = 0x10D4, <unnamed-enum-ENTITY_RANGE>
	list[34] = LF_MEMBER, private, type = 0x10D5, offset = 78
		member name = '_entityFlag'
	list[35] = LF_MEMBER, private, type = 0x10D5, offset = 142
		member name = '_restrictedEntityFlag'
	list[36] = LF_MEMBER, private, type = 0x10D6, offset = 208
		member name = '_buffer'
	list[37] = LF_ONEMETHOD, private, VANILLA, index = 0x10D8, name = 'operator='
	list[38] = LF_ONEMETHOD, public, VANILLA, (compgenx), index = 0x10A8, name = '__autoclassinit2'
	list[39] = LF_ONEMETHOD, public, VANILLA, (compgenx), index = 0x1091, name = '__dflt_ctor_closure'
	list[40] = LF_ONEMETHOD, public, VANILLA, (compgenx), index = 0x1091, name = '__local_vftable_ctor_closure'
	list[41] = LF_ONEMETHOD, public, INTRODUCING VIRTUAL, (compgenx), index = 0x10D9, 
		vfptr offset = 0, name = '__vecDelDtor'

0x10db : Length = 14, Leaf = 0x000a LF_VTSHAPE
	Number of entries : 15
		[0]: NEAR32
		[1]: NEAR32
		[2]: NEAR32
		[3]: NEAR32
		[4]: NEAR32
		[5]: NEAR32
		[6]: NEAR32
		[7]: NEAR32
		[8]: NEAR32
		[9]: NEAR32
		[10]: NEAR32
		[11]: NEAR32
		[12]: NEAR32
		[13]: NEAR32
		[14]: NEAR

0x10dc : Length = 70, Leaf = 0x1504 LF_CLASS
	# members = 62,  field list type 0x10da, CONSTRUCTOR, OVERLOAD, CONTAINS NESTED, OVERLOADED ASSIGNMENT, 
	Derivation list type 0x0000, VT shape type 0x10db
	Size = 240, class name = tinyxml2::XMLPrinter, unique name = .?AVXMLPrinter@tinyxml2@@, UDT(0x000010dc)

0x10dd : Length = 10, Leaf = 0x1002 LF_POINTER
	Pointer (NEAR32), Size: 4
	Element type : 0x10C0

0x10de : Length = 10, Leaf = 0x1002 LF_POINTER
	const Pointer (NEAR32), Size: 4
	Element type : 0x10C0

0x10df : Length = 26, Leaf = 0x1009 LF_MFUNCTION
	Return type = 0x10DD, Class type = 0x10BF, This type = 0x10DE, 
	Call type = ThisCall, Func attr = none
	Parms = 0, Arg list type = 0x1022, This adjust = 0

0x10e0 : Length = 10, Leaf = 0x1002 LF_POINTER
	Pointer (NEAR32), Size: 4
	Element type : 0x10BF

0x10e1 : Length = 10, Leaf = 0x1002 LF_POINTER
	const Pointer (NEAR32), Size: 4
	Element type : 0x10BF

0x10e2 : Length = 26, Leaf = 0x1009 LF_MFUNCTION
	Return type = 0x10E0, Class type = 0x10BF, This type = 0x10E1, 
	Call type = ThisCall, Func attr = none
	Parms = 0, Arg list type = 0x1022, This adjust = 0

0x10e3 : Length = 18, Leaf = 0x1206 LF_METHODLIST
	list[0] = public, VIRTUAL, 0x10DF, 
	list[1] = public, VIRTUAL, 0x10E2, 

0x10e4 : Length = 26, Leaf = 0x1009 LF_MFUNCTION
	Return type = T_BOOL08(0030), Class type = 0x10BF, This type = 0x10DE, 
	Call type = ThisCall, Func attr = none
	Parms = 1, Arg list type = 0x106b, This adjust = 0

0x10e5 : Length = 26, Leaf = 0x1009 LF_MFUNCTION
	Return type = 0x106D, Class type = 0x10BF, This type = 0x10DE, 
	Call type = ThisCall, Func attr = none
	Parms = 1, Arg list type = 0x1070, This adjust = 0

0x10e6 : Length = 26, Leaf = 0x1009 LF_MFUNCTION
	Return type = T_BOOL08(0030), Class type = 0x10BF, This type = 0x10DE, 
	Call type = ThisCall, Func attr = none
	Parms = 1, Arg list type = 0x1074, This adjust = 0

0x10e7 : Length = 26, Leaf = 0x1009 LF_MFUNCTION
	Return type = T_VOID(0003), Class type = 0x10BF, This type = 0x10E1, 
	Call type = ThisCall, Func attr = instance constructor
	Parms = 1, Arg list type = 0x10c2, This adjust = 0

0x10e8 : Length = 26, Leaf = 0x1009 LF_MFUNCTION
	Return type = T_VOID(0003), Class type = 0x10BF, This type = 0x10E1, 
	Call type = ThisCall, Func attr = instance constructor
	Parms = 1, Arg list type = 0x1070, This adjust = 0

0x10e9 : Length = 18, Leaf = 0x1206 LF_METHODLIST
	list[0] = private, VANILLA, 0x10E7, 
	list[1] = protected, VANILLA, 0x10E8, 

0x10ea : Length = 26, Leaf = 0x1009 LF_MFUNCTION
	Return type = T_VOID(0003), Class type = 0x10BF, This type = 0x10E1, 
	Call type = ThisCall, Func attr = none
	Parms = 0, Arg list type = 0x1022, This adjust = 0

0x10eb : Length = 26, Leaf = 0x1009 LF_MFUNCTION
	Return type = T_32PRCHAR(0470), Class type = 0x10BF, This type = 0x10E1, 
	Call type = ThisCall, Func attr = none
	Parms = 3, Arg list type = 0x107d, This adjust = 0

0x10ec : Length = 10, Leaf = 0x1002 LF_POINTER
	L-value Reference (NEAR32), Size: 4
	Element type : 0x10BF

0x10ed : Length = 26, Leaf = 0x1009 LF_MFUNCTION
	Return type = 0x10EC, Class type = 0x10BF, This type = 0x10E1, 
	Call type = ThisCall, Func attr = none
	Parms = 1, Arg list type = 0x10c2, This adjust = 0

0x10ee : Length = 26, Leaf = 0x1009 LF_MFUNCTION
	Return type = T_VOID(0003), Class type = 0x10BF, This type = 0x10E1, 
	Call type = ThisCall, Func attr = none
	Parms = 1, Arg list type = 0x1046, This adjust = 0

0x10ef : Length = 26, Leaf = 0x1009 LF_MFUNCTION
	Return type = T_32PVOID(0403), Class type = 0x10BF, This type = 0x10E1, 
	Call type = ThisCall, Func attr = none
	Parms = 1, Arg list type = 0x1046, This adjust = 0

0x10f0 : Length = 234, Leaf = 0x1203 LF_FIELDLIST
	list[0] = LF_BCLASS, public, type = 0x105F, offset = 0
	list[1] = LF_METHOD, count = 2, list = 0x10E3, name = 'ToComment'
	list[2] = LF_ONEMETHOD, public, VIRTUAL, index = 0x10E4, name = 'Accept'
	list[3] = LF_ONEMETHOD, public, VIRTUAL, index = 0x10E5, name = 'ShallowClone'
	list[4] = LF_ONEMETHOD, public, VIRTUAL, index = 0x10E6, name = 'ShallowEqual'
	list[5] = LF_METHOD, count = 2, list = 0x10E9, name = 'XMLComment'
	list[6] = LF_ONEMETHOD, protected, VIRTUAL, index = 0x10EA, name = '~XMLComment'
	list[7] = LF_ONEMETHOD, protected, VIRTUAL, index = 0x10EB, name = 'ParseDeep'
	list[8] = LF_ONEMETHOD, private, VANILLA, index = 0x10ED, name = 'operator='
	list[9] = LF_ONEMETHOD, public, VANILLA, (compgenx), index = 0x10EE, name = '__autoclassinit2'
	list[10] = LF_ONEMETHOD, protected, INTRODUCING VIRTUAL, (compgenx), index = 0x10EF, 
		vfptr offset = 60, name = '__vecDelDtor'

0x10f1 : Length = 70, Leaf = 0x1504 LF_CLASS
	# members = 13,  field list type 0x10f0, CONSTRUCTOR, OVERLOAD, OVERLOADED ASSIGNMENT, 
	Derivation list type 0x0000, VT shape type 0x1084
	Size = 52, class name = tinyxml2::XMLComment, unique name = .?AVXMLComment@tinyxml2@@, UDT(0x000010f1)

0x10f2 : Length = 82, Leaf = 0x1504 LF_CLASS
	# members = 0,  field list type 0x0000, FORWARD REF, 
	Derivation list type 0x0000, VT shape type 0x0000
	Size = 0, class name = tinyxml2::DynArray<char,10>, unique name = .?AV?$DynArray@D$09@tinyxml2@@, UDT(0x00001110)

0x10f3 : Length = 10, Leaf = 0x1002 LF_POINTER
	const Pointer (NEAR32), Size: 4
	Element type : 0x10F2

0x10f4 : Length = 10, Leaf = 0x1001 LF_MODIFIER
	const, modifies type 0x10F2

0x10f5 : Length = 10, Leaf = 0x1002 LF_POINTER
	L-value Reference (NEAR32), Size: 4
	Element type : 0x10F4

0x10f6 : Length = 10, Leaf = 0x1201 LF_ARGLIST argument count = 1
	list[0] = 0x10F5

0x10f7 : Length = 26, Leaf = 0x1009 LF_MFUNCTION
	Return type = T_VOID(0003), Class type = 0x10F2, This type = 0x10F3, 
	Call type = ThisCall, Func attr = instance constructor
	Parms = 1, Arg list type = 0x10f6, This adjust = 0

0x10f8 : Length = 26, Leaf = 0x1009 LF_MFUNCTION
	Return type = T_VOID(0003), Class type = 0x10F2, This type = 0x10F3, 
	Call type = ThisCall, Func attr = instance constructor
	Parms = 0, Arg list type = 0x1022, This adjust = 0

0x10f9 : Length = 18, Leaf = 0x1206 LF_METHODLIST
	list[0] = private, VANILLA, 0x10F7, 
	list[1] = public, VANILLA, 0x10F8, 

0x10fa : Length = 26, Leaf = 0x1009 LF_MFUNCTION
	Return type = T_VOID(0003), Class type = 0x10F2, This type = 0x10F3, 
	Call type = ThisCall, Func attr = none
	Parms = 0, Arg list type = 0x1022, This adjust = 0

0x10fb : Length = 26, Leaf = 0x1009 LF_MFUNCTION
	Return type = T_VOID(0003), Class type = 0x10F2, This type = 0x10F3, 
	Call type = ThisCall, Func attr = none
	Parms = 1, Arg list type = 0x10d0, This adjust = 0

0x10fc : Length = 26, Leaf = 0x1009 LF_MFUNCTION
	Return type = T_32PRCHAR(0470), Class type = 0x10F2, This type = 0x10F3, 
	Call type = ThisCall, Func attr = none
	Parms = 1, Arg list type = 0x1048, This adjust = 0

0x10fd : Length = 26, Leaf = 0x1009 LF_MFUNCTION
	Return type = T_RCHAR(0070), Class type = 0x10F2, This type = 0x10F3, 
	Call type = ThisCall, Func attr = none
	Parms = 0, Arg list type = 0x1022, This adjust = 0

0x10fe : Length = 26, Leaf = 0x1009 LF_MFUNCTION
	Return type = T_VOID(0003), Class type = 0x10F2, This type = 0x10F3, 
	Call type = ThisCall, Func attr = none
	Parms = 1, Arg list type = 0x1048, This adjust = 0

0x10ff : Length = 10, Leaf = 0x1002 LF_POINTER
	const Pointer (NEAR32), Size: 4
	Element type : 0x10F4

0x1100 : Length = 26, Leaf = 0x1009 LF_MFUNCTION
	Return type = T_BOOL08(0030), Class type = 0x10F2, This type = 0x10FF, 
	Call type = ThisCall, Func attr = none
	Parms = 0, Arg list type = 0x1022, This adjust = 0

0x1101 : Length = 10, Leaf = 0x1002 LF_POINTER
	L-value Reference (NEAR32), Size: 4
	Element type : 0x101D

0x1102 : Length = 26, Leaf = 0x1009 LF_MFUNCTION
	Return type = 0x1101, Class type = 0x10F2, This type = 0x10FF, 
	Call type = ThisCall, Func attr = none
	Parms = 1, Arg list type = 0x1048, This adjust = 0

0x1103 : Length = 10, Leaf = 0x1002 LF_POINTER
	L-value Reference (NEAR32), Size: 4
	Element type : T_RCHAR(0070)

0x1104 : Length = 26, Leaf = 0x1009 LF_MFUNCTION
	Return type = 0x1103, Class type = 0x10F2, This type = 0x10F3, 
	Call type = ThisCall, Func attr = none
	Parms = 1, Arg list type = 0x1048, This adjust = 0

0x1105 : Length = 18, Leaf = 0x1206 LF_METHODLIST
	list[0] = public, VANILLA, 0x1102, 
	list[1] = public, VANILLA, 0x1104, 

0x1106 : Length = 26, Leaf = 0x1009 LF_MFUNCTION
	Return type = 0x1101, Class type = 0x10F2, This type = 0x10FF, 
	Call type = ThisCall, Func attr = none
	Parms = 0, Arg list type = 0x1022, This adjust = 0

0x1107 : Length = 26, Leaf = 0x1009 LF_MFUNCTION
	Return type = T_INT4(0074), Class type = 0x10F2, This type = 0x10FF, 
	Call type = ThisCall, Func attr = none
	Parms = 0, Arg list type = 0x1022, This adjust = 0

0x1108 : Length = 26, Leaf = 0x1009 LF_MFUNCTION
	Return type = T_32PRCHAR(0470), Class type = 0x10F2, This type = 0x10F3, 
	Call type = ThisCall, Func attr = none
	Parms = 0, Arg list type = 0x1022, This adjust = 0

0x1109 : Length = 26, Leaf = 0x1009 LF_MFUNCTION
	Return type = 0x101E, Class type = 0x10F2, This type = 0x10FF, 
	Call type = ThisCall, Func attr = none
	Parms = 0, Arg list type = 0x1022, This adjust = 0

0x110a : Length = 18, Leaf = 0x1206 LF_METHODLIST
	list[0] = public, VANILLA, 0x1108, 
	list[1] = public, VANILLA, 0x1109, 

0x110b : Length = 26, Leaf = 0x1009 LF_MFUNCTION
	Return type = T_VOID(0003), Class type = 0x10F2, This type = 0x10F3, 
	Call type = ThisCall, Func attr = none
	Parms = 1, Arg list type = 0x10f6, This adjust = 0

0x110c : Length = 14, Leaf = 0x1503 LF_ARRAY
	Element type = T_RCHAR(0070)
	Index type = T_ULONG(0022)
	length = 10
	Name = 

0x110d : Length = 26, Leaf = 0x1009 LF_MFUNCTION
	Return type = T_VOID(0003), Class type = 0x10F2, This type = 0x10F3, 
	Call type = ThisCall, Func attr = none
	Parms = 1, Arg list type = 0x1046, This adjust = 0

0x110e : Length = 26, Leaf = 0x1009 LF_MFUNCTION
	Return type = T_32PVOID(0403), Class type = 0x10F2, This type = 0x10F3, 
	Call type = ThisCall, Func attr = none
	Parms = 1, Arg list type = 0x1046, This adjust = 0

0x110f : Length = 422, Leaf = 0x1203 LF_FIELDLIST
	list[0] = LF_METHOD, count = 2, list = 0x10F9, name = 'DynArray<char,10>'
	list[1] = LF_ONEMETHOD, public, VANILLA, index = 0x10FA, name = '~DynArray<char,10>'
	list[2] = LF_ONEMETHOD, public, VANILLA, index = 0x10FA, name = 'Clear'
	list[3] = LF_ONEMETHOD, public, VANILLA, index = 0x10FB, name = 'Push'
	list[4] = LF_ONEMETHOD, public, VANILLA, index = 0x10FC, name = 'PushArr'
	list[5] = LF_ONEMETHOD, public, VANILLA, index = 0x10FD, name = 'Pop'
	list[6] = LF_ONEMETHOD, public, VANILLA, index = 0x10FE, name = 'PopArr'
	list[7] = LF_ONEMETHOD, public, VANILLA, index = 0x1100, name = 'Empty'
	list[8] = LF_METHOD, count = 2, list = 0x1105, name = 'operator[]'
	list[9] = LF_ONEMETHOD, public, VANILLA, index = 0x1106, name = 'PeekTop'
	list[10] = LF_ONEMETHOD, public, VANILLA, index = 0x1107, name = 'Size'
	list[11] = LF_ONEMETHOD, public, VANILLA, index = 0x1107, name = 'Capacity'
	list[12] = LF_ONEMETHOD, public, VANILLA, index = 0x10FE, name = 'SwapRemove'
	list[13] = LF_METHOD, count = 2, list = 0x110A, name = 'Mem'
	list[14] = LF_ONEMETHOD, private, VANILLA, index = 0x110B, name = 'operator='
	list[15] = LF_ONEMETHOD, private, VANILLA, index = 0x10FE, name = 'EnsureCapacity'
	list[16] = LF_MEMBER, private, type = T_32PRCHAR(0470), offset = 0
		member name = '_mem'
	list[17] = LF_MEMBER, private, type = 0x110C, offset = 4
		member name = '_pool'
	list[18] = LF_MEMBER, private, type = T_INT4(0074), offset = 16
		member name = '_allocated'
	list[19] = LF_MEMBER, private, type = T_INT4(0074), offset = 20
		member name = '_size'
	list[20] = LF_ONEMETHOD, public, VANILLA, (compgenx), index = 0x110D, name = '__autoclassinit2'
	list[21] = LF_ONEMETHOD, public, VANILLA, (compgenx), index = 0x110E, name = '__vecDelDtor'

0x1110 : Length = 82, Leaf = 0x1504 LF_CLASS
	# members = 25,  field list type 0x110f, CONSTRUCTOR, OVERLOAD, OVERLOADED ASSIGNMENT, 
	Derivation list type 0x0000, VT shape type 0x0000
	Size = 24, class name = tinyxml2::DynArray<char,10>, unique name = .?AV?$DynArray@D$09@tinyxml2@@, UDT(0x00001110)

0x1111 : Length = 78, Leaf = 0x1504 LF_CLASS
	# members = 0,  field list type 0x0000, FORWARD REF, 
	Derivation list type 0x0000, VT shape type 0x0000
	Size = 0, class name = tinyxml2::MemPoolT<56>, unique name = .?AV?$MemPoolT@$0DI@@tinyxml2@@, UDT(0x0000112b)

0x1112 : Length = 10, Leaf = 0x1002 LF_POINTER
	const Pointer (NEAR32), Size: 4
	Element type : 0x1111

0x1113 : Length = 10, Leaf = 0x1001 LF_MODIFIER
	const, modifies type 0x1111

0x1114 : Length = 10, Leaf = 0x1002 LF_POINTER
	L-value Reference (NEAR32), Size: 4
	Element type : 0x1113

0x1115 : Length = 10, Leaf = 0x1201 LF_ARGLIST argument count = 1
	list[0] = 0x1114

0x1116 : Length = 26, Leaf = 0x1009 LF_MFUNCTION
	Return type = T_VOID(0003), Class type = 0x1111, This type = 0x1112, 
	Call type = ThisCall, Func attr = instance constructor
	Parms = 1, Arg list type = 0x1115, This adjust = 0

0x1117 : Length = 26, Leaf = 0x1009 LF_MFUNCTION
	Return type = T_VOID(0003), Class type = 0x1111, This type = 0x1112, 
	Call type = ThisCall, Func attr = instance constructor
	Parms = 0, Arg list type = 0x1022, This adjust = 0

0x1118 : Length = 18, Leaf = 0x1206 LF_METHODLIST
	list[0] = private, VANILLA, 0x1116, 
	list[1] = public, VANILLA, 0x1117, 

0x1119 : Length = 26, Leaf = 0x1009 LF_MFUNCTION
	Return type = T_VOID(0003), Class type = 0x1111, This type = 0x1112, 
	Call type = ThisCall, Func attr = none
	Parms = 0, Arg list type = 0x1022, This adjust = 0

0x111a : Length = 10, Leaf = 0x1002 LF_POINTER
	const Pointer (NEAR32), Size: 4
	Element type : 0x1113

0x111b : Length = 26, Leaf = 0x1009 LF_MFUNCTION
	Return type = T_INT4(0074), Class type = 0x1111, This type = 0x111A, 
	Call type = ThisCall, Func attr = none
	Parms = 0, Arg list type = 0x1022, This adjust = 0

0x111c : Length = 26, Leaf = 0x1009 LF_MFUNCTION
	Return type = T_32PVOID(0403), Class type = 0x1111, This type = 0x1112, 
	Call type = ThisCall, Func attr = none
	Parms = 0, Arg list type = 0x1022, This adjust = 0

0x111d : Length = 10, Leaf = 0x1201 LF_ARGLIST argument count = 1
	list[0] = T_32PVOID(0403)

0x111e : Length = 26, Leaf = 0x1009 LF_MFUNCTION
	Return type = T_VOID(0003), Class type = 0x1111, This type = 0x1112, 
	Call type = ThisCall, Func attr = none
	Parms = 1, Arg list type = 0x111d, This adjust = 0

0x111f : Length = 26, Leaf = 0x1009 LF_MFUNCTION
	Return type = T_VOID(0003), Class type = 0x1111, This type = 0x1112, 
	Call type = ThisCall, Func attr = none
	Parms = 1, Arg list type = 0x104a, This adjust = 0

0x1120 : Length = 26, Leaf = 0x1203 LF_FIELDLIST
	list[0] = LF_ENUMERATE, public, value = 73, name = 'ITEMS_PER_BLOCK'

0x1121 : Length = 134, Leaf = 0x1507 LF_ENUM
	# members = 1,  type = T_INT4(0074) field list type 0x1120
NESTED, 	enum name = tinyxml2::MemPoolT<56>::<unnamed-enum-ITEMS_PER_BLOCK>, UDT(0x00001121)

0x1122 : Length = 26, Leaf = 0x1009 LF_MFUNCTION
	Return type = T_VOID(0003), Class type = 0x1111, This type = 0x1112, 
	Call type = ThisCall, Func attr = none
	Parms = 1, Arg list type = 0x1115, This adjust = 0

0x1123 : Length = 78, Leaf = 0x1506 LF_UNION
	# members = 0,  field list type 0x0000, NESTED, FORWARD REF, Size = 0	,class name = tinyxml2::MemPoolT<56>::Item, unique name = .?ATItem@?$MemPoolT@$0DI@@tinyxml2@@, UDT(0x00001131)

0x1124 : Length = 90, Leaf = 0x1505 LF_STRUCTURE
	# members = 0,  field list type 0x0000, NESTED, FORWARD REF, 
	Derivation list type 0x0000, VT shape type 0x0000
	Size = 0, class name = tinyxml2::MemPoolT<56>::Block, unique name = .?AUBlock@?$MemPoolT@$0DI@@tinyxml2@@, UDT(0x0000112e)

0x1125 : Length = 142, Leaf = 0x1504 LF_CLASS
	# members = 0,  field list type 0x0000, FORWARD REF, 
	Derivation list type 0x0000, VT shape type 0x0000
	Size = 0, class name = tinyxml2::DynArray<tinyxml2::MemPoolT<56>::Block *,10>, unique name = .?AV?$DynArray@PAUBlock@?$MemPoolT@$0DI@@tinyxml2@@$09@tinyxml2@@, UDT(0x000011de)

0x1126 : Length = 10, Leaf = 0x1002 LF_POINTER
	Pointer (NEAR32), Size: 4
	Element type : 0x1123

0x1127 : Length = 26, Leaf = 0x1009 LF_MFUNCTION
	Return type = T_VOID(0003), Class type = 0x1111, This type = 0x1112, 
	Call type = ThisCall, Func attr = none
	Parms = 1, Arg list type = 0x1046, This adjust = 0

0x1128 : Length = 26, Leaf = 0x1009 LF_MFUNCTION
	Return type = T_32PVOID(0403), Class type = 0x1111, This type = 0x1112, 
	Call type = ThisCall, Func attr = none
	Parms = 1, Arg list type = 0x1046, This adjust = 0

0x1129 : Length = 534, Leaf = 0x1203 LF_FIELDLIST
	list[0] = LF_BCLASS, public, type = 0x105A, offset = 0
	list[1] = LF_METHOD, count = 2, list = 0x1118, name = 'MemPoolT<56>'
	list[2] = LF_ONEMETHOD, public, VIRTUAL, index = 0x1119, name = '~MemPoolT<56>'
	list[3] = LF_ONEMETHOD, public, VANILLA, index = 0x1119, name = 'Clear'
	list[4] = LF_ONEMETHOD, public, VIRTUAL, index = 0x111B, name = 'ItemSize'
	list[5] = LF_ONEMETHOD, public, VANILLA, index = 0x111B, name = 'CurrentAllocs'
	list[6] = LF_ONEMETHOD, public, VIRTUAL, index = 0x111C, name = 'Alloc'
	list[7] = LF_ONEMETHOD, public, VIRTUAL, index = 0x111E, name = 'Free'
	list[8] = LF_ONEMETHOD, public, VANILLA, index = 0x111F, name = 'Trace'
	list[9] = LF_ONEMETHOD, public, VIRTUAL, index = 0x1119, name = 'SetTracked'
	list[10] = LF_ONEMETHOD, public, VANILLA, index = 0x111B, name = 'Untracked'
	list[11] = LF_NESTTYPE, type = 0x1121, <unnamed-enum-ITEMS_PER_BLOCK>
	list[12] = LF_ONEMETHOD, private, VANILLA, index = 0x1122, name = 'operator='
	list[13] = LF_NESTTYPE, type = 0x1123, Item
	list[14] = LF_NESTTYPE, type = 0x1124, Block
	list[15] = LF_MEMBER, private, type = 0x1125, offset = 4
		member name = '_blockPtrs'
	list[16] = LF_MEMBER, private, type = 0x1126, offset = 56
		member name = '_root'
	list[17] = LF_MEMBER, private, type = T_INT4(0074), offset = 60
		member name = '_currentAllocs'
	list[18] = LF_MEMBER, private, type = T_INT4(0074), offset = 64
		member name = '_nAllocs'
	list[19] = LF_MEMBER, private, type = T_INT4(0074), offset = 68
		member name = '_maxAllocs'
	list[20] = LF_MEMBER, private, type = T_INT4(0074), offset = 72
		member name = '_nUntracked'
	list[21] = LF_ONEMETHOD, public, VANILLA, (compgenx), index = 0x1127, name = '__autoclassinit2'
	list[22] = LF_ONEMETHOD, public, VANILLA, (compgenx), index = 0x1119, name = '__local_vftable_ctor_closure'
	list[23] = LF_ONEMETHOD, public, INTRODUCING VIRTUAL, (compgenx), index = 0x1128, 
		vfptr offset = 0, name = '__vecDelDtor'

0x112a : Length = 10, Leaf = 0x000a LF_VTSHAPE
	Number of entries : 5
		[0]: NEAR32
		[1]: NEAR32
		[2]: NEAR32
		[3]: NEAR32
		[4]: NEAR

0x112b : Length = 78, Leaf = 0x1504 LF_CLASS
	# members = 25,  field list type 0x1129, CONSTRUCTOR, OVERLOAD, CONTAINS NESTED, OVERLOADED ASSIGNMENT, 
	Derivation list type 0x0000, VT shape type 0x112a
	Size = 76, class name = tinyxml2::MemPoolT<56>, unique name = .?AV?$MemPoolT@$0DI@@tinyxml2@@, UDT(0x0000112b)

0x112c : Length = 14, Leaf = 0x1503 LF_ARRAY
	Element type = 0x1123
	Index type = T_ULONG(0022)
	length = 4088
	Name = 

0x112d : Length = 18, Leaf = 0x1203 LF_FIELDLIST
	list[0] = LF_MEMBER, public, type = 0x112C, offset = 0
		member name = 'items'

0x112e : Length = 90, Leaf = 0x1505 LF_STRUCTURE
	# members = 1,  field list type 0x112d, NESTED, 
	Derivation list type 0x0000, VT shape type 0x0000
	Size = 4088, class name = tinyxml2::MemPoolT<56>::Block, unique name = .?AUBlock@?$MemPoolT@$0DI@@tinyxml2@@, UDT(0x0000112e)

0x112f : Length = 14, Leaf = 0x1503 LF_ARRAY
	Element type = T_RCHAR(0070)
	Index type = T_ULONG(0022)
	length = 56
	Name = 

0x1130 : Length = 38, Leaf = 0x1203 LF_FIELDLIST
	list[0] = LF_MEMBER, public, type = 0x1126, offset = 0
		member name = 'next'
	list[1] = LF_MEMBER, public, type = 0x112F, offset = 0
		member name = 'itemData'

0x1131 : Length = 78, Leaf = 0x1506 LF_UNION
	# members = 2,  field list type 0x1130, NESTED, SEALED, Size = 56	,class name = tinyxml2::MemPoolT<56>::Item, unique name = .?ATItem@?$MemPoolT@$0DI@@tinyxml2@@, UDT(0x00001131)

0x1132 : Length = 142, Leaf = 0x1504 LF_CLASS
	# members = 0,  field list type 0x0000, FORWARD REF, 
	Derivation list type 0x0000, VT shape type 0x0000
	Size = 0, class name = tinyxml2::DynArray<tinyxml2::MemPoolT<60>::Block *,10>, unique name = .?AV?$DynArray@PAUBlock@?$MemPoolT@$0DM@@tinyxml2@@$09@tinyxml2@@, UDT(0x00001156)

0x1133 : Length = 10, Leaf = 0x1002 LF_POINTER
	const Pointer (NEAR32), Size: 4
	Element type : 0x1132

0x1134 : Length = 10, Leaf = 0x1001 LF_MODIFIER
	const, modifies type 0x1132

0x1135 : Length = 10, Leaf = 0x1002 LF_POINTER
	L-value Reference (NEAR32), Size: 4
	Element type : 0x1134

0x1136 : Length = 10, Leaf = 0x1201 LF_ARGLIST argument count = 1
	list[0] = 0x1135

0x1137 : Length = 26, Leaf = 0x1009 LF_MFUNCTION
	Return type = T_VOID(0003), Class type = 0x1132, This type = 0x1133, 
	Call type = ThisCall, Func attr = instance constructor
	Parms = 1, Arg list type = 0x1136, This adjust = 0

0x1138 : Length = 26, Leaf = 0x1009 LF_MFUNCTION
	Return type = T_VOID(0003), Class type = 0x1132, This type = 0x1133, 
	Call type = ThisCall, Func attr = instance constructor
	Parms = 0, Arg list type = 0x1022, This adjust = 0

0x1139 : Length = 18, Leaf = 0x1206 LF_METHODLIST
	list[0] = private, VANILLA, 0x1137, 
	list[1] = public, VANILLA, 0x1138, 

0x113a : Length = 26, Leaf = 0x1009 LF_MFUNCTION
	Return type = T_VOID(0003), Class type = 0x1132, This type = 0x1133, 
	Call type = ThisCall, Func attr = none
	Parms = 0, Arg list type = 0x1022, This adjust = 0

0x113b : Length = 90, Leaf = 0x1505 LF_STRUCTURE
	# members = 0,  field list type 0x0000, NESTED, FORWARD REF, 
	Derivation list type 0x0000, VT shape type 0x0000
	Size = 0, class name = tinyxml2::MemPoolT<60>::Block, unique name = .?AUBlock@?$MemPoolT@$0DM@@tinyxml2@@, UDT(0x000012c7)

0x113c : Length = 10, Leaf = 0x1002 LF_POINTER
	Pointer (NEAR32), Size: 4
	Element type : 0x113B

0x113d : Length = 10, Leaf = 0x1201 LF_ARGLIST argument count = 1
	list[0] = 0x113C

0x113e : Length = 26, Leaf = 0x1009 LF_MFUNCTION
	Return type = T_VOID(0003), Class type = 0x1132, This type = 0x1133, 
	Call type = ThisCall, Func attr = none
	Parms = 1, Arg list type = 0x113d, This adjust = 0

0x113f : Length = 10, Leaf = 0x1002 LF_POINTER
	Pointer (NEAR32), Size: 4
	Element type : 0x113C

0x1140 : Length = 26, Leaf = 0x1009 LF_MFUNCTION
	Return type = 0x113F, Class type = 0x1132, This type = 0x1133, 
	Call type = ThisCall, Func attr = none
	Parms = 1, Arg list type = 0x1048, This adjust = 0

0x1141 : Length = 26, Leaf = 0x1009 LF_MFUNCTION
	Return type = 0x113C, Class type = 0x1132, This type = 0x1133, 
	Call type = ThisCall, Func attr = none
	Parms = 0, Arg list type = 0x1022, This adjust = 0

0x1142 : Length = 26, Leaf = 0x1009 LF_MFUNCTION
	Return type = T_VOID(0003), Class type = 0x1132, This type = 0x1133, 
	Call type = ThisCall, Func attr = none
	Parms = 1, Arg list type = 0x1048, This adjust = 0

0x1143 : Length = 10, Leaf = 0x1002 LF_POINTER
	const Pointer (NEAR32), Size: 4
	Element type : 0x1134

0x1144 : Length = 26, Leaf = 0x1009 LF_MFUNCTION
	Return type = T_BOOL08(0030), Class type = 0x1132, This type = 0x1143, 
	Call type = ThisCall, Func attr = none
	Parms = 0, Arg list type = 0x1022, This adjust = 0

0x1145 : Length = 10, Leaf = 0x1002 LF_POINTER
	const Pointer (NEAR32), Size: 4
	Element type : 0x113B

0x1146 : Length = 10, Leaf = 0x1002 LF_POINTER
	L-value Reference (NEAR32), Size: 4
	Element type : 0x1145

0x1147 : Length = 26, Leaf = 0x1009 LF_MFUNCTION
	Return type = 0x1146, Class type = 0x1132, This type = 0x1143, 
	Call type = ThisCall, Func attr = none
	Parms = 1, Arg list type = 0x1048, This adjust = 0

0x1148 : Length = 10, Leaf = 0x1002 LF_POINTER
	L-value Reference (NEAR32), Size: 4
	Element type : 0x113C

0x1149 : Length = 26, Leaf = 0x1009 LF_MFUNCTION
	Return type = 0x1148, Class type = 0x1132, This type = 0x1133, 
	Call type = ThisCall, Func attr = none
	Parms = 1, Arg list type = 0x1048, This adjust = 0

0x114a : Length = 18, Leaf = 0x1206 LF_METHODLIST
	list[0] = public, VANILLA, 0x1147, 
	list[1] = public, VANILLA, 0x1149, 

0x114b : Length = 26, Leaf = 0x1009 LF_MFUNCTION
	Return type = 0x1146, Class type = 0x1132, This type = 0x1143, 
	Call type = ThisCall, Func attr = none
	Parms = 0, Arg list type = 0x1022, This adjust = 0

0x114c : Length = 26, Leaf = 0x1009 LF_MFUNCTION
	Return type = T_INT4(0074), Class type = 0x1132, This type = 0x1143, 
	Call type = ThisCall, Func attr = none
	Parms = 0, Arg list type = 0x1022, This adjust = 0

0x114d : Length = 26, Leaf = 0x1009 LF_MFUNCTION
	Return type = 0x113F, Class type = 0x1132, This type = 0x1133, 
	Call type = ThisCall, Func attr = none
	Parms = 0, Arg list type = 0x1022, This adjust = 0

0x114e : Length = 10, Leaf = 0x1002 LF_POINTER
	Pointer (NEAR32), Size: 4
	Element type : 0x1145

0x114f : Length = 26, Leaf = 0x1009 LF_MFUNCTION
	Return type = 0x114E, Class type = 0x1132, This type = 0x1143, 
	Call type = ThisCall, Func attr = none
	Parms = 0, Arg list type = 0x1022, This adjust = 0

0x1150 : Length = 18, Leaf = 0x1206 LF_METHODLIST
	list[0] = public, VANILLA, 0x114D, 
	list[1] = public, VANILLA, 0x114F, 

0x1151 : Length = 26, Leaf = 0x1009 LF_MFUNCTION
	Return type = T_VOID(0003), Class type = 0x1132, This type = 0x1133, 
	Call type = ThisCall, Func attr = none
	Parms = 1, Arg list type = 0x1136, This adjust = 0

0x1152 : Length = 14, Leaf = 0x1503 LF_ARRAY
	Element type = 0x113C
	Index type = T_ULONG(0022)
	length = 40
	Name = 

0x1153 : Length = 26, Leaf = 0x1009 LF_MFUNCTION
	Return type = T_VOID(0003), Class type = 0x1132, This type = 0x1133, 
	Call type = ThisCall, Func attr = none
	Parms = 1, Arg list type = 0x1046, This adjust = 0

0x1154 : Length = 26, Leaf = 0x1009 LF_MFUNCTION
	Return type = T_32PVOID(0403), Class type = 0x1132, This type = 0x1133, 
	Call type = ThisCall, Func attr = none
	Parms = 1, Arg list type = 0x1046, This adjust = 0

0x1155 : Length = 478, Leaf = 0x1203 LF_FIELDLIST
	list[0] = LF_METHOD, count = 2, list = 0x1139, name = 'DynArray<tinyxml2::MemPoolT<60>::Block *,10>'
	list[1] = LF_ONEMETHOD, public, VANILLA, index = 0x113A, name = '~DynArray<tinyxml2::MemPoolT<60>::Block *,10>'
	list[2] = LF_ONEMETHOD, public, VANILLA, index = 0x113A, name = 'Clear'
	list[3] = LF_ONEMETHOD, public, VANILLA, index = 0x113E, name = 'Push'
	list[4] = LF_ONEMETHOD, public, VANILLA, index = 0x1140, name = 'PushArr'
	list[5] = LF_ONEMETHOD, public, VANILLA, index = 0x1141, name = 'Pop'
	list[6] = LF_ONEMETHOD, public, VANILLA, index = 0x1142, name = 'PopArr'
	list[7] = LF_ONEMETHOD, public, VANILLA, index = 0x1144, name = 'Empty'
	list[8] = LF_METHOD, count = 2, list = 0x114A, name = 'operator[]'
	list[9] = LF_ONEMETHOD, public, VANILLA, index = 0x114B, name = 'PeekTop'
	list[10] = LF_ONEMETHOD, public, VANILLA, index = 0x114C, name = 'Size'
	list[11] = LF_ONEMETHOD, public, VANILLA, index = 0x114C, name = 'Capacity'
	list[12] = LF_ONEMETHOD, public, VANILLA, index = 0x1142, name = 'SwapRemove'
	list[13] = LF_METHOD, count = 2, list = 0x1150, name = 'Mem'
	list[14] = LF_ONEMETHOD, private, VANILLA, index = 0x1151, name = 'operator='
	list[15] = LF_ONEMETHOD, private, VANILLA, index = 0x1142, name = 'EnsureCapacity'
	list[16] = LF_MEMBER, private, type = 0x113F, offset = 0
		member name = '_mem'
	list[17] = LF_MEMBER, private, type = 0x1152, offset = 4
		member name = '_pool'
	list[18] = LF_MEMBER, private, type = T_INT4(0074), offset = 44
		member name = '_allocated'
	list[19] = LF_MEMBER, private, type = T_INT4(0074), offset = 48
		member name = '_size'
	list[20] = LF_ONEMETHOD, public, VANILLA, (compgenx), index = 0x1153, name = '__autoclassinit2'
	list[21] = LF_ONEMETHOD, public, VANILLA, (compgenx), index = 0x1154, name = '__vecDelDtor'

0x1156 : Length = 142, Leaf = 0x1504 LF_CLASS
	# members = 25,  field list type 0x1155, CONSTRUCTOR, OVERLOAD, OVERLOADED ASSIGNMENT, 
	Derivation list type 0x0000, VT shape type 0x0000
	Size = 52, class name = tinyxml2::DynArray<tinyxml2::MemPoolT<60>::Block *,10>, unique name = .?AV?$DynArray@PAUBlock@?$MemPoolT@$0DM@@tinyxml2@@$09@tinyxml2@@, UDT(0x00001156)

0x1157 : Length = 78, Leaf = 0x1504 LF_CLASS
	# members = 0,  field list type 0x0000, FORWARD REF, 
	Derivation list type 0x0000, VT shape type 0x0000
	Size = 0, class name = tinyxml2::XMLConstHandle, unique name = .?AVXMLConstHandle@tinyxml2@@, UDT(0x00001171)

0x1158 : Length = 10, Leaf = 0x1002 LF_POINTER
	const Pointer (NEAR32), Size: 4
	Element type : 0x1157

0x1159 : Length = 10, Leaf = 0x1001 LF_MODIFIER
	const, modifies type 0x1157

0x115a : Length = 10, Leaf = 0x1002 LF_POINTER
	L-value Reference (NEAR32), Size: 4
	Element type : 0x1159

0x115b : Length = 10, Leaf = 0x1201 LF_ARGLIST argument count = 1
	list[0] = 0x115A

0x115c : Length = 26, Leaf = 0x1009 LF_MFUNCTION
	Return type = T_VOID(0003), Class type = 0x1157, This type = 0x1158, 
	Call type = ThisCall, Func attr = instance constructor
	Parms = 1, Arg list type = 0x115b, This adjust = 0

0x115d : Length = 10, Leaf = 0x1002 LF_POINTER
	L-value Reference (NEAR32), Size: 4
	Element type : 0x1072

0x115e : Length = 10, Leaf = 0x1201 LF_ARGLIST argument count = 1
	list[0] = 0x115D

0x115f : Length = 26, Leaf = 0x1009 LF_MFUNCTION
	Return type = T_VOID(0003), Class type = 0x1157, This type = 0x1158, 
	Call type = ThisCall, Func attr = instance constructor
	Parms = 1, Arg list type = 0x115e, This adjust = 0

0x1160 : Length = 26, Leaf = 0x1009 LF_MFUNCTION
	Return type = T_VOID(0003), Class type = 0x1157, This type = 0x1158, 
	Call type = ThisCall, Func attr = instance constructor
	Parms = 1, Arg list type = 0x1074, This adjust = 0

0x1161 : Length = 26, Leaf = 0x1206 LF_METHODLIST
	list[0] = public, VANILLA, 0x115C, 
	list[1] = public, VANILLA, 0x115F, 
	list[2] = public, VANILLA, 0x1160, 

0x1162 : Length = 10, Leaf = 0x1002 LF_POINTER
	L-value Reference (NEAR32), Size: 4
	Element type : 0x1157

0x1163 : Length = 26, Leaf = 0x1009 LF_MFUNCTION
	Return type = 0x1162, Class type = 0x1157, This type = 0x1158, 
	Call type = ThisCall, Func attr = none
	Parms = 1, Arg list type = 0x115b, This adjust = 0

0x1164 : Length = 10, Leaf = 0x1002 LF_POINTER
	const Pointer (NEAR32), Size: 4
	Element type : 0x1159

0x1165 : Length = 26, Leaf = 0x1009 LF_MFUNCTION
	Return type = 0x1159, Class type = 0x1157, This type = 0x1164, 
	Call type = ThisCall, Func attr = return UDT (C++ style)
	Parms = 0, Arg list type = 0x1022, This adjust = 0

0x1166 : Length = 26, Leaf = 0x1009 LF_MFUNCTION
	Return type = 0x1159, Class type = 0x1157, This type = 0x1164, 
	Call type = ThisCall, Func attr = return UDT (C++ style)
	Parms = 1, Arg list type = 0x104a, This adjust = 0

0x1167 : Length = 26, Leaf = 0x1009 LF_MFUNCTION
	Return type = 0x1073, Class type = 0x1157, This type = 0x1164, 
	Call type = ThisCall, Func attr = none
	Parms = 0, Arg list type = 0x1022, This adjust = 0

0x1168 : Length = 10, Leaf = 0x1002 LF_POINTER
	Pointer (NEAR32), Size: 4
	Element type : 0x10AD

0x1169 : Length = 26, Leaf = 0x1009 LF_MFUNCTION
	Return type = 0x1168, Class type = 0x1157, This type = 0x1164, 
	Call type = ThisCall, Func attr = none
	Parms = 0, Arg list type = 0x1022, This adjust = 0

0x116a : Length = 10, Leaf = 0x1002 LF_POINTER
	Pointer (NEAR32), Size: 4
	Element type : 0x10C5

0x116b : Length = 26, Leaf = 0x1009 LF_MFUNCTION
	Return type = 0x116A, Class type = 0x1157, This type = 0x1164, 
	Call type = ThisCall, Func attr = none
	Parms = 0, Arg list type = 0x1022, This adjust = 0

0x116c : Length = 26, Leaf = 0x1009 LF_MFUNCTION
	Return type = 0x1062, Class type = 0x1157, This type = 0x1164, 
	Call type = ThisCall, Func attr = none
	Parms = 0, Arg list type = 0x1022, This adjust = 0

0x116d : Length = 10, Leaf = 0x1002 LF_POINTER
	Pointer (NEAR32), Size: 4
	Element type : 0x10BB

0x116e : Length = 26, Leaf = 0x1009 LF_MFUNCTION
	Return type = 0x116D, Class type = 0x1157, This type = 0x1164, 
	Call type = ThisCall, Func attr = none
	Parms = 0, Arg list type = 0x1022, This adjust = 0

0x116f : Length = 26, Leaf = 0x1009 LF_MFUNCTION
	Return type = T_VOID(0003), Class type = 0x1157, This type = 0x1158, 
	Call type = ThisCall, Func attr = none
	Parms = 1, Arg list type = 0x1046, This adjust = 0

0x1170 : Length = 386, Leaf = 0x1203 LF_FIELDLIST
	list[0] = LF_METHOD, count = 3, list = 0x1161, name = 'XMLConstHandle'
	list[1] = LF_ONEMETHOD, public, VANILLA, index = 0x1163, name = 'operator='
	list[2] = LF_ONEMETHOD, public, VANILLA, index = 0x1165, name = 'FirstChild'
	list[3] = LF_ONEMETHOD, public, VANILLA, index = 0x1166, name = 'FirstChildElement'
	list[4] = LF_ONEMETHOD, public, VANILLA, index = 0x1165, name = 'LastChild'
	list[5] = LF_ONEMETHOD, public, VANILLA, index = 0x1166, name = 'LastChildElement'
	list[6] = LF_ONEMETHOD, public, VANILLA, index = 0x1165, name = 'PreviousSibling'
	list[7] = LF_ONEMETHOD, public, VANILLA, index = 0x1166, name = 'PreviousSiblingElement'
	list[8] = LF_ONEMETHOD, public, VANILLA, index = 0x1165, name = 'NextSibling'
	list[9] = LF_ONEMETHOD, public, VANILLA, index = 0x1166, name = 'NextSiblingElement'
	list[10] = LF_ONEMETHOD, public, VANILLA, index = 0x1167, name = 'ToNode'
	list[11] = LF_ONEMETHOD, public, VANILLA, index = 0x1169, name = 'ToElement'
	list[12] = LF_ONEMETHOD, public, VANILLA, index = 0x116B, name = 'ToText'
	list[13] = LF_ONEMETHOD, public, VANILLA, index = 0x116C, name = 'ToUnknown'
	list[14] = LF_ONEMETHOD, public, VANILLA, index = 0x116E, name = 'ToDeclaration'
	list[15] = LF_MEMBER, private, type = 0x1073, offset = 0
		member name = '_node'
	list[16] = LF_ONEMETHOD, public, VANILLA, (compgenx), index = 0x116F, name = '__autoclassinit2'

0x1171 : Length = 78, Leaf = 0x1504 LF_CLASS
	# members = 19,  field list type 0x1170, CONSTRUCTOR, OVERLOAD, OVERLOADED ASSIGNMENT, 
	Derivation list type 0x0000, VT shape type 0x0000
	Size = 4, class name = tinyxml2::XMLConstHandle, unique name = .?AVXMLConstHandle@tinyxml2@@, UDT(0x00001171)

0x1172 : Length = 142, Leaf = 0x1504 LF_CLASS
	# members = 0,  field list type 0x0000, FORWARD REF, 
	Derivation list type 0x0000, VT shape type 0x0000
	Size = 0, class name = tinyxml2::DynArray<tinyxml2::MemPoolT<40>::Block *,10>, unique name = .?AV?$DynArray@PAUBlock@?$MemPoolT@$0CI@@tinyxml2@@$09@tinyxml2@@, UDT(0x00001196)

0x1173 : Length = 10, Leaf = 0x1002 LF_POINTER
	const Pointer (NEAR32), Size: 4
	Element type : 0x1172

0x1174 : Length = 10, Leaf = 0x1001 LF_MODIFIER
	const, modifies type 0x1172

0x1175 : Length = 10, Leaf = 0x1002 LF_POINTER
	L-value Reference (NEAR32), Size: 4
	Element type : 0x1174

0x1176 : Length = 10, Leaf = 0x1201 LF_ARGLIST argument count = 1
	list[0] = 0x1175

0x1177 : Length = 26, Leaf = 0x1009 LF_MFUNCTION
	Return type = T_VOID(0003), Class type = 0x1172, This type = 0x1173, 
	Call type = ThisCall, Func attr = instance constructor
	Parms = 1, Arg list type = 0x1176, This adjust = 0

0x1178 : Length = 26, Leaf = 0x1009 LF_MFUNCTION
	Return type = T_VOID(0003), Class type = 0x1172, This type = 0x1173, 
	Call type = ThisCall, Func attr = instance constructor
	Parms = 0, Arg list type = 0x1022, This adjust = 0

0x1179 : Length = 18, Leaf = 0x1206 LF_METHODLIST
	list[0] = private, VANILLA, 0x1177, 
	list[1] = public, VANILLA, 0x1178, 

0x117a : Length = 26, Leaf = 0x1009 LF_MFUNCTION
	Return type = T_VOID(0003), Class type = 0x1172, This type = 0x1173, 
	Call type = ThisCall, Func attr = none
	Parms = 0, Arg list type = 0x1022, This adjust = 0

0x117b : Length = 90, Leaf = 0x1505 LF_STRUCTURE
	# members = 0,  field list type 0x0000, NESTED, FORWARD REF, 
	Derivation list type 0x0000, VT shape type 0x0000
	Size = 0, class name = tinyxml2::MemPoolT<40>::Block, unique name = .?AUBlock@?$MemPoolT@$0CI@@tinyxml2@@, UDT(0x00001214)

0x117c : Length = 10, Leaf = 0x1002 LF_POINTER
	Pointer (NEAR32), Size: 4
	Element type : 0x117B

0x117d : Length = 10, Leaf = 0x1201 LF_ARGLIST argument count = 1
	list[0] = 0x117C

0x117e : Length = 26, Leaf = 0x1009 LF_MFUNCTION
	Return type = T_VOID(0003), Class type = 0x1172, This type = 0x1173, 
	Call type = ThisCall, Func attr = none
	Parms = 1, Arg list type = 0x117d, This adjust = 0

0x117f : Length = 10, Leaf = 0x1002 LF_POINTER
	Pointer (NEAR32), Size: 4
	Element type : 0x117C

0x1180 : Length = 26, Leaf = 0x1009 LF_MFUNCTION
	Return type = 0x117F, Class type = 0x1172, This type = 0x1173, 
	Call type = ThisCall, Func attr = none
	Parms = 1, Arg list type = 0x1048, This adjust = 0

0x1181 : Length = 26, Leaf = 0x1009 LF_MFUNCTION
	Return type = 0x117C, Class type = 0x1172, This type = 0x1173, 
	Call type = ThisCall, Func attr = none
	Parms = 0, Arg list type = 0x1022, This adjust = 0

0x1182 : Length = 26, Leaf = 0x1009 LF_MFUNCTION
	Return type = T_VOID(0003), Class type = 0x1172, This type = 0x1173, 
	Call type = ThisCall, Func attr = none
	Parms = 1, Arg list type = 0x1048, This adjust = 0

0x1183 : Length = 10, Leaf = 0x1002 LF_POINTER
	const Pointer (NEAR32), Size: 4
	Element type : 0x1174

0x1184 : Length = 26, Leaf = 0x1009 LF_MFUNCTION
	Return type = T_BOOL08(0030), Class type = 0x1172, This type = 0x1183, 
	Call type = ThisCall, Func attr = none
	Parms = 0, Arg list type = 0x1022, This adjust = 0

0x1185 : Length = 10, Leaf = 0x1002 LF_POINTER
	const Pointer (NEAR32), Size: 4
	Element type : 0x117B

0x1186 : Length = 10, Leaf = 0x1002 LF_POINTER
	L-value Reference (NEAR32), Size: 4
	Element type : 0x1185

0x1187 : Length = 26, Leaf = 0x1009 LF_MFUNCTION
	Return type = 0x1186, Class type = 0x1172, This type = 0x1183, 
	Call type = ThisCall, Func attr = none
	Parms = 1, Arg list type = 0x1048, This adjust = 0

0x1188 : Length = 10, Leaf = 0x1002 LF_POINTER
	L-value Reference (NEAR32), Size: 4
	Element type : 0x117C

0x1189 : Length = 26, Leaf = 0x1009 LF_MFUNCTION
	Return type = 0x1188, Class type = 0x1172, This type = 0x1173, 
	Call type = ThisCall, Func attr = none
	Parms = 1, Arg list type = 0x1048, This adjust = 0

0x118a : Length = 18, Leaf = 0x1206 LF_METHODLIST
	list[0] = public, VANILLA, 0x1187, 
	list[1] = public, VANILLA, 0x1189, 

0x118b : Length = 26, Leaf = 0x1009 LF_MFUNCTION
	Return type = 0x1186, Class type = 0x1172, This type = 0x1183, 
	Call type = ThisCall, Func attr = none
	Parms = 0, Arg list type = 0x1022, This adjust = 0

0x118c : Length = 26, Leaf = 0x1009 LF_MFUNCTION
	Return type = T_INT4(0074), Class type = 0x1172, This type = 0x1183, 
	Call type = ThisCall, Func attr = none
	Parms = 0, Arg list type = 0x1022, This adjust = 0

0x118d : Length = 26, Leaf = 0x1009 LF_MFUNCTION
	Return type = 0x117F, Class type = 0x1172, This type = 0x1173, 
	Call type = ThisCall, Func attr = none
	Parms = 0, Arg list type = 0x1022, This adjust = 0

0x118e : Length = 10, Leaf = 0x1002 LF_POINTER
	Pointer (NEAR32), Size: 4
	Element type : 0x1185

0x118f : Length = 26, Leaf = 0x1009 LF_MFUNCTION
	Return type = 0x118E, Class type = 0x1172, This type = 0x1183, 
	Call type = ThisCall, Func attr = none
	Parms = 0, Arg list type = 0x1022, This adjust = 0

0x1190 : Length = 18, Leaf = 0x1206 LF_METHODLIST
	list[0] = public, VANILLA, 0x118D, 
	list[1] = public, VANILLA, 0x118F, 

0x1191 : Length = 26, Leaf = 0x1009 LF_MFUNCTION
	Return type = T_VOID(0003), Class type = 0x1172, This type = 0x1173, 
	Call type = ThisCall, Func attr = none
	Parms = 1, Arg list type = 0x1176, This adjust = 0

0x1192 : Length = 14, Leaf = 0x1503 LF_ARRAY
	Element type = 0x117C
	Index type = T_ULONG(0022)
	length = 40
	Name = 

0x1193 : Length = 26, Leaf = 0x1009 LF_MFUNCTION
	Return type = T_VOID(0003), Class type = 0x1172, This type = 0x1173, 
	Call type = ThisCall, Func attr = none
	Parms = 1, Arg list type = 0x1046, This adjust = 0

0x1194 : Length = 26, Leaf = 0x1009 LF_MFUNCTION
	Return type = T_32PVOID(0403), Class type = 0x1172, This type = 0x1173, 
	Call type = ThisCall, Func attr = none
	Parms = 1, Arg list type = 0x1046, This adjust = 0

0x1195 : Length = 478, Leaf = 0x1203 LF_FIELDLIST
	list[0] = LF_METHOD, count = 2, list = 0x1179, name = 'DynArray<tinyxml2::MemPoolT<40>::Block *,10>'
	list[1] = LF_ONEMETHOD, public, VANILLA, index = 0x117A, name = '~DynArray<tinyxml2::MemPoolT<40>::Block *,10>'
	list[2] = LF_ONEMETHOD, public, VANILLA, index = 0x117A, name = 'Clear'
	list[3] = LF_ONEMETHOD, public, VANILLA, index = 0x117E, name = 'Push'
	list[4] = LF_ONEMETHOD, public, VANILLA, index = 0x1180, name = 'PushArr'
	list[5] = LF_ONEMETHOD, public, VANILLA, index = 0x1181, name = 'Pop'
	list[6] = LF_ONEMETHOD, public, VANILLA, index = 0x1182, name = 'PopArr'
	list[7] = LF_ONEMETHOD, public, VANILLA, index = 0x1184, name = 'Empty'
	list[8] = LF_METHOD, count = 2, list = 0x118A, name = 'operator[]'
	list[9] = LF_ONEMETHOD, public, VANILLA, index = 0x118B, name = 'PeekTop'
	list[10] = LF_ONEMETHOD, public, VANILLA, index = 0x118C, name = 'Size'
	list[11] = LF_ONEMETHOD, public, VANILLA, index = 0x118C, name = 'Capacity'
	list[12] = LF_ONEMETHOD, public, VANILLA, index = 0x1182, name = 'SwapRemove'
	list[13] = LF_METHOD, count = 2, list = 0x1190, name = 'Mem'
	list[14] = LF_ONEMETHOD, private, VANILLA, index = 0x1191, name = 'operator='
	list[15] = LF_ONEMETHOD, private, VANILLA, index = 0x1182, name = 'EnsureCapacity'
	list[16] = LF_MEMBER, private, type = 0x117F, offset = 0
		member name = '_mem'
	list[17] = LF_MEMBER, private, type = 0x1192, offset = 4
		member name = '_pool'
	list[18] = LF_MEMBER, private, type = T_INT4(0074), offset = 44
		member name = '_allocated'
	list[19] = LF_MEMBER, private, type = T_INT4(0074), offset = 48
		member name = '_size'
	list[20] = LF_ONEMETHOD, public, VANILLA, (compgenx), index = 0x1193, name = '__autoclassinit2'
	list[21] = LF_ONEMETHOD, public, VANILLA, (compgenx), index = 0x1194, name = '__vecDelDtor'

0x1196 : Length = 142, Leaf = 0x1504 LF_CLASS
	# members = 25,  field list type 0x1195, CONSTRUCTOR, OVERLOAD, OVERLOADED ASSIGNMENT, 
	Derivation list type 0x0000, VT shape type 0x0000
	Size = 52, class name = tinyxml2::DynArray<tinyxml2::MemPoolT<40>::Block *,10>, unique name = .?AV?$DynArray@PAUBlock@?$MemPoolT@$0CI@@tinyxml2@@$09@tinyxml2@@, UDT(0x00001196)

0x1197 : Length = 142, Leaf = 0x1504 LF_CLASS
	# members = 0,  field list type 0x0000, FORWARD REF, 
	Derivation list type 0x0000, VT shape type 0x0000
	Size = 0, class name = tinyxml2::DynArray<tinyxml2::MemPoolT<52>::Block *,10>, unique name = .?AV?$DynArray@PAUBlock@?$MemPoolT@$0DE@@tinyxml2@@$09@tinyxml2@@, UDT(0x000011bb)

0x1198 : Length = 10, Leaf = 0x1002 LF_POINTER
	const Pointer (NEAR32), Size: 4
	Element type : 0x1197

0x1199 : Length = 10, Leaf = 0x1001 LF_MODIFIER
	const, modifies type 0x1197

0x119a : Length = 10, Leaf = 0x1002 LF_POINTER
	L-value Reference (NEAR32), Size: 4
	Element type : 0x1199

0x119b : Length = 10, Leaf = 0x1201 LF_ARGLIST argument count = 1
	list[0] = 0x119A

0x119c : Length = 26, Leaf = 0x1009 LF_MFUNCTION
	Return type = T_VOID(0003), Class type = 0x1197, This type = 0x1198, 
	Call type = ThisCall, Func attr = instance constructor
	Parms = 1, Arg list type = 0x119b, This adjust = 0

0x119d : Length = 26, Leaf = 0x1009 LF_MFUNCTION
	Return type = T_VOID(0003), Class type = 0x1197, This type = 0x1198, 
	Call type = ThisCall, Func attr = instance constructor
	Parms = 0, Arg list type = 0x1022, This adjust = 0

0x119e : Length = 18, Leaf = 0x1206 LF_METHODLIST
	list[0] = private, VANILLA, 0x119C, 
	list[1] = public, VANILLA, 0x119D, 

0x119f : Length = 26, Leaf = 0x1009 LF_MFUNCTION
	Return type = T_VOID(0003), Class type = 0x1197, This type = 0x1198, 
	Call type = ThisCall, Func attr = none
	Parms = 0, Arg list type = 0x1022, This adjust = 0

0x11a0 : Length = 90, Leaf = 0x1505 LF_STRUCTURE
	# members = 0,  field list type 0x0000, NESTED, FORWARD REF, 
	Derivation list type 0x0000, VT shape type 0x0000
	Size = 0, class name = tinyxml2::MemPoolT<52>::Block, unique name = .?AUBlock@?$MemPoolT@$0DE@@tinyxml2@@, UDT(0x000012e4)

0x11a1 : Length = 10, Leaf = 0x1002 LF_POINTER
	Pointer (NEAR32), Size: 4
	Element type : 0x11A0

0x11a2 : Length = 10, Leaf = 0x1201 LF_ARGLIST argument count = 1
	list[0] = 0x11A1

0x11a3 : Length = 26, Leaf = 0x1009 LF_MFUNCTION
	Return type = T_VOID(0003), Class type = 0x1197, This type = 0x1198, 
	Call type = ThisCall, Func attr = none
	Parms = 1, Arg list type = 0x11a2, This adjust = 0

0x11a4 : Length = 10, Leaf = 0x1002 LF_POINTER
	Pointer (NEAR32), Size: 4
	Element type : 0x11A1

0x11a5 : Length = 26, Leaf = 0x1009 LF_MFUNCTION
	Return type = 0x11A4, Class type = 0x1197, This type = 0x1198, 
	Call type = ThisCall, Func attr = none
	Parms = 1, Arg list type = 0x1048, This adjust = 0

0x11a6 : Length = 26, Leaf = 0x1009 LF_MFUNCTION
	Return type = 0x11A1, Class type = 0x1197, This type = 0x1198, 
	Call type = ThisCall, Func attr = none
	Parms = 0, Arg list type = 0x1022, This adjust = 0

0x11a7 : Length = 26, Leaf = 0x1009 LF_MFUNCTION
	Return type = T_VOID(0003), Class type = 0x1197, This type = 0x1198, 
	Call type = ThisCall, Func attr = none
	Parms = 1, Arg list type = 0x1048, This adjust = 0

0x11a8 : Length = 10, Leaf = 0x1002 LF_POINTER
	const Pointer (NEAR32), Size: 4
	Element type : 0x1199

0x11a9 : Length = 26, Leaf = 0x1009 LF_MFUNCTION
	Return type = T_BOOL08(0030), Class type = 0x1197, This type = 0x11A8, 
	Call type = ThisCall, Func attr = none
	Parms = 0, Arg list type = 0x1022, This adjust = 0

0x11aa : Length = 10, Leaf = 0x1002 LF_POINTER
	const Pointer (NEAR32), Size: 4
	Element type : 0x11A0

0x11ab : Length = 10, Leaf = 0x1002 LF_POINTER
	L-value Reference (NEAR32), Size: 4
	Element type : 0x11AA

0x11ac : Length = 26, Leaf = 0x1009 LF_MFUNCTION
	Return type = 0x11AB, Class type = 0x1197, This type = 0x11A8, 
	Call type = ThisCall, Func attr = none
	Parms = 1, Arg list type = 0x1048, This adjust = 0

0x11ad : Length = 10, Leaf = 0x1002 LF_POINTER
	L-value Reference (NEAR32), Size: 4
	Element type : 0x11A1

0x11ae : Length = 26, Leaf = 0x1009 LF_MFUNCTION
	Return type = 0x11AD, Class type = 0x1197, This type = 0x1198, 
	Call type = ThisCall, Func attr = none
	Parms = 1, Arg list type = 0x1048, This adjust = 0

0x11af : Length = 18, Leaf = 0x1206 LF_METHODLIST
	list[0] = public, VANILLA, 0x11AC, 
	list[1] = public, VANILLA, 0x11AE, 

0x11b0 : Length = 26, Leaf = 0x1009 LF_MFUNCTION
	Return type = 0x11AB, Class type = 0x1197, This type = 0x11A8, 
	Call type = ThisCall, Func attr = none
	Parms = 0, Arg list type = 0x1022, This adjust = 0

0x11b1 : Length = 26, Leaf = 0x1009 LF_MFUNCTION
	Return type = T_INT4(0074), Class type = 0x1197, This type = 0x11A8, 
	Call type = ThisCall, Func attr = none
	Parms = 0, Arg list type = 0x1022, This adjust = 0

0x11b2 : Length = 26, Leaf = 0x1009 LF_MFUNCTION
	Return type = 0x11A4, Class type = 0x1197, This type = 0x1198, 
	Call type = ThisCall, Func attr = none
	Parms = 0, Arg list type = 0x1022, This adjust = 0

0x11b3 : Length = 10, Leaf = 0x1002 LF_POINTER
	Pointer (NEAR32), Size: 4
	Element type : 0x11AA

0x11b4 : Length = 26, Leaf = 0x1009 LF_MFUNCTION
	Return type = 0x11B3, Class type = 0x1197, This type = 0x11A8, 
	Call type = ThisCall, Func attr = none
	Parms = 0, Arg list type = 0x1022, This adjust = 0

0x11b5 : Length = 18, Leaf = 0x1206 LF_METHODLIST
	list[0] = public, VANILLA, 0x11B2, 
	list[1] = public, VANILLA, 0x11B4, 

0x11b6 : Length = 26, Leaf = 0x1009 LF_MFUNCTION
	Return type = T_VOID(0003), Class type = 0x1197, This type = 0x1198, 
	Call type = ThisCall, Func attr = none
	Parms = 1, Arg list type = 0x119b, This adjust = 0

0x11b7 : Length = 14, Leaf = 0x1503 LF_ARRAY
	Element type = 0x11A1
	Index type = T_ULONG(0022)
	length = 40
	Name = 

0x11b8 : Length = 26, Leaf = 0x1009 LF_MFUNCTION
	Return type = T_VOID(0003), Class type = 0x1197, This type = 0x1198, 
	Call type = ThisCall, Func attr = none
	Parms = 1, Arg list type = 0x1046, This adjust = 0

0x11b9 : Length = 26, Leaf = 0x1009 LF_MFUNCTION
	Return type = T_32PVOID(0403), Class type = 0x1197, This type = 0x1198, 
	Call type = ThisCall, Func attr = none
	Parms = 1, Arg list type = 0x1046, This adjust = 0

0x11ba : Length = 478, Leaf = 0x1203 LF_FIELDLIST
	list[0] = LF_METHOD, count = 2, list = 0x119E, name = 'DynArray<tinyxml2::MemPoolT<52>::Block *,10>'
	list[1] = LF_ONEMETHOD, public, VANILLA, index = 0x119F, name = '~DynArray<tinyxml2::MemPoolT<52>::Block *,10>'
	list[2] = LF_ONEMETHOD, public, VANILLA, index = 0x119F, name = 'Clear'
	list[3] = LF_ONEMETHOD, public, VANILLA, index = 0x11A3, name = 'Push'
	list[4] = LF_ONEMETHOD, public, VANILLA, index = 0x11A5, name = 'PushArr'
	list[5] = LF_ONEMETHOD, public, VANILLA, index = 0x11A6, name = 'Pop'
	list[6] = LF_ONEMETHOD, public, VANILLA, index = 0x11A7, name = 'PopArr'
	list[7] = LF_ONEMETHOD, public, VANILLA, index = 0x11A9, name = 'Empty'
	list[8] = LF_METHOD, count = 2, list = 0x11AF, name = 'operator[]'
	list[9] = LF_ONEMETHOD, public, VANILLA, index = 0x11B0, name = 'PeekTop'
	list[10] = LF_ONEMETHOD, public, VANILLA, index = 0x11B1, name = 'Size'
	list[11] = LF_ONEMETHOD, public, VANILLA, index = 0x11B1, name = 'Capacity'
	list[12] = LF_ONEMETHOD, public, VANILLA, index = 0x11A7, name = 'SwapRemove'
	list[13] = LF_METHOD, count = 2, list = 0x11B5, name = 'Mem'
	list[14] = LF_ONEMETHOD, private, VANILLA, index = 0x11B6, name = 'operator='
	list[15] = LF_ONEMETHOD, private, VANILLA, index = 0x11A7, name = 'EnsureCapacity'
	list[16] = LF_MEMBER, private, type = 0x11A4, offset = 0
		member name = '_mem'
	list[17] = LF_MEMBER, private, type = 0x11B7, offset = 4
		member name = '_pool'
	list[18] = LF_MEMBER, private, type = T_INT4(0074), offset = 44
		member name = '_allocated'
	list[19] = LF_MEMBER, private, type = T_INT4(0074), offset = 48
		member name = '_size'
	list[20] = LF_ONEMETHOD, public, VANILLA, (compgenx), index = 0x11B8, name = '__autoclassinit2'
	list[21] = LF_ONEMETHOD, public, VANILLA, (compgenx), index = 0x11B9, name = '__vecDelDtor'

0x11bb : Length = 142, Leaf = 0x1504 LF_CLASS
	# members = 25,  field list type 0x11ba, CONSTRUCTOR, OVERLOAD, OVERLOADED ASSIGNMENT, 
	Derivation list type 0x0000, VT shape type 0x0000
	Size = 52, class name = tinyxml2::DynArray<tinyxml2::MemPoolT<52>::Block *,10>, unique name = .?AV?$DynArray@PAUBlock@?$MemPoolT@$0DE@@tinyxml2@@$09@tinyxml2@@, UDT(0x000011bb)

0x11bc : Length = 10, Leaf = 0x1002 LF_POINTER
	const Pointer (NEAR32), Size: 4
	Element type : 0x1125

0x11bd : Length = 10, Leaf = 0x1001 LF_MODIFIER
	const, modifies type 0x1125

0x11be : Length = 10, Leaf = 0x1002 LF_POINTER
	L-value Reference (NEAR32), Size: 4
	Element type : 0x11BD

0x11bf : Length = 10, Leaf = 0x1201 LF_ARGLIST argument count = 1
	list[0] = 0x11BE

0x11c0 : Length = 26, Leaf = 0x1009 LF_MFUNCTION
	Return type = T_VOID(0003), Class type = 0x1125, This type = 0x11BC, 
	Call type = ThisCall, Func attr = instance constructor
	Parms = 1, Arg list type = 0x11bf, This adjust = 0

0x11c1 : Length = 26, Leaf = 0x1009 LF_MFUNCTION
	Return type = T_VOID(0003), Class type = 0x1125, This type = 0x11BC, 
	Call type = ThisCall, Func attr = instance constructor
	Parms = 0, Arg list type = 0x1022, This adjust = 0

0x11c2 : Length = 18, Leaf = 0x1206 LF_METHODLIST
	list[0] = private, VANILLA, 0x11C0, 
	list[1] = public, VANILLA, 0x11C1, 

0x11c3 : Length = 26, Leaf = 0x1009 LF_MFUNCTION
	Return type = T_VOID(0003), Class type = 0x1125, This type = 0x11BC, 
	Call type = ThisCall, Func attr = none
	Parms = 0, Arg list type = 0x1022, This adjust = 0

0x11c4 : Length = 10, Leaf = 0x1002 LF_POINTER
	Pointer (NEAR32), Size: 4
	Element type : 0x1124

0x11c5 : Length = 10, Leaf = 0x1201 LF_ARGLIST argument count = 1
	list[0] = 0x11C4

0x11c6 : Length = 26, Leaf = 0x1009 LF_MFUNCTION
	Return type = T_VOID(0003), Class type = 0x1125, This type = 0x11BC, 
	Call type = ThisCall, Func attr = none
	Parms = 1, Arg list type = 0x11c5, This adjust = 0

0x11c7 : Length = 10, Leaf = 0x1002 LF_POINTER
	Pointer (NEAR32), Size: 4
	Element type : 0x11C4

0x11c8 : Length = 26, Leaf = 0x1009 LF_MFUNCTION
	Return type = 0x11C7, Class type = 0x1125, This type = 0x11BC, 
	Call type = ThisCall, Func attr = none
	Parms = 1, Arg list type = 0x1048, This adjust = 0

0x11c9 : Length = 26, Leaf = 0x1009 LF_MFUNCTION
	Return type = 0x11C4, Class type = 0x1125, This type = 0x11BC, 
	Call type = ThisCall, Func attr = none
	Parms = 0, Arg list type = 0x1022, This adjust = 0

0x11ca : Length = 26, Leaf = 0x1009 LF_MFUNCTION
	Return type = T_VOID(0003), Class type = 0x1125, This type = 0x11BC, 
	Call type = ThisCall, Func attr = none
	Parms = 1, Arg list type = 0x1048, This adjust = 0

0x11cb : Length = 10, Leaf = 0x1002 LF_POINTER
	const Pointer (NEAR32), Size: 4
	Element type : 0x11BD

0x11cc : Length = 26, Leaf = 0x1009 LF_MFUNCTION
	Return type = T_BOOL08(0030), Class type = 0x1125, This type = 0x11CB, 
	Call type = ThisCall, Func attr = none
	Parms = 0, Arg list type = 0x1022, This adjust = 0

0x11cd : Length = 10, Leaf = 0x1002 LF_POINTER
	const Pointer (NEAR32), Size: 4
	Element type : 0x1124

0x11ce : Length = 10, Leaf = 0x1002 LF_POINTER
	L-value Reference (NEAR32), Size: 4
	Element type : 0x11CD

0x11cf : Length = 26, Leaf = 0x1009 LF_MFUNCTION
	Return type = 0x11CE, Class type = 0x1125, This type = 0x11CB, 
	Call type = ThisCall, Func attr = none
	Parms = 1, Arg list type = 0x1048, This adjust = 0

0x11d0 : Length = 10, Leaf = 0x1002 LF_POINTER
	L-value Reference (NEAR32), Size: 4
	Element type : 0x11C4

0x11d1 : Length = 26, Leaf = 0x1009 LF_MFUNCTION
	Return type = 0x11D0, Class type = 0x1125, This type = 0x11BC, 
	Call type = ThisCall, Func attr = none
	Parms = 1, Arg list type = 0x1048, This adjust = 0

0x11d2 : Length = 18, Leaf = 0x1206 LF_METHODLIST
	list[0] = public, VANILLA, 0x11CF, 
	list[1] = public, VANILLA, 0x11D1, 

0x11d3 : Length = 26, Leaf = 0x1009 LF_MFUNCTION
	Return type = 0x11CE, Class type = 0x1125, This type = 0x11CB, 
	Call type = ThisCall, Func attr = none
	Parms = 0, Arg list type = 0x1022, This adjust = 0

0x11d4 : Length = 26, Leaf = 0x1009 LF_MFUNCTION
	Return type = T_INT4(0074), Class type = 0x1125, This type = 0x11CB, 
	Call type = ThisCall, Func attr = none
	Parms = 0, Arg list type = 0x1022, This adjust = 0

0x11d5 : Length = 26, Leaf = 0x1009 LF_MFUNCTION
	Return type = 0x11C7, Class type = 0x1125, This type = 0x11BC, 
	Call type = ThisCall, Func attr = none
	Parms = 0, Arg list type = 0x1022, This adjust = 0

0x11d6 : Length = 10, Leaf = 0x1002 LF_POINTER
	Pointer (NEAR32), Size: 4
	Element type : 0x11CD

0x11d7 : Length = 26, Leaf = 0x1009 LF_MFUNCTION
	Return type = 0x11D6, Class type = 0x1125, This type = 0x11CB, 
	Call type = ThisCall, Func attr = none
	Parms = 0, Arg list type = 0x1022, This adjust = 0

0x11d8 : Length = 18, Leaf = 0x1206 LF_METHODLIST
	list[0] = public, VANILLA, 0x11D5, 
	list[1] = public, VANILLA, 0x11D7, 

0x11d9 : Length = 26, Leaf = 0x1009 LF_MFUNCTION
	Return type = T_VOID(0003), Class type = 0x1125, This type = 0x11BC, 
	Call type = ThisCall, Func attr = none
	Parms = 1, Arg list type = 0x11bf, This adjust = 0

0x11da : Length = 14, Leaf = 0x1503 LF_ARRAY
	Element type = 0x11C4
	Index type = T_ULONG(0022)
	length = 40
	Name = 

0x11db : Length = 26, Leaf = 0x1009 LF_MFUNCTION
	Return type = T_VOID(0003), Class type = 0x1125, This type = 0x11BC, 
	Call type = ThisCall, Func attr = none
	Parms = 1, Arg list type = 0x1046, This adjust = 0

0x11dc : Length = 26, Leaf = 0x1009 LF_MFUNCTION
	Return type = T_32PVOID(0403), Class type = 0x1125, This type = 0x11BC, 
	Call type = ThisCall, Func attr = none
	Parms = 1, Arg list type = 0x1046, This adjust = 0

0x11dd : Length = 478, Leaf = 0x1203 LF_FIELDLIST
	list[0] = LF_METHOD, count = 2, list = 0x11C2, name = 'DynArray<tinyxml2::MemPoolT<56>::Block *,10>'
	list[1] = LF_ONEMETHOD, public, VANILLA, index = 0x11C3, name = '~DynArray<tinyxml2::MemPoolT<56>::Block *,10>'
	list[2] = LF_ONEMETHOD, public, VANILLA, index = 0x11C3, name = 'Clear'
	list[3] = LF_ONEMETHOD, public, VANILLA, index = 0x11C6, name = 'Push'
	list[4] = LF_ONEMETHOD, public, VANILLA, index = 0x11C8, name = 'PushArr'
	list[5] = LF_ONEMETHOD, public, VANILLA, index = 0x11C9, name = 'Pop'
	list[6] = LF_ONEMETHOD, public, VANILLA, index = 0x11CA, name = 'PopArr'
	list[7] = LF_ONEMETHOD, public, VANILLA, index = 0x11CC, name = 'Empty'
	list[8] = LF_METHOD, count = 2, list = 0x11D2, name = 'operator[]'
	list[9] = LF_ONEMETHOD, public, VANILLA, index = 0x11D3, name = 'PeekTop'
	list[10] = LF_ONEMETHOD, public, VANILLA, index = 0x11D4, name = 'Size'
	list[11] = LF_ONEMETHOD, public, VANILLA, index = 0x11D4, name = 'Capacity'
	list[12] = LF_ONEMETHOD, public, VANILLA, index = 0x11CA, name = 'SwapRemove'
	list[13] = LF_METHOD, count = 2, list = 0x11D8, name = 'Mem'
	list[14] = LF_ONEMETHOD, private, VANILLA, index = 0x11D9, name = 'operator='
	list[15] = LF_ONEMETHOD, private, VANILLA, index = 0x11CA, name = 'EnsureCapacity'
	list[16] = LF_MEMBER, private, type = 0x11C7, offset = 0
		member name = '_mem'
	list[17] = LF_MEMBER, private, type = 0x11DA, offset = 4
		member name = '_pool'
	list[18] = LF_MEMBER, private, type = T_INT4(0074), offset = 44
		member name = '_allocated'
	list[19] = LF_MEMBER, private, type = T_INT4(0074), offset = 48
		member name = '_size'
	list[20] = LF_ONEMETHOD, public, VANILLA, (compgenx), index = 0x11DB, name = '__autoclassinit2'
	list[21] = LF_ONEMETHOD, public, VANILLA, (compgenx), index = 0x11DC, name = '__vecDelDtor'

0x11de : Length = 142, Leaf = 0x1504 LF_CLASS
	# members = 25,  field list type 0x11dd, CONSTRUCTOR, OVERLOAD, OVERLOADED ASSIGNMENT, 
	Derivation list type 0x0000, VT shape type 0x0000
	Size = 52, class name = tinyxml2::DynArray<tinyxml2::MemPoolT<56>::Block *,10>, unique name = .?AV?$DynArray@PAUBlock@?$MemPoolT@$0DI@@tinyxml2@@$09@tinyxml2@@, UDT(0x000011de)

0x11df : Length = 10, Leaf = 0x1002 LF_POINTER
	const Pointer (NEAR32), Size: 4
	Element type : 0x10D6

0x11e0 : Length = 10, Leaf = 0x1001 LF_MODIFIER
	const, modifies type 0x10D6

0x11e1 : Length = 10, Leaf = 0x1002 LF_POINTER
	L-value Reference (NEAR32), Size: 4
	Element type : 0x11E0

0x11e2 : Length = 10, Leaf = 0x1201 LF_ARGLIST argument count = 1
	list[0] = 0x11E1

0x11e3 : Length = 26, Leaf = 0x1009 LF_MFUNCTION
	Return type = T_VOID(0003), Class type = 0x10D6, This type = 0x11DF, 
	Call type = ThisCall, Func attr = instance constructor
	Parms = 1, Arg list type = 0x11e2, This adjust = 0

0x11e4 : Length = 26, Leaf = 0x1009 LF_MFUNCTION
	Return type = T_VOID(0003), Class type = 0x10D6, This type = 0x11DF, 
	Call type = ThisCall, Func attr = instance constructor
	Parms = 0, Arg list type = 0x1022, This adjust = 0

0x11e5 : Length = 18, Leaf = 0x1206 LF_METHODLIST
	list[0] = private, VANILLA, 0x11E3, 
	list[1] = public, VANILLA, 0x11E4, 

0x11e6 : Length = 26, Leaf = 0x1009 LF_MFUNCTION
	Return type = T_VOID(0003), Class type = 0x10D6, This type = 0x11DF, 
	Call type = ThisCall, Func attr = none
	Parms = 0, Arg list type = 0x1022, This adjust = 0

0x11e7 : Length = 26, Leaf = 0x1009 LF_MFUNCTION
	Return type = T_VOID(0003), Class type = 0x10D6, This type = 0x11DF, 
	Call type = ThisCall, Func attr = none
	Parms = 1, Arg list type = 0x10d0, This adjust = 0

0x11e8 : Length = 26, Leaf = 0x1009 LF_MFUNCTION
	Return type = T_32PRCHAR(0470), Class type = 0x10D6, This type = 0x11DF, 
	Call type = ThisCall, Func attr = none
	Parms = 1, Arg list type = 0x1048, This adjust = 0

0x11e9 : Length = 26, Leaf = 0x1009 LF_MFUNCTION
	Return type = T_RCHAR(0070), Class type = 0x10D6, This type = 0x11DF, 
	Call type = ThisCall, Func attr = none
	Parms = 0, Arg list type = 0x1022, This adjust = 0

0x11ea : Length = 26, Leaf = 0x1009 LF_MFUNCTION
	Return type = T_VOID(0003), Class type = 0x10D6, This type = 0x11DF, 
	Call type = ThisCall, Func attr = none
	Parms = 1, Arg list type = 0x1048, This adjust = 0

0x11eb : Length = 10, Leaf = 0x1002 LF_POINTER
	const Pointer (NEAR32), Size: 4
	Element type : 0x11E0

0x11ec : Length = 26, Leaf = 0x1009 LF_MFUNCTION
	Return type = T_BOOL08(0030), Class type = 0x10D6, This type = 0x11EB, 
	Call type = ThisCall, Func attr = none
	Parms = 0, Arg list type = 0x1022, This adjust = 0

0x11ed : Length = 26, Leaf = 0x1009 LF_MFUNCTION
	Return type = 0x1101, Class type = 0x10D6, This type = 0x11EB, 
	Call type = ThisCall, Func attr = none
	Parms = 1, Arg list type = 0x1048, This adjust = 0

0x11ee : Length = 26, Leaf = 0x1009 LF_MFUNCTION
	Return type = 0x1103, Class type = 0x10D6, This type = 0x11DF, 
	Call type = ThisCall, Func attr = none
	Parms = 1, Arg list type = 0x1048, This adjust = 0

0x11ef : Length = 18, Leaf = 0x1206 LF_METHODLIST
	list[0] = public, VANILLA, 0x11ED, 
	list[1] = public, VANILLA, 0x11EE, 

0x11f0 : Length = 26, Leaf = 0x1009 LF_MFUNCTION
	Return type = 0x1101, Class type = 0x10D6, This type = 0x11EB, 
	Call type = ThisCall, Func attr = none
	Parms = 0, Arg list type = 0x1022, This adjust = 0

0x11f1 : Length = 26, Leaf = 0x1009 LF_MFUNCTION
	Return type = T_INT4(0074), Class type = 0x10D6, This type = 0x11EB, 
	Call type = ThisCall, Func attr = none
	Parms = 0, Arg list type = 0x1022, This adjust = 0

0x11f2 : Length = 26, Leaf = 0x1009 LF_MFUNCTION
	Return type = T_32PRCHAR(0470), Class type = 0x10D6, This type = 0x11DF, 
	Call type = ThisCall, Func attr = none
	Parms = 0, Arg list type = 0x1022, This adjust = 0

0x11f3 : Length = 26, Leaf = 0x1009 LF_MFUNCTION
	Return type = 0x101E, Class type = 0x10D6, This type = 0x11EB, 
	Call type = ThisCall, Func attr = none
	Parms = 0, Arg list type = 0x1022, This adjust = 0

0x11f4 : Length = 18, Leaf = 0x1206 LF_METHODLIST
	list[0] = public, VANILLA, 0x11F2, 
	list[1] = public, VANILLA, 0x11F3, 

0x11f5 : Length = 26, Leaf = 0x1009 LF_MFUNCTION
	Return type = T_VOID(0003), Class type = 0x10D6, This type = 0x11DF, 
	Call type = ThisCall, Func attr = none
	Parms = 1, Arg list type = 0x11e2, This adjust = 0

0x11f6 : Length = 14, Leaf = 0x1503 LF_ARRAY
	Element type = T_RCHAR(0070)
	Index type = T_ULONG(0022)
	length = 20
	Name = 

0x11f7 : Length = 26, Leaf = 0x1009 LF_MFUNCTION
	Return type = T_VOID(0003), Class type = 0x10D6, This type = 0x11DF, 
	Call type = ThisCall, Func attr = none
	Parms = 1, Arg list type = 0x1046, This adjust = 0

0x11f8 : Length = 26, Leaf = 0x1009 LF_MFUNCTION
	Return type = T_32PVOID(0403), Class type = 0x10D6, This type = 0x11DF, 
	Call type = ThisCall, Func attr = none
	Parms = 1, Arg list type = 0x1046, This adjust = 0

0x11f9 : Length = 422, Leaf = 0x1203 LF_FIELDLIST
	list[0] = LF_METHOD, count = 2, list = 0x11E5, name = 'DynArray<char,20>'
	list[1] = LF_ONEMETHOD, public, VANILLA, index = 0x11E6, name = '~DynArray<char,20>'
	list[2] = LF_ONEMETHOD, public, VANILLA, index = 0x11E6, name = 'Clear'
	list[3] = LF_ONEMETHOD, public, VANILLA, index = 0x11E7, name = 'Push'
	list[4] = LF_ONEMETHOD, public, VANILLA, index = 0x11E8, name = 'PushArr'
	list[5] = LF_ONEMETHOD, public, VANILLA, index = 0x11E9, name = 'Pop'
	list[6] = LF_ONEMETHOD, public, VANILLA, index = 0x11EA, name = 'PopArr'
	list[7] = LF_ONEMETHOD, public, VANILLA, index = 0x11EC, name = 'Empty'
	list[8] = LF_METHOD, count = 2, list = 0x11EF, name = 'operator[]'
	list[9] = LF_ONEMETHOD, public, VANILLA, index = 0x11F0, name = 'PeekTop'
	list[10] = LF_ONEMETHOD, public, VANILLA, index = 0x11F1, name = 'Size'
	list[11] = LF_ONEMETHOD, public, VANILLA, index = 0x11F1, name = 'Capacity'
	list[12] = LF_ONEMETHOD, public, VANILLA, index = 0x11EA, name = 'SwapRemove'
	list[13] = LF_METHOD, count = 2, list = 0x11F4, name = 'Mem'
	list[14] = LF_ONEMETHOD, private, VANILLA, index = 0x11F5, name = 'operator='
	list[15] = LF_ONEMETHOD, private, VANILLA, index = 0x11EA, name = 'EnsureCapacity'
	list[16] = LF_MEMBER, private, type = T_32PRCHAR(0470), offset = 0
		member name = '_mem'
	list[17] = LF_MEMBER, private, type = 0x11F6, offset = 4
		member name = '_pool'
	list[18] = LF_MEMBER, private, type = T_INT4(0074), offset = 24
		member name = '_allocated'
	list[19] = LF_MEMBER, private, type = T_INT4(0074), offset = 28
		member name = '_size'
	list[20] = LF_ONEMETHOD, public, VANILLA, (compgenx), index = 0x11F7, name = '__autoclassinit2'
	list[21] = LF_ONEMETHOD, public, VANILLA, (compgenx), index = 0x11F8, name = '__vecDelDtor'

0x11fa : Length = 82, Leaf = 0x1504 LF_CLASS
	# members = 25,  field list type 0x11f9, CONSTRUCTOR, OVERLOAD, OVERLOADED ASSIGNMENT, 
	Derivation list type 0x0000, VT shape type 0x0000
	Size = 32, class name = tinyxml2::DynArray<char,20>, unique name = .?AV?$DynArray@D$0BE@@tinyxml2@@, UDT(0x000011fa)

0x11fb : Length = 78, Leaf = 0x1504 LF_CLASS
	# members = 0,  field list type 0x0000, FORWARD REF, 
	Derivation list type 0x0000, VT shape type 0x0000
	Size = 0, class name = tinyxml2::MemPoolT<40>, unique name = .?AV?$MemPoolT@$0CI@@tinyxml2@@, UDT(0x00001211)

0x11fc : Length = 10, Leaf = 0x1002 LF_POINTER
	const Pointer (NEAR32), Size: 4
	Element type : 0x11FB

0x11fd : Length = 10, Leaf = 0x1001 LF_MODIFIER
	const, modifies type 0x11FB

0x11fe : Length = 10, Leaf = 0x1002 LF_POINTER
	L-value Reference (NEAR32), Size: 4
	Element type : 0x11FD

0x11ff : Length = 10, Leaf = 0x1201 LF_ARGLIST argument count = 1
	list[0] = 0x11FE

0x1200 : Length = 26, Leaf = 0x1009 LF_MFUNCTION
	Return type = T_VOID(0003), Class type = 0x11FB, This type = 0x11FC, 
	Call type = ThisCall, Func attr = instance constructor
	Parms = 1, Arg list type = 0x11ff, This adjust = 0

0x1201 : Length = 26, Leaf = 0x1009 LF_MFUNCTION
	Return type = T_VOID(0003), Class type = 0x11FB, This type = 0x11FC, 
	Call type = ThisCall, Func attr = instance constructor
	Parms = 0, Arg list type = 0x1022, This adjust = 0

0x1202 : Length = 18, Leaf = 0x1206 LF_METHODLIST
	list[0] = private, VANILLA, 0x1200, 
	list[1] = public, VANILLA, 0x1201, 

0x1203 : Length = 26, Leaf = 0x1009 LF_MFUNCTION
	Return type = T_VOID(0003), Class type = 0x11FB, This type = 0x11FC, 
	Call type = ThisCall, Func attr = none
	Parms = 0, Arg list type = 0x1022, This adjust = 0

0x1204 : Length = 10, Leaf = 0x1002 LF_POINTER
	const Pointer (NEAR32), Size: 4
	Element type : 0x11FD

0x1205 : Length = 26, Leaf = 0x1009 LF_MFUNCTION
	Return type = T_INT4(0074), Class type = 0x11FB, This type = 0x1204, 
	Call type = ThisCall, Func attr = none
	Parms = 0, Arg list type = 0x1022, This adjust = 0

0x1206 : Length = 26, Leaf = 0x1009 LF_MFUNCTION
	Return type = T_32PVOID(0403), Class type = 0x11FB, This type = 0x11FC, 
	Call type = ThisCall, Func attr = none
	Parms = 0, Arg list type = 0x1022, This adjust = 0

0x1207 : Length = 26, Leaf = 0x1009 LF_MFUNCTION
	Return type = T_VOID(0003), Class type = 0x11FB, This type = 0x11FC, 
	Call type = ThisCall, Func attr = none
	Parms = 1, Arg list type = 0x111d, This adjust = 0

0x1208 : Length = 26, Leaf = 0x1009 LF_MFUNCTION
	Return type = T_VOID(0003), Class type = 0x11FB, This type = 0x11FC, 
	Call type = ThisCall, Func attr = none
	Parms = 1, Arg list type = 0x104a, This adjust = 0

0x1209 : Length = 26, Leaf = 0x1203 LF_FIELDLIST
	list[0] = LF_ENUMERATE, public, value = 102, name = 'ITEMS_PER_BLOCK'

0x120a : Length = 134, Leaf = 0x1507 LF_ENUM
	# members = 1,  type = T_INT4(0074) field list type 0x1209
NESTED, 	enum name = tinyxml2::MemPoolT<40>::<unnamed-enum-ITEMS_PER_BLOCK>, UDT(0x0000120a)

0x120b : Length = 26, Leaf = 0x1009 LF_MFUNCTION
	Return type = T_VOID(0003), Class type = 0x11FB, This type = 0x11FC, 
	Call type = ThisCall, Func attr = none
	Parms = 1, Arg list type = 0x11ff, This adjust = 0

0x120c : Length = 78, Leaf = 0x1506 LF_UNION
	# members = 0,  field list type 0x0000, NESTED, FORWARD REF, Size = 0	,class name = tinyxml2::MemPoolT<40>::Item, unique name = .?ATItem@?$MemPoolT@$0CI@@tinyxml2@@, UDT(0x00001217)

0x120d : Length = 10, Leaf = 0x1002 LF_POINTER
	Pointer (NEAR32), Size: 4
	Element type : 0x120C

0x120e : Length = 26, Leaf = 0x1009 LF_MFUNCTION
	Return type = T_VOID(0003), Class type = 0x11FB, This type = 0x11FC, 
	Call type = ThisCall, Func attr = none
	Parms = 1, Arg list type = 0x1046, This adjust = 0

0x120f : Length = 26, Leaf = 0x1009 LF_MFUNCTION
	Return type = T_32PVOID(0403), Class type = 0x11FB, This type = 0x11FC, 
	Call type = ThisCall, Func attr = none
	Parms = 1, Arg list type = 0x1046, This adjust = 0

0x1210 : Length = 534, Leaf = 0x1203 LF_FIELDLIST
	list[0] = LF_BCLASS, public, type = 0x105A, offset = 0
	list[1] = LF_METHOD, count = 2, list = 0x1202, name = 'MemPoolT<40>'
	list[2] = LF_ONEMETHOD, public, VIRTUAL, index = 0x1203, name = '~MemPoolT<40>'
	list[3] = LF_ONEMETHOD, public, VANILLA, index = 0x1203, name = 'Clear'
	list[4] = LF_ONEMETHOD, public, VIRTUAL, index = 0x1205, name = 'ItemSize'
	list[5] = LF_ONEMETHOD, public, VANILLA, index = 0x1205, name = 'CurrentAllocs'
	list[6] = LF_ONEMETHOD, public, VIRTUAL, index = 0x1206, name = 'Alloc'
	list[7] = LF_ONEMETHOD, public, VIRTUAL, index = 0x1207, name = 'Free'
	list[8] = LF_ONEMETHOD, public, VANILLA, index = 0x1208, name = 'Trace'
	list[9] = LF_ONEMETHOD, public, VIRTUAL, index = 0x1203, name = 'SetTracked'
	list[10] = LF_ONEMETHOD, public, VANILLA, index = 0x1205, name = 'Untracked'
	list[11] = LF_NESTTYPE, type = 0x120A, <unnamed-enum-ITEMS_PER_BLOCK>
	list[12] = LF_ONEMETHOD, private, VANILLA, index = 0x120B, name = 'operator='
	list[13] = LF_NESTTYPE, type = 0x120C, Item
	list[14] = LF_NESTTYPE, type = 0x117B, Block
	list[15] = LF_MEMBER, private, type = 0x1172, offset = 4
		member name = '_blockPtrs'
	list[16] = LF_MEMBER, private, type = 0x120D, offset = 56
		member name = '_root'
	list[17] = LF_MEMBER, private, type = T_INT4(0074), offset = 60
		member name = '_currentAllocs'
	list[18] = LF_MEMBER, private, type = T_INT4(0074), offset = 64
		member name = '_nAllocs'
	list[19] = LF_MEMBER, private, type = T_INT4(0074), offset = 68
		member name = '_maxAllocs'
	list[20] = LF_MEMBER, private, type = T_INT4(0074), offset = 72
		member name = '_nUntracked'
	list[21] = LF_ONEMETHOD, public, VANILLA, (compgenx), index = 0x120E, name = '__autoclassinit2'
	list[22] = LF_ONEMETHOD, public, VANILLA, (compgenx), index = 0x1203, name = '__local_vftable_ctor_closure'
	list[23] = LF_ONEMETHOD, public, INTRODUCING VIRTUAL, (compgenx), index = 0x120F, 
		vfptr offset = 0, name = '__vecDelDtor'

0x1211 : Length = 78, Leaf = 0x1504 LF_CLASS
	# members = 25,  field list type 0x1210, CONSTRUCTOR, OVERLOAD, CONTAINS NESTED, OVERLOADED ASSIGNMENT, 
	Derivation list type 0x0000, VT shape type 0x112a
	Size = 76, class name = tinyxml2::MemPoolT<40>, unique name = .?AV?$MemPoolT@$0CI@@tinyxml2@@, UDT(0x00001211)

0x1212 : Length = 14, Leaf = 0x1503 LF_ARRAY
	Element type = 0x120C
	Index type = T_ULONG(0022)
	length = 4080
	Name = 

0x1213 : Length = 18, Leaf = 0x1203 LF_FIELDLIST
	list[0] = LF_MEMBER, public, type = 0x1212, offset = 0
		member name = 'items'

0x1214 : Length = 90, Leaf = 0x1505 LF_STRUCTURE
	# members = 1,  field list type 0x1213, NESTED, 
	Derivation list type 0x0000, VT shape type 0x0000
	Size = 4080, class name = tinyxml2::MemPoolT<40>::Block, unique name = .?AUBlock@?$MemPoolT@$0CI@@tinyxml2@@, UDT(0x00001214)

0x1215 : Length = 14, Leaf = 0x1503 LF_ARRAY
	Element type = T_RCHAR(0070)
	Index type = T_ULONG(0022)
	length = 40
	Name = 

0x1216 : Length = 38, Leaf = 0x1203 LF_FIELDLIST
	list[0] = LF_MEMBER, public, type = 0x120D, offset = 0
		member name = 'next'
	list[1] = LF_MEMBER, public, type = 0x1215, offset = 0
		member name = 'itemData'

0x1217 : Length = 78, Leaf = 0x1506 LF_UNION
	# members = 2,  field list type 0x1216, NESTED, SEALED, Size = 40	,class name = tinyxml2::MemPoolT<40>::Item, unique name = .?ATItem@?$MemPoolT@$0CI@@tinyxml2@@, UDT(0x00001217)

0x1218 : Length = 10, Leaf = 0x1002 LF_POINTER
	Pointer (NEAR32), Size: 4
	Element type : 0x112A

0x1219 : Length = 10, Leaf = 0x1002 LF_POINTER
	const Pointer (NEAR32), Size: 4
	Element type : 0x105A

0x121a : Length = 10, Leaf = 0x1001 LF_MODIFIER
	const, modifies type 0x105A

0x121b : Length = 10, Leaf = 0x1002 LF_POINTER
	L-value Reference (NEAR32), Size: 4
	Element type : 0x121A

0x121c : Length = 10, Leaf = 0x1201 LF_ARGLIST argument count = 1
	list[0] = 0x121B

0x121d : Length = 26, Leaf = 0x1009 LF_MFUNCTION
	Return type = T_VOID(0003), Class type = 0x105A, This type = 0x1219, 
	Call type = ThisCall, Func attr = instance constructor
	Parms = 1, Arg list type = 0x121c, This adjust = 0

0x121e : Length = 26, Leaf = 0x1009 LF_MFUNCTION
	Return type = T_VOID(0003), Class type = 0x105A, This type = 0x1219, 
	Call type = ThisCall, Func attr = instance constructor
	Parms = 0, Arg list type = 0x1022, This adjust = 0

0x121f : Length = 18, Leaf = 0x1206 LF_METHODLIST
	list[0] = public, VANILLA, (compgenx), 0x121D, 
	list[1] = public, VANILLA, 0x121E, 

0x1220 : Length = 26, Leaf = 0x1009 LF_MFUNCTION
	Return type = T_VOID(0003), Class type = 0x105A, This type = 0x1219, 
	Call type = ThisCall, Func attr = none
	Parms = 0, Arg list type = 0x1022, This adjust = 0

0x1221 : Length = 10, Leaf = 0x1002 LF_POINTER
	const Pointer (NEAR32), Size: 4
	Element type : 0x121A

0x1222 : Length = 26, Leaf = 0x1009 LF_MFUNCTION
	Return type = T_INT4(0074), Class type = 0x105A, This type = 0x1221, 
	Call type = ThisCall, Func attr = none
	Parms = 0, Arg list type = 0x1022, This adjust = 0

0x1223 : Length = 26, Leaf = 0x1009 LF_MFUNCTION
	Return type = T_32PVOID(0403), Class type = 0x105A, This type = 0x1219, 
	Call type = ThisCall, Func attr = none
	Parms = 0, Arg list type = 0x1022, This adjust = 0

0x1224 : Length = 26, Leaf = 0x1009 LF_MFUNCTION
	Return type = T_VOID(0003), Class type = 0x105A, This type = 0x1219, 
	Call type = ThisCall, Func attr = none
	Parms = 1, Arg list type = 0x111d, This adjust = 0

0x1225 : Length = 10, Leaf = 0x1002 LF_POINTER
	L-value Reference (NEAR32), Size: 4
	Element type : 0x105A

0x1226 : Length = 26, Leaf = 0x1009 LF_MFUNCTION
	Return type = 0x1225, Class type = 0x105A, This type = 0x1219, 
	Call type = ThisCall, Func attr = none
	Parms = 1, Arg list type = 0x121c, This adjust = 0

0x1227 : Length = 26, Leaf = 0x1009 LF_MFUNCTION
	Return type = T_32PVOID(0403), Class type = 0x105A, This type = 0x1219, 
	Call type = ThisCall, Func attr = none
	Parms = 1, Arg list type = 0x1046, This adjust = 0

0x1228 : Length = 226, Leaf = 0x1203 LF_FIELDLIST
	list[0] = LF_VFUNCTAB, type = 0x1218
	list[1] = LF_METHOD, count = 2, list = 0x121F, name = 'MemPool'
	list[2] = LF_ONEMETHOD, public, INTRODUCING VIRTUAL, index = 0x1220, 
		vfptr offset = 0, name = '~MemPool'
	list[3] = LF_ONEMETHOD, public, PURE INTRO, index = 0x1222, 
		vfptr offset = 4, name = 'ItemSize'
	list[4] = LF_ONEMETHOD, public, PURE INTRO, index = 0x1223, 
		vfptr offset = 8, name = 'Alloc'
	list[5] = LF_ONEMETHOD, public, PURE INTRO, index = 0x1224, 
		vfptr offset = 12, name = 'Free'
	list[6] = LF_ONEMETHOD, public, PURE INTRO, index = 0x1220, 
		vfptr offset = 16, name = 'SetTracked'
	list[7] = LF_ONEMETHOD, public, VANILLA, (compgenx), index = 0x1226, name = 'operator='
	list[8] = LF_ONEMETHOD, public, VANILLA, (compgenx), index = 0x1220, name = '__local_vftable_ctor_closure'
	list[9] = LF_ONEMETHOD, public, INTRODUCING VIRTUAL, (compgenx), index = 0x1227, 
		vfptr offset = 0, name = '__vecDelDtor'

0x1229 : Length = 62, Leaf = 0x1504 LF_CLASS
	# members = 11,  field list type 0x1228, CONSTRUCTOR, OVERLOAD, OVERLOADED ASSIGNMENT, 
	Derivation list type 0x0000, VT shape type 0x112a
	Size = 4, class name = tinyxml2::MemPool, unique name = .?AVMemPool@tinyxml2@@, UDT(0x00001229)

0x122a : Length = 10, Leaf = 0x1002 LF_POINTER
	Pointer (NEAR32), Size: 4
	Element type : 0x1084

0x122b : Length = 10, Leaf = 0x1002 LF_POINTER
	const Pointer (NEAR32), Size: 4
	Element type : 0x105F

0x122c : Length = 26, Leaf = 0x1009 LF_MFUNCTION
	Return type = 0x106F, Class type = 0x105F, This type = 0x122B, 
	Call type = ThisCall, Func attr = none
	Parms = 0, Arg list type = 0x1022, This adjust = 0

0x122d : Length = 10, Leaf = 0x1002 LF_POINTER
	Pointer (NEAR32), Size: 4
	Element type : 0x10B1

0x122e : Length = 10, Leaf = 0x1002 LF_POINTER
	const Pointer (NEAR32), Size: 4
	Element type : 0x1072

0x122f : Length = 26, Leaf = 0x1009 LF_MFUNCTION
	Return type = 0x122D, Class type = 0x105F, This type = 0x122E, 
	Call type = ThisCall, Func attr = none
	Parms = 0, Arg list type = 0x1022, This adjust = 0

0x1230 : Length = 18, Leaf = 0x1206 LF_METHODLIST
	list[0] = public, VANILLA, 0x122C, 
	list[1] = public, VANILLA, 0x122F, 

0x1231 : Length = 26, Leaf = 0x1009 LF_MFUNCTION
	Return type = 0x1168, Class type = 0x105F, This type = 0x122E, 
	Call type = ThisCall, Func attr = none
	Parms = 0, Arg list type = 0x1022, This adjust = 0

0x1232 : Length = 10, Leaf = 0x1002 LF_POINTER
	Pointer (NEAR32), Size: 4
	Element type : 0x10AC

0x1233 : Length = 26, Leaf = 0x1009 LF_MFUNCTION
	Return type = 0x1232, Class type = 0x105F, This type = 0x122B, 
	Call type = ThisCall, Func attr = none
	Parms = 0, Arg list type = 0x1022, This adjust = 0

0x1234 : Length = 26, Leaf = 0x1206 LF_METHODLIST
	list[0] = public, INTRODUCING VIRTUAL, 0x1231,  vfptr offset = 0
	list[1] = public, INTRODUCING VIRTUAL, 0x1233,  vfptr offset = 4

0x1235 : Length = 26, Leaf = 0x1009 LF_MFUNCTION
	Return type = 0x116A, Class type = 0x105F, This type = 0x122E, 
	Call type = ThisCall, Func attr = none
	Parms = 0, Arg list type = 0x1022, This adjust = 0

0x1236 : Length = 10, Leaf = 0x1002 LF_POINTER
	Pointer (NEAR32), Size: 4
	Element type : 0x10C4

0x1237 : Length = 26, Leaf = 0x1009 LF_MFUNCTION
	Return type = 0x1236, Class type = 0x105F, This type = 0x122B, 
	Call type = ThisCall, Func attr = none
	Parms = 0, Arg list type = 0x1022, This adjust = 0

0x1238 : Length = 26, Leaf = 0x1206 LF_METHODLIST
	list[0] = public, INTRODUCING VIRTUAL, 0x1235,  vfptr offset = 8
	list[1] = public, INTRODUCING VIRTUAL, 0x1237,  vfptr offset = 12

0x1239 : Length = 26, Leaf = 0x1009 LF_MFUNCTION
	Return type = 0x10DD, Class type = 0x105F, This type = 0x122E, 
	Call type = ThisCall, Func attr = none
	Parms = 0, Arg list type = 0x1022, This adjust = 0

0x123a : Length = 26, Leaf = 0x1009 LF_MFUNCTION
	Return type = 0x10E0, Class type = 0x105F, This type = 0x122B, 
	Call type = ThisCall, Func attr = none
	Parms = 0, Arg list type = 0x1022, This adjust = 0

0x123b : Length = 26, Leaf = 0x1206 LF_METHODLIST
	list[0] = public, INTRODUCING VIRTUAL, 0x1239,  vfptr offset = 16
	list[1] = public, INTRODUCING VIRTUAL, 0x123A,  vfptr offset = 20

0x123c : Length = 26, Leaf = 0x1206 LF_METHODLIST
	list[0] = public, INTRODUCING VIRTUAL, 0x122F,  vfptr offset = 24
	list[1] = public, INTRODUCING VIRTUAL, 0x122C,  vfptr offset = 28

0x123d : Length = 26, Leaf = 0x1009 LF_MFUNCTION
	Return type = 0x116D, Class type = 0x105F, This type = 0x122E, 
	Call type = ThisCall, Func attr = none
	Parms = 0, Arg list type = 0x1022, This adjust = 0

0x123e : Length = 10, Leaf = 0x1002 LF_POINTER
	Pointer (NEAR32), Size: 4
	Element type : 0x10BA

0x123f : Length = 26, Leaf = 0x1009 LF_MFUNCTION
	Return type = 0x123E, Class type = 0x105F, This type = 0x122B, 
	Call type = ThisCall, Func attr = none
	Parms = 0, Arg list type = 0x1022, This adjust = 0

0x1240 : Length = 26, Leaf = 0x1206 LF_METHODLIST
	list[0] = public, INTRODUCING VIRTUAL, 0x123D,  vfptr offset = 32
	list[1] = public, INTRODUCING VIRTUAL, 0x123F,  vfptr offset = 36

0x1241 : Length = 26, Leaf = 0x1009 LF_MFUNCTION
	Return type = 0x1062, Class type = 0x105F, This type = 0x122E, 
	Call type = ThisCall, Func attr = none
	Parms = 0, Arg list type = 0x1022, This adjust = 0

0x1242 : Length = 26, Leaf = 0x1009 LF_MFUNCTION
	Return type = 0x1065, Class type = 0x105F, This type = 0x122B, 
	Call type = ThisCall, Func attr = none
	Parms = 0, Arg list type = 0x1022, This adjust = 0

0x1243 : Length = 26, Leaf = 0x1206 LF_METHODLIST
	list[0] = public, INTRODUCING VIRTUAL, 0x1241,  vfptr offset = 40
	list[1] = public, INTRODUCING VIRTUAL, 0x1242,  vfptr offset = 44

0x1244 : Length = 26, Leaf = 0x1009 LF_MFUNCTION
	Return type = 0x101E, Class type = 0x105F, This type = 0x122E, 
	Call type = ThisCall, Func attr = none
	Parms = 0, Arg list type = 0x1022, This adjust = 0

0x1245 : Length = 26, Leaf = 0x1009 LF_MFUNCTION
	Return type = T_VOID(0003), Class type = 0x105F, This type = 0x122B, 
	Call type = ThisCall, Func attr = none
	Parms = 2, Arg list type = 0x1094, This adjust = 0

0x1246 : Length = 26, Leaf = 0x1009 LF_MFUNCTION
	Return type = T_INT4(0074), Class type = 0x105F, This type = 0x122E, 
	Call type = ThisCall, Func attr = none
	Parms = 0, Arg list type = 0x1022, This adjust = 0

0x1247 : Length = 26, Leaf = 0x1009 LF_MFUNCTION
	Return type = 0x106D, Class type = 0x105F, This type = 0x122B, 
	Call type = ThisCall, Func attr = none
	Parms = 0, Arg list type = 0x1022, This adjust = 0

0x1248 : Length = 26, Leaf = 0x1009 LF_MFUNCTION
	Return type = 0x1073, Class type = 0x105F, This type = 0x122E, 
	Call type = ThisCall, Func attr = none
	Parms = 0, Arg list type = 0x1022, This adjust = 0

0x1249 : Length = 18, Leaf = 0x1206 LF_METHODLIST
	list[0] = public, VANILLA, 0x1247, 
	list[1] = public, VANILLA, 0x1248, 

0x124a : Length = 26, Leaf = 0x1009 LF_MFUNCTION
	Return type = T_BOOL08(0030), Class type = 0x105F, This type = 0x122E, 
	Call type = ThisCall, Func attr = none
	Parms = 0, Arg list type = 0x1022, This adjust = 0

0x124b : Length = 26, Leaf = 0x1009 LF_MFUNCTION
	Return type = 0x1232, Class type = 0x105F, This type = 0x122B, 
	Call type = ThisCall, Func attr = none
	Parms = 1, Arg list type = 0x104a, This adjust = 0

0x124c : Length = 26, Leaf = 0x1009 LF_MFUNCTION
	Return type = 0x1168, Class type = 0x105F, This type = 0x122E, 
	Call type = ThisCall, Func attr = none
	Parms = 1, Arg list type = 0x104a, This adjust = 0

0x124d : Length = 18, Leaf = 0x1206 LF_METHODLIST
	list[0] = public, VANILLA, 0x124B, 
	list[1] = public, VANILLA, 0x124C, 

0x124e : Length = 10, Leaf = 0x1201 LF_ARGLIST argument count = 1
	list[0] = 0x106D

0x124f : Length = 26, Leaf = 0x1009 LF_MFUNCTION
	Return type = 0x106D, Class type = 0x105F, This type = 0x122B, 
	Call type = ThisCall, Func attr = none
	Parms = 1, Arg list type = 0x124e, This adjust = 0

0x1250 : Length = 14, Leaf = 0x1201 LF_ARGLIST argument count = 2
	list[0] = 0x106D
	list[1] = 0x106D

0x1251 : Length = 26, Leaf = 0x1009 LF_MFUNCTION
	Return type = 0x106D, Class type = 0x105F, This type = 0x122B, 
	Call type = ThisCall, Func attr = none
	Parms = 2, Arg list type = 0x1250, This adjust = 0

0x1252 : Length = 26, Leaf = 0x1009 LF_MFUNCTION
	Return type = T_VOID(0003), Class type = 0x105F, This type = 0x122B, 
	Call type = ThisCall, Func attr = none
	Parms = 0, Arg list type = 0x1022, This adjust = 0

0x1253 : Length = 26, Leaf = 0x1009 LF_MFUNCTION
	Return type = T_VOID(0003), Class type = 0x105F, This type = 0x122B, 
	Call type = ThisCall, Func attr = none
	Parms = 1, Arg list type = 0x124e, This adjust = 0

0x1254 : Length = 26, Leaf = 0x1009 LF_MFUNCTION
	Return type = 0x106D, Class type = 0x105F, This type = 0x122E, 
	Call type = ThisCall, Func attr = none
	Parms = 1, Arg list type = 0x1070, This adjust = 0

0x1255 : Length = 26, Leaf = 0x1009 LF_MFUNCTION
	Return type = T_BOOL08(0030), Class type = 0x105F, This type = 0x122E, 
	Call type = ThisCall, Func attr = none
	Parms = 1, Arg list type = 0x1074, This adjust = 0

0x1256 : Length = 26, Leaf = 0x1009 LF_MFUNCTION
	Return type = T_BOOL08(0030), Class type = 0x105F, This type = 0x122E, 
	Call type = ThisCall, Func attr = none
	Parms = 1, Arg list type = 0x106b, This adjust = 0

0x1257 : Length = 26, Leaf = 0x1009 LF_MFUNCTION
	Return type = T_VOID(0003), Class type = 0x105F, This type = 0x122B, 
	Call type = ThisCall, Func attr = none
	Parms = 1, Arg list type = 0x111d, This adjust = 0

0x1258 : Length = 26, Leaf = 0x1009 LF_MFUNCTION
	Return type = T_32PVOID(0403), Class type = 0x105F, This type = 0x122E, 
	Call type = ThisCall, Func attr = none
	Parms = 0, Arg list type = 0x1022, This adjust = 0

0x1259 : Length = 26, Leaf = 0x1009 LF_MFUNCTION
	Return type = T_VOID(0003), Class type = 0x105F, This type = 0x122B, 
	Call type = ThisCall, Func attr = instance constructor
	Parms = 1, Arg list type = 0x115e, This adjust = 0

0x125a : Length = 26, Leaf = 0x1009 LF_MFUNCTION
	Return type = T_VOID(0003), Class type = 0x105F, This type = 0x122B, 
	Call type = ThisCall, Func attr = instance constructor
	Parms = 1, Arg list type = 0x1070, This adjust = 0

0x125b : Length = 18, Leaf = 0x1206 LF_METHODLIST
	list[0] = private, VANILLA, 0x1259, 
	list[1] = protected, VANILLA, 0x125A, 

0x125c : Length = 26, Leaf = 0x1009 LF_MFUNCTION
	Return type = T_32PRCHAR(0470), Class type = 0x105F, This type = 0x122B, 
	Call type = ThisCall, Func attr = none
	Parms = 3, Arg list type = 0x107d, This adjust = 0

0x125d : Length = 26, Leaf = 0x1009 LF_MFUNCTION
	Return type = T_VOID(0003), Class type = 0x105F, This type = T_NOTYPE(0000), 
	Call type = C Near, Func attr = none
	Parms = 1, Arg list type = 0x124e, This adjust = 0

0x125e : Length = 26, Leaf = 0x1009 LF_MFUNCTION
	Return type = T_VOID(0003), Class type = 0x105F, This type = 0x122E, 
	Call type = ThisCall, Func attr = none
	Parms = 1, Arg list type = 0x124e, This adjust = 0

0x125f : Length = 10, Leaf = 0x1002 LF_POINTER
	L-value Reference (NEAR32), Size: 4
	Element type : 0x105F

0x1260 : Length = 26, Leaf = 0x1009 LF_MFUNCTION
	Return type = 0x125F, Class type = 0x105F, This type = 0x122B, 
	Call type = ThisCall, Func attr = none
	Parms = 1, Arg list type = 0x115e, This adjust = 0

0x1261 : Length = 26, Leaf = 0x1009 LF_MFUNCTION
	Return type = T_VOID(0003), Class type = 0x105F, This type = 0x122B, 
	Call type = ThisCall, Func attr = none
	Parms = 1, Arg list type = 0x1046, This adjust = 0

0x1262 : Length = 26, Leaf = 0x1009 LF_MFUNCTION
	Return type = T_32PVOID(0403), Class type = 0x105F, This type = 0x122B, 
	Call type = ThisCall, Func attr = none
	Parms = 1, Arg list type = 0x1046, This adjust = 0

0x1263 : Length = 1162, Leaf = 0x1203 LF_FIELDLIST
	list[0] = LF_VFUNCTAB, type = 0x122A
	list[1] = LF_METHOD, count = 2, list = 0x1230, name = 'GetDocument'
	list[2] = LF_METHOD, count = 2, list = 0x1234, name = 'ToElement'
	list[3] = LF_METHOD, count = 2, list = 0x1238, name = 'ToText'
	list[4] = LF_METHOD, count = 2, list = 0x123B, name = 'ToComment'
	list[5] = LF_METHOD, count = 2, list = 0x123C, name = 'ToDocument'
	list[6] = LF_METHOD, count = 2, list = 0x1240, name = 'ToDeclaration'
	list[7] = LF_METHOD, count = 2, list = 0x1243, name = 'ToUnknown'
	list[8] = LF_ONEMETHOD, public, VANILLA, index = 0x1244, name = 'Value'
	list[9] = LF_ONEMETHOD, public, VANILLA, index = 0x1245, name = 'SetValue'
	list[10] = LF_ONEMETHOD, public, VANILLA, index = 0x1246, name = 'GetLineNum'
	list[11] = LF_METHOD, count = 2, list = 0x1249, name = 'Parent'
	list[12] = LF_ONEMETHOD, public, VANILLA, index = 0x124A, name = 'NoChildren'
	list[13] = LF_METHOD, count = 2, list = 0x1249, name = 'FirstChild'
	list[14] = LF_METHOD, count = 2, list = 0x124D, name = 'FirstChildElement'
	list[15] = LF_METHOD, count = 2, list = 0x1249, name = 'LastChild'
	list[16] = LF_METHOD, count = 2, list = 0x124D, name = 'LastChildElement'
	list[17] = LF_METHOD, count = 2, list = 0x1249, name = 'PreviousSibling'
	list[18] = LF_METHOD, count = 2, list = 0x124D, name = 'PreviousSiblingElement'
	list[19] = LF_METHOD, count = 2, list = 0x1249, name = 'NextSibling'
	list[20] = LF_METHOD, count = 2, list = 0x124D, name = 'NextSiblingElement'
	list[21] = LF_ONEMETHOD, public, VANILLA, index = 0x124F, name = 'InsertEndChild'
	list[22] = LF_ONEMETHOD, public, VANILLA, index = 0x124F, name = 'LinkEndChild'
	list[23] = LF_ONEMETHOD, public, VANILLA, index = 0x124F, name = 'InsertFirstChild'
	list[24] = LF_ONEMETHOD, public, VANILLA, index = 0x1251, name = 'InsertAfterChild'
	list[25] = LF_ONEMETHOD, public, VANILLA, index = 0x1252, name = 'DeleteChildren'
	list[26] = LF_ONEMETHOD, public, VANILLA, index = 0x1253, name = 'DeleteChild'
	list[27] = LF_ONEMETHOD, public, PURE INTRO, index = 0x1254, 
		vfptr offset = 48, name = 'ShallowClone'
	list[28] = LF_ONEMETHOD, public, VANILLA, index = 0x1254, name = 'DeepClone'
	list[29] = LF_ONEMETHOD, public, PURE INTRO, index = 0x1255, 
		vfptr offset = 52, name = 'ShallowEqual'
	list[30] = LF_ONEMETHOD, public, PURE INTRO, index = 0x1256, 
		vfptr offset = 56, name = 'Accept'
	list[31] = LF_ONEMETHOD, public, VANILLA, index = 0x1257, name = 'SetUserData'
	list[32] = LF_ONEMETHOD, public, VANILLA, index = 0x1258, name = 'GetUserData'
	list[33] = LF_METHOD, count = 2, list = 0x125B, name = 'XMLNode'
	list[34] = LF_ONEMETHOD, protected, INTRODUCING VIRTUAL, index = 0x1252, 
		vfptr offset = 60, name = '~XMLNode'
	list[35] = LF_ONEMETHOD, protected, INTRODUCING VIRTUAL, index = 0x125C, 
		vfptr offset = 64, name = 'ParseDeep'
	list[36] = LF_MEMBER, protected, type = 0x106F, offset = 4
		member name = '_document'
	list[37] = LF_MEMBER, protected, type = 0x106D, offset = 8
		member name = '_parent'
	list[38] = LF_MEMBER, protected, type = 0x1058, offset = 12
		member name = '_value'
	list[39] = LF_MEMBER, protected, type = T_INT4(0074), offset = 24
		member name = '_parseLineNum'
	list[40] = LF_MEMBER, protected, type = 0x106D, offset = 28
		member name = '_firstChild'
	list[41] = LF_MEMBER, protected, type = 0x106D, offset = 32
		member name = '_lastChild'
	list[42] = LF_MEMBER, protected, type = 0x106D, offset = 36
		member name = '_prev'
	list[43] = LF_MEMBER, protected, type = 0x106D, offset = 40
		member name = '_next'
	list[44] = LF_MEMBER, protected, type = T_32PVOID(0403), offset = 44
		member name = '_userData'
	list[45] = LF_MEMBER, private, type = 0x105B, offset = 48
		member name = '_memPool'
	list[46] = LF_ONEMETHOD, private, VANILLA, index = 0x1253, name = 'Unlink'
	list[47] = LF_ONEMETHOD, private, STATIC, index = 0x125D, name = 'DeleteNode'
	list[48] = LF_ONEMETHOD, private, VANILLA, index = 0x125E, name = 'InsertChildPreamble'
	list[49] = LF_ONEMETHOD, private, VANILLA, index = 0x124C, name = 'ToElementWithName'
	list[50] = LF_ONEMETHOD, private, VANILLA, index = 0x1260, name = 'operator='
	list[51] = LF_ONEMETHOD, public, VANILLA, (compgenx), index = 0x1261, name = '__autoclassinit2'
	list[52] = LF_ONEMETHOD, protected, INTRODUCING VIRTUAL, (compgenx), index = 0x1262, 
		vfptr offset = 60, name = '__vecDelDtor'

0x1264 : Length = 62, Leaf = 0x1504 LF_CLASS
	# members = 70,  field list type 0x1263, CONSTRUCTOR, OVERLOAD, OVERLOADED ASSIGNMENT, 
	Derivation list type 0x0000, VT shape type 0x1084
	Size = 52, class name = tinyxml2::XMLNode, unique name = .?AVXMLNode@tinyxml2@@, UDT(0x00001264)

0x1265 : Length = 10, Leaf = 0x1002 LF_POINTER
	const Pointer (NEAR32), Size: 4
	Element type : 0x10D2

0x1266 : Length = 10, Leaf = 0x1001 LF_MODIFIER
	const, modifies type 0x10D2

0x1267 : Length = 10, Leaf = 0x1002 LF_POINTER
	L-value Reference (NEAR32), Size: 4
	Element type : 0x1266

0x1268 : Length = 10, Leaf = 0x1201 LF_ARGLIST argument count = 1
	list[0] = 0x1267

0x1269 : Length = 26, Leaf = 0x1009 LF_MFUNCTION
	Return type = T_VOID(0003), Class type = 0x10D2, This type = 0x1265, 
	Call type = ThisCall, Func attr = instance constructor
	Parms = 1, Arg list type = 0x1268, This adjust = 0

0x126a : Length = 26, Leaf = 0x1009 LF_MFUNCTION
	Return type = T_VOID(0003), Class type = 0x10D2, This type = 0x1265, 
	Call type = ThisCall, Func attr = instance constructor
	Parms = 0, Arg list type = 0x1022, This adjust = 0

0x126b : Length = 18, Leaf = 0x1206 LF_METHODLIST
	list[0] = private, VANILLA, 0x1269, 
	list[1] = public, VANILLA, 0x126A, 

0x126c : Length = 26, Leaf = 0x1009 LF_MFUNCTION
	Return type = T_VOID(0003), Class type = 0x10D2, This type = 0x1265, 
	Call type = ThisCall, Func attr = none
	Parms = 0, Arg list type = 0x1022, This adjust = 0

0x126d : Length = 26, Leaf = 0x1009 LF_MFUNCTION
	Return type = T_VOID(0003), Class type = 0x10D2, This type = 0x1265, 
	Call type = ThisCall, Func attr = none
	Parms = 1, Arg list type = 0x104a, This adjust = 0

0x126e : Length = 10, Leaf = 0x1002 LF_POINTER
	Pointer (NEAR32), Size: 4
	Element type : 0x101E

0x126f : Length = 26, Leaf = 0x1009 LF_MFUNCTION
	Return type = 0x126E, Class type = 0x10D2, This type = 0x1265, 
	Call type = ThisCall, Func attr = none
	Parms = 1, Arg list type = 0x1048, This adjust = 0

0x1270 : Length = 26, Leaf = 0x1009 LF_MFUNCTION
	Return type = 0x101E, Class type = 0x10D2, This type = 0x1265, 
	Call type = ThisCall, Func attr = none
	Parms = 0, Arg list type = 0x1022, This adjust = 0

0x1271 : Length = 26, Leaf = 0x1009 LF_MFUNCTION
	Return type = T_VOID(0003), Class type = 0x10D2, This type = 0x1265, 
	Call type = ThisCall, Func attr = none
	Parms = 1, Arg list type = 0x1048, This adjust = 0

0x1272 : Length = 10, Leaf = 0x1002 LF_POINTER
	const Pointer (NEAR32), Size: 4
	Element type : 0x1266

0x1273 : Length = 26, Leaf = 0x1009 LF_MFUNCTION
	Return type = T_BOOL08(0030), Class type = 0x10D2, This type = 0x1272, 
	Call type = ThisCall, Func attr = none
	Parms = 0, Arg list type = 0x1022, This adjust = 0

0x1274 : Length = 10, Leaf = 0x1002 LF_POINTER
	const Pointer (NEAR32), Size: 4
	Element type : 0x101D

0x1275 : Length = 10, Leaf = 0x1002 LF_POINTER
	L-value Reference (NEAR32), Size: 4
	Element type : 0x1274

0x1276 : Length = 26, Leaf = 0x1009 LF_MFUNCTION
	Return type = 0x1275, Class type = 0x10D2, This type = 0x1272, 
	Call type = ThisCall, Func attr = none
	Parms = 1, Arg list type = 0x1048, This adjust = 0

0x1277 : Length = 10, Leaf = 0x1002 LF_POINTER
	L-value Reference (NEAR32), Size: 4
	Element type : 0x101E

0x1278 : Length = 26, Leaf = 0x1009 LF_MFUNCTION
	Return type = 0x1277, Class type = 0x10D2, This type = 0x1265, 
	Call type = ThisCall, Func attr = none
	Parms = 1, Arg list type = 0x1048, This adjust = 0

0x1279 : Length = 18, Leaf = 0x1206 LF_METHODLIST
	list[0] = public, VANILLA, 0x1276, 
	list[1] = public, VANILLA, 0x1278, 

0x127a : Length = 26, Leaf = 0x1009 LF_MFUNCTION
	Return type = 0x1275, Class type = 0x10D2, This type = 0x1272, 
	Call type = ThisCall, Func attr = none
	Parms = 0, Arg list type = 0x1022, This adjust = 0

0x127b : Length = 26, Leaf = 0x1009 LF_MFUNCTION
	Return type = T_INT4(0074), Class type = 0x10D2, This type = 0x1272, 
	Call type = ThisCall, Func attr = none
	Parms = 0, Arg list type = 0x1022, This adjust = 0

0x127c : Length = 26, Leaf = 0x1009 LF_MFUNCTION
	Return type = 0x126E, Class type = 0x10D2, This type = 0x1265, 
	Call type = ThisCall, Func attr = none
	Parms = 0, Arg list type = 0x1022, This adjust = 0

0x127d : Length = 10, Leaf = 0x1002 LF_POINTER
	Pointer (NEAR32), Size: 4
	Element type : 0x1274

0x127e : Length = 26, Leaf = 0x1009 LF_MFUNCTION
	Return type = 0x127D, Class type = 0x10D2, This type = 0x1272, 
	Call type = ThisCall, Func attr = none
	Parms = 0, Arg list type = 0x1022, This adjust = 0

0x127f : Length = 18, Leaf = 0x1206 LF_METHODLIST
	list[0] = public, VANILLA, 0x127C, 
	list[1] = public, VANILLA, 0x127E, 

0x1280 : Length = 26, Leaf = 0x1009 LF_MFUNCTION
	Return type = T_VOID(0003), Class type = 0x10D2, This type = 0x1265, 
	Call type = ThisCall, Func attr = none
	Parms = 1, Arg list type = 0x1268, This adjust = 0

0x1281 : Length = 14, Leaf = 0x1503 LF_ARRAY
	Element type = 0x101E
	Index type = T_ULONG(0022)
	length = 40
	Name = 

0x1282 : Length = 26, Leaf = 0x1009 LF_MFUNCTION
	Return type = T_VOID(0003), Class type = 0x10D2, This type = 0x1265, 
	Call type = ThisCall, Func attr = none
	Parms = 1, Arg list type = 0x1046, This adjust = 0

0x1283 : Length = 26, Leaf = 0x1009 LF_MFUNCTION
	Return type = T_32PVOID(0403), Class type = 0x10D2, This type = 0x1265, 
	Call type = ThisCall, Func attr = none
	Parms = 1, Arg list type = 0x1046, This adjust = 0

0x1284 : Length = 438, Leaf = 0x1203 LF_FIELDLIST
	list[0] = LF_METHOD, count = 2, list = 0x126B, name = 'DynArray<char const *,10>'
	list[1] = LF_ONEMETHOD, public, VANILLA, index = 0x126C, name = '~DynArray<char const *,10>'
	list[2] = LF_ONEMETHOD, public, VANILLA, index = 0x126C, name = 'Clear'
	list[3] = LF_ONEMETHOD, public, VANILLA, index = 0x126D, name = 'Push'
	list[4] = LF_ONEMETHOD, public, VANILLA, index = 0x126F, name = 'PushArr'
	list[5] = LF_ONEMETHOD, public, VANILLA, index = 0x1270, name = 'Pop'
	list[6] = LF_ONEMETHOD, public, VANILLA, index = 0x1271, name = 'PopArr'
	list[7] = LF_ONEMETHOD, public, VANILLA, index = 0x1273, name = 'Empty'
	list[8] = LF_METHOD, count = 2, list = 0x1279, name = 'operator[]'
	list[9] = LF_ONEMETHOD, public, VANILLA, index = 0x127A, name = 'PeekTop'
	list[10] = LF_ONEMETHOD, public, VANILLA, index = 0x127B, name = 'Size'
	list[11] = LF_ONEMETHOD, public, VANILLA, index = 0x127B, name = 'Capacity'
	list[12] = LF_ONEMETHOD, public, VANILLA, index = 0x1271, name = 'SwapRemove'
	list[13] = LF_METHOD, count = 2, list = 0x127F, name = 'Mem'
	list[14] = LF_ONEMETHOD, private, VANILLA, index = 0x1280, name = 'operator='
	list[15] = LF_ONEMETHOD, private, VANILLA, index = 0x1271, name = 'EnsureCapacity'
	list[16] = LF_MEMBER, private, type = 0x126E, offset = 0
		member name = '_mem'
	list[17] = LF_MEMBER, private, type = 0x1281, offset = 4
		member name = '_pool'
	list[18] = LF_MEMBER, private, type = T_INT4(0074), offset = 44
		member name = '_allocated'
	list[19] = LF_MEMBER, private, type = T_INT4(0074), offset = 48
		member name = '_size'
	list[20] = LF_ONEMETHOD, public, VANILLA, (compgenx), index = 0x1282, name = '__autoclassinit2'
	list[21] = LF_ONEMETHOD, public, VANILLA, (compgenx), index = 0x1283, name = '__vecDelDtor'

0x1285 : Length = 90, Leaf = 0x1504 LF_CLASS
	# members = 25,  field list type 0x1284, CONSTRUCTOR, OVERLOAD, OVERLOADED ASSIGNMENT, 
	Derivation list type 0x0000, VT shape type 0x0000
	Size = 52, class name = tinyxml2::DynArray<char const *,10>, unique name = .?AV?$DynArray@PBD$09@tinyxml2@@, UDT(0x00001285)

0x1286 : Length = 10, Leaf = 0x1002 LF_POINTER
	const Pointer (NEAR32), Size: 4
	Element type : 0x10BB

0x1287 : Length = 26, Leaf = 0x1009 LF_MFUNCTION
	Return type = 0x116D, Class type = 0x10BA, This type = 0x1286, 
	Call type = ThisCall, Func attr = none
	Parms = 0, Arg list type = 0x1022, This adjust = 0

0x1288 : Length = 10, Leaf = 0x1002 LF_POINTER
	const Pointer (NEAR32), Size: 4
	Element type : 0x10BA

0x1289 : Length = 26, Leaf = 0x1009 LF_MFUNCTION
	Return type = 0x123E, Class type = 0x10BA, This type = 0x1288, 
	Call type = ThisCall, Func attr = none
	Parms = 0, Arg list type = 0x1022, This adjust = 0

0x128a : Length = 18, Leaf = 0x1206 LF_METHODLIST
	list[0] = public, VIRTUAL, 0x1287, 
	list[1] = public, VIRTUAL, 0x1289, 

0x128b : Length = 26, Leaf = 0x1009 LF_MFUNCTION
	Return type = T_BOOL08(0030), Class type = 0x10BA, This type = 0x1286, 
	Call type = ThisCall, Func attr = none
	Parms = 1, Arg list type = 0x106b, This adjust = 0

0x128c : Length = 26, Leaf = 0x1009 LF_MFUNCTION
	Return type = 0x106D, Class type = 0x10BA, This type = 0x1286, 
	Call type = ThisCall, Func attr = none
	Parms = 1, Arg list type = 0x1070, This adjust = 0

0x128d : Length = 26, Leaf = 0x1009 LF_MFUNCTION
	Return type = T_BOOL08(0030), Class type = 0x10BA, This type = 0x1286, 
	Call type = ThisCall, Func attr = none
	Parms = 1, Arg list type = 0x1074, This adjust = 0

0x128e : Length = 26, Leaf = 0x1009 LF_MFUNCTION
	Return type = T_VOID(0003), Class type = 0x10BA, This type = 0x1288, 
	Call type = ThisCall, Func attr = instance constructor
	Parms = 1, Arg list type = 0x10bd, This adjust = 0

0x128f : Length = 26, Leaf = 0x1009 LF_MFUNCTION
	Return type = T_VOID(0003), Class type = 0x10BA, This type = 0x1288, 
	Call type = ThisCall, Func attr = instance constructor
	Parms = 1, Arg list type = 0x1070, This adjust = 0

0x1290 : Length = 18, Leaf = 0x1206 LF_METHODLIST
	list[0] = private, VANILLA, 0x128E, 
	list[1] = protected, VANILLA, 0x128F, 

0x1291 : Length = 26, Leaf = 0x1009 LF_MFUNCTION
	Return type = T_VOID(0003), Class type = 0x10BA, This type = 0x1288, 
	Call type = ThisCall, Func attr = none
	Parms = 0, Arg list type = 0x1022, This adjust = 0

0x1292 : Length = 26, Leaf = 0x1009 LF_MFUNCTION
	Return type = T_32PRCHAR(0470), Class type = 0x10BA, This type = 0x1288, 
	Call type = ThisCall, Func attr = none
	Parms = 3, Arg list type = 0x107d, This adjust = 0

0x1293 : Length = 10, Leaf = 0x1002 LF_POINTER
	L-value Reference (NEAR32), Size: 4
	Element type : 0x10BA

0x1294 : Length = 26, Leaf = 0x1009 LF_MFUNCTION
	Return type = 0x1293, Class type = 0x10BA, This type = 0x1288, 
	Call type = ThisCall, Func attr = none
	Parms = 1, Arg list type = 0x10bd, This adjust = 0

0x1295 : Length = 26, Leaf = 0x1009 LF_MFUNCTION
	Return type = T_VOID(0003), Class type = 0x10BA, This type = 0x1288, 
	Call type = ThisCall, Func attr = none
	Parms = 1, Arg list type = 0x1046, This adjust = 0

0x1296 : Length = 26, Leaf = 0x1009 LF_MFUNCTION
	Return type = T_32PVOID(0403), Class type = 0x10BA, This type = 0x1288, 
	Call type = ThisCall, Func attr = none
	Parms = 1, Arg list type = 0x1046, This adjust = 0

0x1297 : Length = 246, Leaf = 0x1203 LF_FIELDLIST
	list[0] = LF_BCLASS, public, type = 0x105F, offset = 0
	list[1] = LF_METHOD, count = 2, list = 0x128A, name = 'ToDeclaration'
	list[2] = LF_ONEMETHOD, public, VIRTUAL, index = 0x128B, name = 'Accept'
	list[3] = LF_ONEMETHOD, public, VIRTUAL, index = 0x128C, name = 'ShallowClone'
	list[4] = LF_ONEMETHOD, public, VIRTUAL, index = 0x128D, name = 'ShallowEqual'
	list[5] = LF_METHOD, count = 2, list = 0x1290, name = 'XMLDeclaration'
	list[6] = LF_ONEMETHOD, protected, VIRTUAL, index = 0x1291, name = '~XMLDeclaration'
	list[7] = LF_ONEMETHOD, protected, VIRTUAL, index = 0x1292, name = 'ParseDeep'
	list[8] = LF_ONEMETHOD, private, VANILLA, index = 0x1294, name = 'operator='
	list[9] = LF_ONEMETHOD, public, VANILLA, (compgenx), index = 0x1295, name = '__autoclassinit2'
	list[10] = LF_ONEMETHOD, protected, INTRODUCING VIRTUAL, (compgenx), index = 0x1296, 
		vfptr offset = 60, name = '__vecDelDtor'

0x1298 : Length = 78, Leaf = 0x1504 LF_CLASS
	# members = 13,  field list type 0x1297, CONSTRUCTOR, OVERLOAD, OVERLOADED ASSIGNMENT, 
	Derivation list type 0x0000, VT shape type 0x1084
	Size = 52, class name = tinyxml2::XMLDeclaration, unique name = .?AVXMLDeclaration@tinyxml2@@, UDT(0x00001298)

0x1299 : Length = 10, Leaf = 0x1002 LF_POINTER
	const Pointer (NEAR32), Size: 4
	Element type : 0x10C5

0x129a : Length = 26, Leaf = 0x1009 LF_MFUNCTION
	Return type = T_BOOL08(0030), Class type = 0x10C4, This type = 0x1299, 
	Call type = ThisCall, Func attr = none
	Parms = 1, Arg list type = 0x106b, This adjust = 0

0x129b : Length = 26, Leaf = 0x1009 LF_MFUNCTION
	Return type = 0x116A, Class type = 0x10C4, This type = 0x1299, 
	Call type = ThisCall, Func attr = none
	Parms = 0, Arg list type = 0x1022, This adjust = 0

0x129c : Length = 10, Leaf = 0x1002 LF_POINTER
	const Pointer (NEAR32), Size: 4
	Element type : 0x10C4

0x129d : Length = 26, Leaf = 0x1009 LF_MFUNCTION
	Return type = 0x1236, Class type = 0x10C4, This type = 0x129C, 
	Call type = ThisCall, Func attr = none
	Parms = 0, Arg list type = 0x1022, This adjust = 0

0x129e : Length = 18, Leaf = 0x1206 LF_METHODLIST
	list[0] = public, VIRTUAL, 0x129B, 
	list[1] = public, VIRTUAL, 0x129D, 

0x129f : Length = 26, Leaf = 0x1009 LF_MFUNCTION
	Return type = T_VOID(0003), Class type = 0x10C4, This type = 0x129C, 
	Call type = ThisCall, Func attr = none
	Parms = 1, Arg list type = 0x1040, This adjust = 0

0x12a0 : Length = 26, Leaf = 0x1009 LF_MFUNCTION
	Return type = T_BOOL08(0030), Class type = 0x10C4, This type = 0x1299, 
	Call type = ThisCall, Func attr = none
	Parms = 0, Arg list type = 0x1022, This adjust = 0

0x12a1 : Length = 26, Leaf = 0x1009 LF_MFUNCTION
	Return type = 0x106D, Class type = 0x10C4, This type = 0x1299, 
	Call type = ThisCall, Func attr = none
	Parms = 1, Arg list type = 0x1070, This adjust = 0

0x12a2 : Length = 26, Leaf = 0x1009 LF_MFUNCTION
	Return type = T_BOOL08(0030), Class type = 0x10C4, This type = 0x1299, 
	Call type = ThisCall, Func attr = none
	Parms = 1, Arg list type = 0x1074, This adjust = 0

0x12a3 : Length = 26, Leaf = 0x1009 LF_MFUNCTION
	Return type = T_VOID(0003), Class type = 0x10C4, This type = 0x129C, 
	Call type = ThisCall, Func attr = instance constructor
	Parms = 1, Arg list type = 0x10c7, This adjust = 0

0x12a4 : Length = 26, Leaf = 0x1009 LF_MFUNCTION
	Return type = T_VOID(0003), Class type = 0x10C4, This type = 0x129C, 
	Call type = ThisCall, Func attr = instance constructor
	Parms = 1, Arg list type = 0x1070, This adjust = 0

0x12a5 : Length = 18, Leaf = 0x1206 LF_METHODLIST
	list[0] = private, VANILLA, 0x12A3, 
	list[1] = protected, VANILLA, 0x12A4, 

0x12a6 : Length = 26, Leaf = 0x1009 LF_MFUNCTION
	Return type = T_VOID(0003), Class type = 0x10C4, This type = 0x129C, 
	Call type = ThisCall, Func attr = none
	Parms = 0, Arg list type = 0x1022, This adjust = 0

0x12a7 : Length = 26, Leaf = 0x1009 LF_MFUNCTION
	Return type = T_32PRCHAR(0470), Class type = 0x10C4, This type = 0x129C, 
	Call type = ThisCall, Func attr = none
	Parms = 3, Arg list type = 0x107d, This adjust = 0

0x12a8 : Length = 10, Leaf = 0x1002 LF_POINTER
	L-value Reference (NEAR32), Size: 4
	Element type : 0x10C4

0x12a9 : Length = 26, Leaf = 0x1009 LF_MFUNCTION
	Return type = 0x12A8, Class type = 0x10C4, This type = 0x129C, 
	Call type = ThisCall, Func attr = none
	Parms = 1, Arg list type = 0x10c7, This adjust = 0

0x12aa : Length = 26, Leaf = 0x1009 LF_MFUNCTION
	Return type = T_VOID(0003), Class type = 0x10C4, This type = 0x129C, 
	Call type = ThisCall, Func attr = none
	Parms = 1, Arg list type = 0x1046, This adjust = 0

0x12ab : Length = 26, Leaf = 0x1009 LF_MFUNCTION
	Return type = T_32PVOID(0403), Class type = 0x10C4, This type = 0x129C, 
	Call type = ThisCall, Func attr = none
	Parms = 1, Arg list type = 0x1046, This adjust = 0

0x12ac : Length = 282, Leaf = 0x1203 LF_FIELDLIST
	list[0] = LF_BCLASS, public, type = 0x105F, offset = 0
	list[1] = LF_ONEMETHOD, public, VIRTUAL, index = 0x129A, name = 'Accept'
	list[2] = LF_METHOD, count = 2, list = 0x129E, name = 'ToText'
	list[3] = LF_ONEMETHOD, public, VANILLA, index = 0x129F, name = 'SetCData'
	list[4] = LF_ONEMETHOD, public, VANILLA, index = 0x12A0, name = 'CData'
	list[5] = LF_ONEMETHOD, public, VIRTUAL, index = 0x12A1, name = 'ShallowClone'
	list[6] = LF_ONEMETHOD, public, VIRTUAL, index = 0x12A2, name = 'ShallowEqual'
	list[7] = LF_METHOD, count = 2, list = 0x12A5, name = 'XMLText'
	list[8] = LF_ONEMETHOD, protected, VIRTUAL, index = 0x12A6, name = '~XMLText'
	list[9] = LF_ONEMETHOD, protected, VIRTUAL, index = 0x12A7, name = 'ParseDeep'
	list[10] = LF_MEMBER, private, type = T_BOOL08(0030), offset = 52
		member name = '_isCData'
	list[11] = LF_ONEMETHOD, private, VANILLA, index = 0x12A9, name = 'operator='
	list[12] = LF_ONEMETHOD, public, VANILLA, (compgenx), index = 0x12AA, name = '__autoclassinit2'
	list[13] = LF_ONEMETHOD, protected, INTRODUCING VIRTUAL, (compgenx), index = 0x12AB, 
		vfptr offset = 60, name = '__vecDelDtor'

0x12ad : Length = 62, Leaf = 0x1504 LF_CLASS
	# members = 16,  field list type 0x12ac, CONSTRUCTOR, OVERLOAD, OVERLOADED ASSIGNMENT, 
	Derivation list type 0x0000, VT shape type 0x1084
	Size = 56, class name = tinyxml2::XMLText, unique name = .?AVXMLText@tinyxml2@@, UDT(0x000012ad)

0x12ae : Length = 78, Leaf = 0x1504 LF_CLASS
	# members = 0,  field list type 0x0000, FORWARD REF, 
	Derivation list type 0x0000, VT shape type 0x0000
	Size = 0, class name = tinyxml2::MemPoolT<60>, unique name = .?AV?$MemPoolT@$0DM@@tinyxml2@@, UDT(0x000012c4)

0x12af : Length = 10, Leaf = 0x1002 LF_POINTER
	const Pointer (NEAR32), Size: 4
	Element type : 0x12AE

0x12b0 : Length = 10, Leaf = 0x1001 LF_MODIFIER
	const, modifies type 0x12AE

0x12b1 : Length = 10, Leaf = 0x1002 LF_POINTER
	L-value Reference (NEAR32), Size: 4
	Element type : 0x12B0

0x12b2 : Length = 10, Leaf = 0x1201 LF_ARGLIST argument count = 1
	list[0] = 0x12B1

0x12b3 : Length = 26, Leaf = 0x1009 LF_MFUNCTION
	Return type = T_VOID(0003), Class type = 0x12AE, This type = 0x12AF, 
	Call type = ThisCall, Func attr = instance constructor
	Parms = 1, Arg list type = 0x12b2, This adjust = 0

0x12b4 : Length = 26, Leaf = 0x1009 LF_MFUNCTION
	Return type = T_VOID(0003), Class type = 0x12AE, This type = 0x12AF, 
	Call type = ThisCall, Func attr = instance constructor
	Parms = 0, Arg list type = 0x1022, This adjust = 0

0x12b5 : Length = 18, Leaf = 0x1206 LF_METHODLIST
	list[0] = private, VANILLA, 0x12B3, 
	list[1] = public, VANILLA, 0x12B4, 

0x12b6 : Length = 26, Leaf = 0x1009 LF_MFUNCTION
	Return type = T_VOID(0003), Class type = 0x12AE, This type = 0x12AF, 
	Call type = ThisCall, Func attr = none
	Parms = 0, Arg list type = 0x1022, This adjust = 0

0x12b7 : Length = 10, Leaf = 0x1002 LF_POINTER
	const Pointer (NEAR32), Size: 4
	Element type : 0x12B0

0x12b8 : Length = 26, Leaf = 0x1009 LF_MFUNCTION
	Return type = T_INT4(0074), Class type = 0x12AE, This type = 0x12B7, 
	Call type = ThisCall, Func attr = none
	Parms = 0, Arg list type = 0x1022, This adjust = 0

0x12b9 : Length = 26, Leaf = 0x1009 LF_MFUNCTION
	Return type = T_32PVOID(0403), Class type = 0x12AE, This type = 0x12AF, 
	Call type = ThisCall, Func attr = none
	Parms = 0, Arg list type = 0x1022, This adjust = 0

0x12ba : Length = 26, Leaf = 0x1009 LF_MFUNCTION
	Return type = T_VOID(0003), Class type = 0x12AE, This type = 0x12AF, 
	Call type = ThisCall, Func attr = none
	Parms = 1, Arg list type = 0x111d, This adjust = 0

0x12bb : Length = 26, Leaf = 0x1009 LF_MFUNCTION
	Return type = T_VOID(0003), Class type = 0x12AE, This type = 0x12AF, 
	Call type = ThisCall, Func attr = none
	Parms = 1, Arg list type = 0x104a, This adjust = 0

0x12bc : Length = 26, Leaf = 0x1203 LF_FIELDLIST
	list[0] = LF_ENUMERATE, public, value = 68, name = 'ITEMS_PER_BLOCK'

0x12bd : Length = 134, Leaf = 0x1507 LF_ENUM
	# members = 1,  type = T_INT4(0074) field list type 0x12bc
NESTED, 	enum name = tinyxml2::MemPoolT<60>::<unnamed-enum-ITEMS_PER_BLOCK>, UDT(0x000012bd)

0x12be : Length = 26, Leaf = 0x1009 LF_MFUNCTION
	Return type = T_VOID(0003), Class type = 0x12AE, This type = 0x12AF, 
	Call type = ThisCall, Func attr = none
	Parms = 1, Arg list type = 0x12b2, This adjust = 0

0x12bf : Length = 78, Leaf = 0x1506 LF_UNION
	# members = 0,  field list type 0x0000, NESTED, FORWARD REF, Size = 0	,class name = tinyxml2::MemPoolT<60>::Item, unique name = .?ATItem@?$MemPoolT@$0DM@@tinyxml2@@, UDT(0x000012ca)

0x12c0 : Length = 10, Leaf = 0x1002 LF_POINTER
	Pointer (NEAR32), Size: 4
	Element type : 0x12BF

0x12c1 : Length = 26, Leaf = 0x1009 LF_MFUNCTION
	Return type = T_VOID(0003), Class type = 0x12AE, This type = 0x12AF, 
	Call type = ThisCall, Func attr = none
	Parms = 1, Arg list type = 0x1046, This adjust = 0

0x12c2 : Length = 26, Leaf = 0x1009 LF_MFUNCTION
	Return type = T_32PVOID(0403), Class type = 0x12AE, This type = 0x12AF, 
	Call type = ThisCall, Func attr = none
	Parms = 1, Arg list type = 0x1046, This adjust = 0

0x12c3 : Length = 534, Leaf = 0x1203 LF_FIELDLIST
	list[0] = LF_BCLASS, public, type = 0x105A, offset = 0
	list[1] = LF_METHOD, count = 2, list = 0x12B5, name = 'MemPoolT<60>'
	list[2] = LF_ONEMETHOD, public, VIRTUAL, index = 0x12B6, name = '~MemPoolT<60>'
	list[3] = LF_ONEMETHOD, public, VANILLA, index = 0x12B6, name = 'Clear'
	list[4] = LF_ONEMETHOD, public, VIRTUAL, index = 0x12B8, name = 'ItemSize'
	list[5] = LF_ONEMETHOD, public, VANILLA, index = 0x12B8, name = 'CurrentAllocs'
	list[6] = LF_ONEMETHOD, public, VIRTUAL, index = 0x12B9, name = 'Alloc'
	list[7] = LF_ONEMETHOD, public, VIRTUAL, index = 0x12BA, name = 'Free'
	list[8] = LF_ONEMETHOD, public, VANILLA, index = 0x12BB, name = 'Trace'
	list[9] = LF_ONEMETHOD, public, VIRTUAL, index = 0x12B6, name = 'SetTracked'
	list[10] = LF_ONEMETHOD, public, VANILLA, index = 0x12B8, name = 'Untracked'
	list[11] = LF_NESTTYPE, type = 0x12BD, <unnamed-enum-ITEMS_PER_BLOCK>
	list[12] = LF_ONEMETHOD, private, VANILLA, index = 0x12BE, name = 'operator='
	list[13] = LF_NESTTYPE, type = 0x12BF, Item
	list[14] = LF_NESTTYPE, type = 0x113B, Block
	list[15] = LF_MEMBER, private, type = 0x1132, offset = 4
		member name = '_blockPtrs'
	list[16] = LF_MEMBER, private, type = 0x12C0, offset = 56
		member name = '_root'
	list[17] = LF_MEMBER, private, type = T_INT4(0074), offset = 60
		member name = '_currentAllocs'
	list[18] = LF_MEMBER, private, type = T_INT4(0074), offset = 64
		member name = '_nAllocs'
	list[19] = LF_MEMBER, private, type = T_INT4(0074), offset = 68
		member name = '_maxAllocs'
	list[20] = LF_MEMBER, private, type = T_INT4(0074), offset = 72
		member name = '_nUntracked'
	list[21] = LF_ONEMETHOD, public, VANILLA, (compgenx), index = 0x12C1, name = '__autoclassinit2'
	list[22] = LF_ONEMETHOD, public, VANILLA, (compgenx), index = 0x12B6, name = '__local_vftable_ctor_closure'
	list[23] = LF_ONEMETHOD, public, INTRODUCING VIRTUAL, (compgenx), index = 0x12C2, 
		vfptr offset = 0, name = '__vecDelDtor'

0x12c4 : Length = 78, Leaf = 0x1504 LF_CLASS
	# members = 25,  field list type 0x12c3, CONSTRUCTOR, OVERLOAD, CONTAINS NESTED, OVERLOADED ASSIGNMENT, 
	Derivation list type 0x0000, VT shape type 0x112a
	Size = 76, class name = tinyxml2::MemPoolT<60>, unique name = .?AV?$MemPoolT@$0DM@@tinyxml2@@, UDT(0x000012c4)

0x12c5 : Length = 14, Leaf = 0x1503 LF_ARRAY
	Element type = 0x12BF
	Index type = T_ULONG(0022)
	length = 4080
	Name = 

0x12c6 : Length = 18, Leaf = 0x1203 LF_FIELDLIST
	list[0] = LF_MEMBER, public, type = 0x12C5, offset = 0
		member name = 'items'

0x12c7 : Length = 90, Leaf = 0x1505 LF_STRUCTURE
	# members = 1,  field list type 0x12c6, NESTED, 
	Derivation list type 0x0000, VT shape type 0x0000
	Size = 4080, class name = tinyxml2::MemPoolT<60>::Block, unique name = .?AUBlock@?$MemPoolT@$0DM@@tinyxml2@@, UDT(0x000012c7)

0x12c8 : Length = 14, Leaf = 0x1503 LF_ARRAY
	Element type = T_RCHAR(0070)
	Index type = T_ULONG(0022)
	length = 60
	Name = 

0x12c9 : Length = 38, Leaf = 0x1203 LF_FIELDLIST
	list[0] = LF_MEMBER, public, type = 0x12C0, offset = 0
		member name = 'next'
	list[1] = LF_MEMBER, public, type = 0x12C8, offset = 0
		member name = 'itemData'

0x12ca : Length = 78, Leaf = 0x1506 LF_UNION
	# members = 2,  field list type 0x12c9, NESTED, SEALED, Size = 60	,class name = tinyxml2::MemPoolT<60>::Item, unique name = .?ATItem@?$MemPoolT@$0DM@@tinyxml2@@, UDT(0x000012ca)

0x12cb : Length = 78, Leaf = 0x1504 LF_CLASS
	# members = 0,  field list type 0x0000, FORWARD REF, 
	Derivation list type 0x0000, VT shape type 0x0000
	Size = 0, class name = tinyxml2::MemPoolT<52>, unique name = .?AV?$MemPoolT@$0DE@@tinyxml2@@, UDT(0x000012e1)

0x12cc : Length = 10, Leaf = 0x1002 LF_POINTER
	const Pointer (NEAR32), Size: 4
	Element type : 0x12CB

0x12cd : Length = 10, Leaf = 0x1001 LF_MODIFIER
	const, modifies type 0x12CB

0x12ce : Length = 10, Leaf = 0x1002 LF_POINTER
	L-value Reference (NEAR32), Size: 4
	Element type : 0x12CD

0x12cf : Length = 10, Leaf = 0x1201 LF_ARGLIST argument count = 1
	list[0] = 0x12CE

0x12d0 : Length = 26, Leaf = 0x1009 LF_MFUNCTION
	Return type = T_VOID(0003), Class type = 0x12CB, This type = 0x12CC, 
	Call type = ThisCall, Func attr = instance constructor
	Parms = 1, Arg list type = 0x12cf, This adjust = 0

0x12d1 : Length = 26, Leaf = 0x1009 LF_MFUNCTION
	Return type = T_VOID(0003), Class type = 0x12CB, This type = 0x12CC, 
	Call type = ThisCall, Func attr = instance constructor
	Parms = 0, Arg list type = 0x1022, This adjust = 0

0x12d2 : Length = 18, Leaf = 0x1206 LF_METHODLIST
	list[0] = private, VANILLA, 0x12D0, 
	list[1] = public, VANILLA, 0x12D1, 

0x12d3 : Length = 26, Leaf = 0x1009 LF_MFUNCTION
	Return type = T_VOID(0003), Class type = 0x12CB, This type = 0x12CC, 
	Call type = ThisCall, Func attr = none
	Parms = 0, Arg list type = 0x1022, This adjust = 0

0x12d4 : Length = 10, Leaf = 0x1002 LF_POINTER
	const Pointer (NEAR32), Size: 4
	Element type : 0x12CD

0x12d5 : Length = 26, Leaf = 0x1009 LF_MFUNCTION
	Return type = T_INT4(0074), Class type = 0x12CB, This type = 0x12D4, 
	Call type = ThisCall, Func attr = none
	Parms = 0, Arg list type = 0x1022, This adjust = 0

0x12d6 : Length = 26, Leaf = 0x1009 LF_MFUNCTION
	Return type = T_32PVOID(0403), Class type = 0x12CB, This type = 0x12CC, 
	Call type = ThisCall, Func attr = none
	Parms = 0, Arg list type = 0x1022, This adjust = 0

0x12d7 : Length = 26, Leaf = 0x1009 LF_MFUNCTION
	Return type = T_VOID(0003), Class type = 0x12CB, This type = 0x12CC, 
	Call type = ThisCall, Func attr = none
	Parms = 1, Arg list type = 0x111d, This adjust = 0

0x12d8 : Length = 26, Leaf = 0x1009 LF_MFUNCTION
	Return type = T_VOID(0003), Class type = 0x12CB, This type = 0x12CC, 
	Call type = ThisCall, Func attr = none
	Parms = 1, Arg list type = 0x104a, This adjust = 0

0x12d9 : Length = 26, Leaf = 0x1203 LF_FIELDLIST
	list[0] = LF_ENUMERATE, public, value = 78, name = 'ITEMS_PER_BLOCK'

0x12da : Length = 134, Leaf = 0x1507 LF_ENUM
	# members = 1,  type = T_INT4(0074) field list type 0x12d9
NESTED, 	enum name = tinyxml2::MemPoolT<52>::<unnamed-enum-ITEMS_PER_BLOCK>, UDT(0x000012da)

0x12db : Length = 26, Leaf = 0x1009 LF_MFUNCTION
	Return type = T_VOID(0003), Class type = 0x12CB, This type = 0x12CC, 
	Call type = ThisCall, Func attr = none
	Parms = 1, Arg list type = 0x12cf, This adjust = 0

0x12dc : Length = 78, Leaf = 0x1506 LF_UNION
	# members = 0,  field list type 0x0000, NESTED, FORWARD REF, Size = 0	,class name = tinyxml2::MemPoolT<52>::Item, unique name = .?ATItem@?$MemPoolT@$0DE@@tinyxml2@@, UDT(0x000012e7)

0x12dd : Length = 10, Leaf = 0x1002 LF_POINTER
	Pointer (NEAR32), Size: 4
	Element type : 0x12DC

0x12de : Length = 26, Leaf = 0x1009 LF_MFUNCTION
	Return type = T_VOID(0003), Class type = 0x12CB, This type = 0x12CC, 
	Call type = ThisCall, Func attr = none
	Parms = 1, Arg list type = 0x1046, This adjust = 0

0x12df : Length = 26, Leaf = 0x1009 LF_MFUNCTION
	Return type = T_32PVOID(0403), Class type = 0x12CB, This type = 0x12CC, 
	Call type = ThisCall, Func attr = none
	Parms = 1, Arg list type = 0x1046, This adjust = 0

0x12e0 : Length = 534, Leaf = 0x1203 LF_FIELDLIST
	list[0] = LF_BCLASS, public, type = 0x105A, offset = 0
	list[1] = LF_METHOD, count = 2, list = 0x12D2, name = 'MemPoolT<52>'
	list[2] = LF_ONEMETHOD, public, VIRTUAL, index = 0x12D3, name = '~MemPoolT<52>'
	list[3] = LF_ONEMETHOD, public, VANILLA, index = 0x12D3, name = 'Clear'
	list[4] = LF_ONEMETHOD, public, VIRTUAL, index = 0x12D5, name = 'ItemSize'
	list[5] = LF_ONEMETHOD, public, VANILLA, index = 0x12D5, name = 'CurrentAllocs'
	list[6] = LF_ONEMETHOD, public, VIRTUAL, index = 0x12D6, name = 'Alloc'
	list[7] = LF_ONEMETHOD, public, VIRTUAL, index = 0x12D7, name = 'Free'
	list[8] = LF_ONEMETHOD, public, VANILLA, index = 0x12D8, name = 'Trace'
	list[9] = LF_ONEMETHOD, public, VIRTUAL, index = 0x12D3, name = 'SetTracked'
	list[10] = LF_ONEMETHOD, public, VANILLA, index = 0x12D5, name = 'Untracked'
	list[11] = LF_NESTTYPE, type = 0x12DA, <unnamed-enum-ITEMS_PER_BLOCK>
	list[12] = LF_ONEMETHOD, private, VANILLA, index = 0x12DB, name = 'operator='
	list[13] = LF_NESTTYPE, type = 0x12DC, Item
	list[14] = LF_NESTTYPE, type = 0x11A0, Block
	list[15] = LF_MEMBER, private, type = 0x1197, offset = 4
		member name = '_blockPtrs'
	list[16] = LF_MEMBER, private, type = 0x12DD, offset = 56
		member name = '_root'
	list[17] = LF_MEMBER, private, type = T_INT4(0074), offset = 60
		member name = '_currentAllocs'
	list[18] = LF_MEMBER, private, type = T_INT4(0074), offset = 64
		member name = '_nAllocs'
	list[19] = LF_MEMBER, private, type = T_INT4(0074), offset = 68
		member name = '_maxAllocs'
	list[20] = LF_MEMBER, private, type = T_INT4(0074), offset = 72
		member name = '_nUntracked'
	list[21] = LF_ONEMETHOD, public, VANILLA, (compgenx), index = 0x12DE, name = '__autoclassinit2'
	list[22] = LF_ONEMETHOD, public, VANILLA, (compgenx), index = 0x12D3, name = '__local_vftable_ctor_closure'
	list[23] = LF_ONEMETHOD, public, INTRODUCING VIRTUAL, (compgenx), index = 0x12DF, 
		vfptr offset = 0, name = '__vecDelDtor'

0x12e1 : Length = 78, Leaf = 0x1504 LF_CLASS
	# members = 25,  field list type 0x12e0, CONSTRUCTOR, OVERLOAD, CONTAINS NESTED, OVERLOADED ASSIGNMENT, 
	Derivation list type 0x0000, VT shape type 0x112a
	Size = 76, class name = tinyxml2::MemPoolT<52>, unique name = .?AV?$MemPoolT@$0DE@@tinyxml2@@, UDT(0x000012e1)

0x12e2 : Length = 14, Leaf = 0x1503 LF_ARRAY
	Element type = 0x12DC
	Index type = T_ULONG(0022)
	length = 4056
	Name = 

0x12e3 : Length = 18, Leaf = 0x1203 LF_FIELDLIST
	list[0] = LF_MEMBER, public, type = 0x12E2, offset = 0
		member name = 'items'

0x12e4 : Length = 90, Leaf = 0x1505 LF_STRUCTURE
	# members = 1,  field list type 0x12e3, NESTED, 
	Derivation list type 0x0000, VT shape type 0x0000
	Size = 4056, class name = tinyxml2::MemPoolT<52>::Block, unique name = .?AUBlock@?$MemPoolT@$0DE@@tinyxml2@@, UDT(0x000012e4)

0x12e5 : Length = 14, Leaf = 0x1503 LF_ARRAY
	Element type = T_RCHAR(0070)
	Index type = T_ULONG(0022)
	length = 52
	Name = 

0x12e6 : Length = 38, Leaf = 0x1203 LF_FIELDLIST
	list[0] = LF_MEMBER, public, type = 0x12DD, offset = 0
		member name = 'next'
	list[1] = LF_MEMBER, public, type = 0x12E5, offset = 0
		member name = 'itemData'

0x12e7 : Length = 78, Leaf = 0x1506 LF_UNION
	# members = 2,  field list type 0x12e6, NESTED, SEALED, Size = 52	,class name = tinyxml2::MemPoolT<52>::Item, unique name = .?ATItem@?$MemPoolT@$0DE@@tinyxml2@@, UDT(0x000012e7)

0x12e8 : Length = 10, Leaf = 0x1002 LF_POINTER
	const Pointer (NEAR32), Size: 4
	Element type : 0x10AD

0x12e9 : Length = 26, Leaf = 0x1009 LF_MFUNCTION
	Return type = 0x101E, Class type = 0x10AC, This type = 0x12E8, 
	Call type = ThisCall, Func attr = none
	Parms = 0, Arg list type = 0x1022, This adjust = 0

0x12ea : Length = 10, Leaf = 0x1002 LF_POINTER
	const Pointer (NEAR32), Size: 4
	Element type : 0x10AC

0x12eb : Length = 26, Leaf = 0x1009 LF_MFUNCTION
	Return type = T_VOID(0003), Class type = 0x10AC, This type = 0x12EA, 
	Call type = ThisCall, Func attr = none
	Parms = 2, Arg list type = 0x1094, This adjust = 0

0x12ec : Length = 26, Leaf = 0x1009 LF_MFUNCTION
	Return type = 0x1168, Class type = 0x10AC, This type = 0x12E8, 
	Call type = ThisCall, Func attr = none
	Parms = 0, Arg list type = 0x1022, This adjust = 0

0x12ed : Length = 26, Leaf = 0x1009 LF_MFUNCTION
	Return type = 0x1232, Class type = 0x10AC, This type = 0x12EA, 
	Call type = ThisCall, Func attr = none
	Parms = 0, Arg list type = 0x1022, This adjust = 0

0x12ee : Length = 18, Leaf = 0x1206 LF_METHODLIST
	list[0] = public, VIRTUAL, 0x12EC, 
	list[1] = public, VIRTUAL, 0x12ED, 

0x12ef : Length = 26, Leaf = 0x1009 LF_MFUNCTION
	Return type = T_BOOL08(0030), Class type = 0x10AC, This type = 0x12E8, 
	Call type = ThisCall, Func attr = none
	Parms = 1, Arg list type = 0x106b, This adjust = 0

0x12f0 : Length = 26, Leaf = 0x1009 LF_MFUNCTION
	Return type = 0x101E, Class type = 0x10AC, This type = 0x12E8, 
	Call type = ThisCall, Func attr = none
	Parms = 2, Arg list type = 0x10a0, This adjust = 0

0x12f1 : Length = 26, Leaf = 0x1009 LF_MFUNCTION
	Return type = T_INT4(0074), Class type = 0x10AC, This type = 0x12E8, 
	Call type = ThisCall, Func attr = none
	Parms = 2, Arg list type = 0x109e, This adjust = 0

0x12f2 : Length = 26, Leaf = 0x1009 LF_MFUNCTION
	Return type = T_UINT4(0075), Class type = 0x10AC, This type = 0x12E8, 
	Call type = ThisCall, Func attr = none
	Parms = 2, Arg list type = 0x109c, This adjust = 0

0x12f3 : Length = 26, Leaf = 0x1009 LF_MFUNCTION
	Return type = T_QUAD(0013), Class type = 0x10AC, This type = 0x12E8, 
	Call type = ThisCall, Func attr = none
	Parms = 2, Arg list type = 0x109a, This adjust = 0

0x12f4 : Length = 26, Leaf = 0x1009 LF_MFUNCTION
	Return type = T_UQUAD(0023), Class type = 0x10AC, This type = 0x12E8, 
	Call type = ThisCall, Func attr = none
	Parms = 2, Arg list type = 0x1098, This adjust = 0

0x12f5 : Length = 26, Leaf = 0x1009 LF_MFUNCTION
	Return type = T_BOOL08(0030), Class type = 0x10AC, This type = 0x12E8, 
	Call type = ThisCall, Func attr = none
	Parms = 2, Arg list type = 0x1094, This adjust = 0

0x12f6 : Length = 26, Leaf = 0x1009 LF_MFUNCTION
	Return type = T_REAL64(0041), Class type = 0x10AC, This type = 0x12E8, 
	Call type = ThisCall, Func attr = none
	Parms = 2, Arg list type = 0x1096, This adjust = 0

0x12f7 : Length = 14, Leaf = 0x1201 LF_ARGLIST argument count = 2
	list[0] = 0x101E
	list[1] = T_REAL32(0040)

0x12f8 : Length = 26, Leaf = 0x1009 LF_MFUNCTION
	Return type = T_REAL32(0040), Class type = 0x10AC, This type = 0x12E8, 
	Call type = ThisCall, Func attr = none
	Parms = 2, Arg list type = 0x12f7, This adjust = 0

0x12f9 : Length = 14, Leaf = 0x1201 LF_ARGLIST argument count = 2
	list[0] = 0x101E
	list[1] = T_32PINT4(0474)

0x12fa : Length = 26, Leaf = 0x1009 LF_MFUNCTION
	Return type = 0x1015, Class type = 0x10AC, This type = 0x12E8, 
	Call type = ThisCall, Func attr = none
	Parms = 2, Arg list type = 0x12f9, This adjust = 0

0x12fb : Length = 14, Leaf = 0x1201 LF_ARGLIST argument count = 2
	list[0] = 0x101E
	list[1] = T_32PUINT4(0475)

0x12fc : Length = 26, Leaf = 0x1009 LF_MFUNCTION
	Return type = 0x1015, Class type = 0x10AC, This type = 0x12E8, 
	Call type = ThisCall, Func attr = none
	Parms = 2, Arg list type = 0x12fb, This adjust = 0

0x12fd : Length = 14, Leaf = 0x1201 LF_ARGLIST argument count = 2
	list[0] = 0x101E
	list[1] = T_32PQUAD(0413)

0x12fe : Length = 26, Leaf = 0x1009 LF_MFUNCTION
	Return type = 0x1015, Class type = 0x10AC, This type = 0x12E8, 
	Call type = ThisCall, Func attr = none
	Parms = 2, Arg list type = 0x12fd, This adjust = 0

0x12ff : Length = 14, Leaf = 0x1201 LF_ARGLIST argument count = 2
	list[0] = 0x101E
	list[1] = T_32PUQUAD(0423)

0x1300 : Length = 26, Leaf = 0x1009 LF_MFUNCTION
	Return type = 0x1015, Class type = 0x10AC, This type = 0x12E8, 
	Call type = ThisCall, Func attr = none
	Parms = 2, Arg list type = 0x12ff, This adjust = 0

0x1301 : Length = 14, Leaf = 0x1201 LF_ARGLIST argument count = 2
	list[0] = 0x101E
	list[1] = T_32PBOOL08(0430)

0x1302 : Length = 26, Leaf = 0x1009 LF_MFUNCTION
	Return type = 0x1015, Class type = 0x10AC, This type = 0x12E8, 
	Call type = ThisCall, Func attr = none
	Parms = 2, Arg list type = 0x1301, This adjust = 0

0x1303 : Length = 14, Leaf = 0x1201 LF_ARGLIST argument count = 2
	list[0] = 0x101E
	list[1] = T_32PREAL64(0441)

0x1304 : Length = 26, Leaf = 0x1009 LF_MFUNCTION
	Return type = 0x1015, Class type = 0x10AC, This type = 0x12E8, 
	Call type = ThisCall, Func attr = none
	Parms = 2, Arg list type = 0x1303, This adjust = 0

0x1305 : Length = 14, Leaf = 0x1201 LF_ARGLIST argument count = 2
	list[0] = 0x101E
	list[1] = T_32PREAL32(0440)

0x1306 : Length = 26, Leaf = 0x1009 LF_MFUNCTION
	Return type = 0x1015, Class type = 0x10AC, This type = 0x12E8, 
	Call type = ThisCall, Func attr = none
	Parms = 2, Arg list type = 0x1305, This adjust = 0

0x1307 : Length = 14, Leaf = 0x1201 LF_ARGLIST argument count = 2
	list[0] = 0x101E
	list[1] = 0x126E

0x1308 : Length = 26, Leaf = 0x1009 LF_MFUNCTION
	Return type = 0x1015, Class type = 0x10AC, This type = 0x12E8, 
	Call type = ThisCall, Func attr = none
	Parms = 2, Arg list type = 0x1307, This adjust = 0

0x1309 : Length = 66, Leaf = 0x1206 LF_METHODLIST
	list[0] = public, VANILLA, 0x1308, 
	list[1] = public, VANILLA, 0x1306, 
	list[2] = public, VANILLA, 0x1304, 
	list[3] = public, VANILLA, 0x1302, 
	list[4] = public, VANILLA, 0x1300, 
	list[5] = public, VANILLA, 0x12FE, 
	list[6] = public, VANILLA, 0x12FC, 
	list[7] = public, VANILLA, 0x12FA, 

0x130a : Length = 26, Leaf = 0x1009 LF_MFUNCTION
	Return type = T_VOID(0003), Class type = 0x10AC, This type = 0x12EA, 
	Call type = ThisCall, Func attr = none
	Parms = 2, Arg list type = 0x12f7, This adjust = 0

0x130b : Length = 26, Leaf = 0x1009 LF_MFUNCTION
	Return type = T_VOID(0003), Class type = 0x10AC, This type = 0x12EA, 
	Call type = ThisCall, Func attr = none
	Parms = 2, Arg list type = 0x1096, This adjust = 0

0x130c : Length = 26, Leaf = 0x1009 LF_MFUNCTION
	Return type = T_VOID(0003), Class type = 0x10AC, This type = 0x12EA, 
	Call type = ThisCall, Func attr = none
	Parms = 2, Arg list type = 0x1098, This adjust = 0

0x130d : Length = 26, Leaf = 0x1009 LF_MFUNCTION
	Return type = T_VOID(0003), Class type = 0x10AC, This type = 0x12EA, 
	Call type = ThisCall, Func attr = none
	Parms = 2, Arg list type = 0x109a, This adjust = 0

0x130e : Length = 26, Leaf = 0x1009 LF_MFUNCTION
	Return type = T_VOID(0003), Class type = 0x10AC, This type = 0x12EA, 
	Call type = ThisCall, Func attr = none
	Parms = 2, Arg list type = 0x109c, This adjust = 0

0x130f : Length = 26, Leaf = 0x1009 LF_MFUNCTION
	Return type = T_VOID(0003), Class type = 0x10AC, This type = 0x12EA, 
	Call type = ThisCall, Func attr = none
	Parms = 2, Arg list type = 0x109e, This adjust = 0

0x1310 : Length = 26, Leaf = 0x1009 LF_MFUNCTION
	Return type = T_VOID(0003), Class type = 0x10AC, This type = 0x12EA, 
	Call type = ThisCall, Func attr = none
	Parms = 2, Arg list type = 0x10a0, This adjust = 0

0x1311 : Length = 66, Leaf = 0x1206 LF_METHODLIST
	list[0] = public, VANILLA, 0x130A, 
	list[1] = public, VANILLA, 0x130B, 
	list[2] = public, VANILLA, 0x12EB, 
	list[3] = public, VANILLA, 0x130C, 
	list[4] = public, VANILLA, 0x130D, 
	list[5] = public, VANILLA, 0x130E, 
	list[6] = public, VANILLA, 0x130F, 
	list[7] = public, VANILLA, 0x1310, 

0x1312 : Length = 10, Leaf = 0x1201 LF_ARGLIST argument count = 1
	list[0] = 0x1059

0x1313 : Length = 26, Leaf = 0x1009 LF_MFUNCTION
	Return type = T_VOID(0003), Class type = 0x10AC, This type = T_NOTYPE(0000), 
	Call type = C Near, Func attr = none
	Parms = 1, Arg list type = 0x1312, This adjust = 0

0x1314 : Length = 26, Leaf = 0x1009 LF_MFUNCTION
	Return type = T_VOID(0003), Class type = 0x10AC, This type = 0x12EA, 
	Call type = ThisCall, Func attr = none
	Parms = 1, Arg list type = 0x104a, This adjust = 0

0x1315 : Length = 18, Leaf = 0x1206 LF_METHODLIST
	list[0] = private, STATIC, 0x1313, 
	list[1] = public, VANILLA, 0x1314, 

0x1316 : Length = 26, Leaf = 0x1009 LF_MFUNCTION
	Return type = 0x1025, Class type = 0x10AC, This type = 0x12E8, 
	Call type = ThisCall, Func attr = none
	Parms = 0, Arg list type = 0x1022, This adjust = 0

0x1317 : Length = 26, Leaf = 0x1009 LF_MFUNCTION
	Return type = 0x1025, Class type = 0x10AC, This type = 0x12E8, 
	Call type = ThisCall, Func attr = none
	Parms = 1, Arg list type = 0x104a, This adjust = 0

0x1318 : Length = 26, Leaf = 0x1009 LF_MFUNCTION
	Return type = T_VOID(0003), Class type = 0x10AC, This type = 0x12EA, 
	Call type = ThisCall, Func attr = none
	Parms = 1, Arg list type = 0x103c, This adjust = 0

0x1319 : Length = 26, Leaf = 0x1009 LF_MFUNCTION
	Return type = T_VOID(0003), Class type = 0x10AC, This type = 0x12EA, 
	Call type = ThisCall, Func attr = none
	Parms = 1, Arg list type = 0x103e, This adjust = 0

0x131a : Length = 26, Leaf = 0x1009 LF_MFUNCTION
	Return type = T_VOID(0003), Class type = 0x10AC, This type = 0x12EA, 
	Call type = ThisCall, Func attr = none
	Parms = 1, Arg list type = 0x1040, This adjust = 0

0x131b : Length = 26, Leaf = 0x1009 LF_MFUNCTION
	Return type = T_VOID(0003), Class type = 0x10AC, This type = 0x12EA, 
	Call type = ThisCall, Func attr = none
	Parms = 1, Arg list type = 0x1042, This adjust = 0

0x131c : Length = 26, Leaf = 0x1009 LF_MFUNCTION
	Return type = T_VOID(0003), Class type = 0x10AC, This type = 0x12EA, 
	Call type = ThisCall, Func attr = none
	Parms = 1, Arg list type = 0x1044, This adjust = 0

0x131d : Length = 26, Leaf = 0x1009 LF_MFUNCTION
	Return type = T_VOID(0003), Class type = 0x10AC, This type = 0x12EA, 
	Call type = ThisCall, Func attr = none
	Parms = 1, Arg list type = 0x1046, This adjust = 0

0x131e : Length = 26, Leaf = 0x1009 LF_MFUNCTION
	Return type = T_VOID(0003), Class type = 0x10AC, This type = 0x12EA, 
	Call type = ThisCall, Func attr = none
	Parms = 1, Arg list type = 0x1048, This adjust = 0

0x131f : Length = 66, Leaf = 0x1206 LF_METHODLIST
	list[0] = public, VANILLA, 0x1318, 
	list[1] = public, VANILLA, 0x1319, 
	list[2] = public, VANILLA, 0x131A, 
	list[3] = public, VANILLA, 0x131B, 
	list[4] = public, VANILLA, 0x131C, 
	list[5] = public, VANILLA, 0x131D, 
	list[6] = public, VANILLA, 0x131E, 
	list[7] = public, VANILLA, 0x1314, 

0x1320 : Length = 26, Leaf = 0x1009 LF_MFUNCTION
	Return type = 0x1015, Class type = 0x10AC, This type = 0x12E8, 
	Call type = ThisCall, Func attr = none
	Parms = 1, Arg list type = 0x102d, This adjust = 0

0x1321 : Length = 26, Leaf = 0x1009 LF_MFUNCTION
	Return type = 0x1015, Class type = 0x10AC, This type = 0x12E8, 
	Call type = ThisCall, Func attr = none
	Parms = 1, Arg list type = 0x102f, This adjust = 0

0x1322 : Length = 26, Leaf = 0x1009 LF_MFUNCTION
	Return type = 0x1015, Class type = 0x10AC, This type = 0x12E8, 
	Call type = ThisCall, Func attr = none
	Parms = 1, Arg list type = 0x1031, This adjust = 0

0x1323 : Length = 26, Leaf = 0x1009 LF_MFUNCTION
	Return type = 0x1015, Class type = 0x10AC, This type = 0x12E8, 
	Call type = ThisCall, Func attr = none
	Parms = 1, Arg list type = 0x1033, This adjust = 0

0x1324 : Length = 26, Leaf = 0x1009 LF_MFUNCTION
	Return type = 0x1015, Class type = 0x10AC, This type = 0x12E8, 
	Call type = ThisCall, Func attr = none
	Parms = 1, Arg list type = 0x1035, This adjust = 0

0x1325 : Length = 26, Leaf = 0x1009 LF_MFUNCTION
	Return type = 0x1015, Class type = 0x10AC, This type = 0x12E8, 
	Call type = ThisCall, Func attr = none
	Parms = 1, Arg list type = 0x1037, This adjust = 0

0x1326 : Length = 26, Leaf = 0x1009 LF_MFUNCTION
	Return type = 0x1015, Class type = 0x10AC, This type = 0x12E8, 
	Call type = ThisCall, Func attr = none
	Parms = 1, Arg list type = 0x1039, This adjust = 0

0x1327 : Length = 26, Leaf = 0x1009 LF_MFUNCTION
	Return type = T_INT4(0074), Class type = 0x10AC, This type = 0x12E8, 
	Call type = ThisCall, Func attr = none
	Parms = 1, Arg list type = 0x1048, This adjust = 0

0x1328 : Length = 26, Leaf = 0x1009 LF_MFUNCTION
	Return type = T_UINT4(0075), Class type = 0x10AC, This type = 0x12E8, 
	Call type = ThisCall, Func attr = none
	Parms = 1, Arg list type = 0x1046, This adjust = 0

0x1329 : Length = 26, Leaf = 0x1009 LF_MFUNCTION
	Return type = T_QUAD(0013), Class type = 0x10AC, This type = 0x12E8, 
	Call type = ThisCall, Func attr = none
	Parms = 1, Arg list type = 0x1044, This adjust = 0

0x132a : Length = 26, Leaf = 0x1009 LF_MFUNCTION
	Return type = T_UQUAD(0023), Class type = 0x10AC, This type = 0x12E8, 
	Call type = ThisCall, Func attr = none
	Parms = 1, Arg list type = 0x1042, This adjust = 0

0x132b : Length = 26, Leaf = 0x1009 LF_MFUNCTION
	Return type = T_BOOL08(0030), Class type = 0x10AC, This type = 0x12E8, 
	Call type = ThisCall, Func attr = none
	Parms = 1, Arg list type = 0x1040, This adjust = 0

0x132c : Length = 26, Leaf = 0x1009 LF_MFUNCTION
	Return type = T_REAL64(0041), Class type = 0x10AC, This type = 0x12E8, 
	Call type = ThisCall, Func attr = none
	Parms = 1, Arg list type = 0x103e, This adjust = 0

0x132d : Length = 26, Leaf = 0x1009 LF_MFUNCTION
	Return type = T_REAL32(0040), Class type = 0x10AC, This type = 0x12E8, 
	Call type = ThisCall, Func attr = none
	Parms = 1, Arg list type = 0x103c, This adjust = 0

0x132e : Length = 26, Leaf = 0x1009 LF_MFUNCTION
	Return type = 0x1232, Class type = 0x10AC, This type = 0x12EA, 
	Call type = ThisCall, Func attr = none
	Parms = 1, Arg list type = 0x104a, This adjust = 0

0x132f : Length = 26, Leaf = 0x1009 LF_MFUNCTION
	Return type = 0x10E0, Class type = 0x10AC, This type = 0x12EA, 
	Call type = ThisCall, Func attr = none
	Parms = 1, Arg list type = 0x104a, This adjust = 0

0x1330 : Length = 26, Leaf = 0x1009 LF_MFUNCTION
	Return type = 0x1236, Class type = 0x10AC, This type = 0x12EA, 
	Call type = ThisCall, Func attr = none
	Parms = 1, Arg list type = 0x104a, This adjust = 0

0x1331 : Length = 26, Leaf = 0x1009 LF_MFUNCTION
	Return type = 0x123E, Class type = 0x10AC, This type = 0x12EA, 
	Call type = ThisCall, Func attr = none
	Parms = 1, Arg list type = 0x104a, This adjust = 0

0x1332 : Length = 26, Leaf = 0x1009 LF_MFUNCTION
	Return type = 0x1065, Class type = 0x10AC, This type = 0x12EA, 
	Call type = ThisCall, Func attr = none
	Parms = 1, Arg list type = 0x104a, This adjust = 0

0x1333 : Length = 46, Leaf = 0x1203 LF_FIELDLIST
	list[0] = LF_ENUMERATE, public, value = 0, name = 'OPEN'
	list[1] = LF_ENUMERATE, public, value = 1, name = 'CLOSED'
	list[2] = LF_ENUMERATE, public, value = 2, name = 'CLOSING'

0x1334 : Length = 102, Leaf = 0x1507 LF_ENUM
	# members = 3,  type = T_INT4(0074) field list type 0x1333
NESTED, 	enum name = tinyxml2::XMLElement::ElementClosingType, UDT(0x00001334)

0x1335 : Length = 26, Leaf = 0x1009 LF_MFUNCTION
	Return type = 0x1334, Class type = 0x10AC, This type = 0x12E8, 
	Call type = ThisCall, Func attr = none
	Parms = 0, Arg list type = 0x1022, This adjust = 0

0x1336 : Length = 26, Leaf = 0x1009 LF_MFUNCTION
	Return type = 0x106D, Class type = 0x10AC, This type = 0x12E8, 
	Call type = ThisCall, Func attr = none
	Parms = 1, Arg list type = 0x1070, This adjust = 0

0x1337 : Length = 26, Leaf = 0x1009 LF_MFUNCTION
	Return type = T_BOOL08(0030), Class type = 0x10AC, This type = 0x12E8, 
	Call type = ThisCall, Func attr = none
	Parms = 1, Arg list type = 0x1074, This adjust = 0

0x1338 : Length = 26, Leaf = 0x1009 LF_MFUNCTION
	Return type = T_32PRCHAR(0470), Class type = 0x10AC, This type = 0x12EA, 
	Call type = ThisCall, Func attr = none
	Parms = 3, Arg list type = 0x107d, This adjust = 0

0x1339 : Length = 26, Leaf = 0x1009 LF_MFUNCTION
	Return type = T_VOID(0003), Class type = 0x10AC, This type = 0x12EA, 
	Call type = ThisCall, Func attr = instance constructor
	Parms = 1, Arg list type = 0x10b6, This adjust = 0

0x133a : Length = 26, Leaf = 0x1009 LF_MFUNCTION
	Return type = T_VOID(0003), Class type = 0x10AC, This type = 0x12EA, 
	Call type = ThisCall, Func attr = instance constructor
	Parms = 1, Arg list type = 0x1070, This adjust = 0

0x133b : Length = 18, Leaf = 0x1206 LF_METHODLIST
	list[0] = private, VANILLA, 0x1339, 
	list[1] = private, VANILLA, 0x133A, 

0x133c : Length = 26, Leaf = 0x1009 LF_MFUNCTION
	Return type = T_VOID(0003), Class type = 0x10AC, This type = 0x12EA, 
	Call type = ThisCall, Func attr = none
	Parms = 0, Arg list type = 0x1022, This adjust = 0

0x133d : Length = 26, Leaf = 0x1009 LF_MFUNCTION
	Return type = T_VOID(0003), Class type = 0x10AC, This type = 0x12EA, 
	Call type = ThisCall, Func attr = none
	Parms = 1, Arg list type = 0x10b6, This adjust = 0

0x133e : Length = 26, Leaf = 0x1009 LF_MFUNCTION
	Return type = 0x1059, Class type = 0x10AC, This type = 0x12EA, 
	Call type = ThisCall, Func attr = none
	Parms = 1, Arg list type = 0x104a, This adjust = 0

0x133f : Length = 14, Leaf = 0x1201 LF_ARGLIST argument count = 2
	list[0] = T_32PRCHAR(0470)
	list[1] = T_32PINT4(0474)

0x1340 : Length = 26, Leaf = 0x1009 LF_MFUNCTION
	Return type = T_32PRCHAR(0470), Class type = 0x10AC, This type = 0x12EA, 
	Call type = ThisCall, Func attr = none
	Parms = 2, Arg list type = 0x133f, This adjust = 0

0x1341 : Length = 26, Leaf = 0x1009 LF_MFUNCTION
	Return type = 0x1059, Class type = 0x10AC, This type = 0x12EA, 
	Call type = ThisCall, Func attr = none
	Parms = 0, Arg list type = 0x1022, This adjust = 0

0x1342 : Length = 114, Leaf = 0x1507 LF_ENUM
	# members = 1,  type = T_INT4(0074) field list type 0x104d
NESTED, 	enum name = tinyxml2::XMLElement::<unnamed-enum-BUF_SIZE>, UDT(0x00001342)

0x1343 : Length = 26, Leaf = 0x1009 LF_MFUNCTION
	Return type = T_32PVOID(0403), Class type = 0x10AC, This type = 0x12EA, 
	Call type = ThisCall, Func attr = none
	Parms = 1, Arg list type = 0x1046, This adjust = 0

0x1344 : Length = 1534, Leaf = 0x1203 LF_FIELDLIST
	list[0] = LF_BCLASS, public, type = 0x105F, offset = 0
	list[1] = LF_ONEMETHOD, public, VANILLA, index = 0x12E9, name = 'Name'
	list[2] = LF_ONEMETHOD, public, VANILLA, index = 0x12EB, name = 'SetName'
	list[3] = LF_METHOD, count = 2, list = 0x12EE, name = 'ToElement'
	list[4] = LF_ONEMETHOD, public, VIRTUAL, index = 0x12EF, name = 'Accept'
	list[5] = LF_ONEMETHOD, public, VANILLA, index = 0x12F0, name = 'Attribute'
	list[6] = LF_ONEMETHOD, public, VANILLA, index = 0x12F1, name = 'IntAttribute'
	list[7] = LF_ONEMETHOD, public, VANILLA, index = 0x12F2, name = 'UnsignedAttribute'
	list[8] = LF_ONEMETHOD, public, VANILLA, index = 0x12F3, name = 'Int64Attribute'
	list[9] = LF_ONEMETHOD, public, VANILLA, index = 0x12F4, name = 'Unsigned64Attribute'
	list[10] = LF_ONEMETHOD, public, VANILLA, index = 0x12F5, name = 'BoolAttribute'
	list[11] = LF_ONEMETHOD, public, VANILLA, index = 0x12F6, name = 'DoubleAttribute'
	list[12] = LF_ONEMETHOD, public, VANILLA, index = 0x12F8, name = 'FloatAttribute'
	list[13] = LF_ONEMETHOD, public, VANILLA, index = 0x12FA, name = 'QueryIntAttribute'
	list[14] = LF_ONEMETHOD, public, VANILLA, index = 0x12FC, name = 'QueryUnsignedAttribute'
	list[15] = LF_ONEMETHOD, public, VANILLA, index = 0x12FE, name = 'QueryInt64Attribute'
	list[16] = LF_ONEMETHOD, public, VANILLA, index = 0x1300, name = 'QueryUnsigned64Attribute'
	list[17] = LF_ONEMETHOD, public, VANILLA, index = 0x1302, name = 'QueryBoolAttribute'
	list[18] = LF_ONEMETHOD, public, VANILLA, index = 0x1304, name = 'QueryDoubleAttribute'
	list[19] = LF_ONEMETHOD, public, VANILLA, index = 0x1306, name = 'QueryFloatAttribute'
	list[20] = LF_ONEMETHOD, public, VANILLA, index = 0x1308, name = 'QueryStringAttribute'
	list[21] = LF_METHOD, count = 8, list = 0x1309, name = 'QueryAttribute'
	list[22] = LF_METHOD, count = 8, list = 0x1311, name = 'SetAttribute'
	list[23] = LF_METHOD, count = 2, list = 0x1315, name = 'DeleteAttribute'
	list[24] = LF_ONEMETHOD, public, VANILLA, index = 0x1316, name = 'FirstAttribute'
	list[25] = LF_ONEMETHOD, public, VANILLA, index = 0x1317, name = 'FindAttribute'
	list[26] = LF_ONEMETHOD, public, VANILLA, index = 0x12E9, name = 'GetText'
	list[27] = LF_METHOD, count = 8, list = 0x131F, name = 'SetText'
	list[28] = LF_ONEMETHOD, public, VANILLA, index = 0x1320, name = 'QueryIntText'
	list[29] = LF_ONEMETHOD, public, VANILLA, index = 0x1321, name = 'QueryUnsignedText'
	list[30] = LF_ONEMETHOD, public, VANILLA, index = 0x1322, name = 'QueryInt64Text'
	list[31] = LF_ONEMETHOD, public, VANILLA, index = 0x1323, name = 'QueryUnsigned64Text'
	list[32] = LF_ONEMETHOD, public, VANILLA, index = 0x1324, name = 'QueryBoolText'
	list[33] = LF_ONEMETHOD, public, VANILLA, index = 0x1325, name = 'QueryDoubleText'
	list[34] = LF_ONEMETHOD, public, VANILLA, index = 0x1326, name = 'QueryFloatText'
	list[35] = LF_ONEMETHOD, public, VANILLA, index = 0x1327, name = 'IntText'
	list[36] = LF_ONEMETHOD, public, VANILLA, index = 0x1328, name = 'UnsignedText'
	list[37] = LF_ONEMETHOD, public, VANILLA, index = 0x1329, name = 'Int64Text'
	list[38] = LF_ONEMETHOD, public, VANILLA, index = 0x132A, name = 'Unsigned64Text'
	list[39] = LF_ONEMETHOD, public, VANILLA, index = 0x132B, name = 'BoolText'
	list[40] = LF_ONEMETHOD, public, VANILLA, index = 0x132C, name = 'DoubleText'
	list[41] = LF_ONEMETHOD, public, VANILLA, index = 0x132D, name = 'FloatText'
	list[42] = LF_ONEMETHOD, public, VANILLA, index = 0x132E, name = 'InsertNewChildElement'
	list[43] = LF_ONEMETHOD, public, VANILLA, index = 0x132F, name = 'InsertNewComment'
	list[44] = LF_ONEMETHOD, public, VANILLA, index = 0x1330, name = 'InsertNewText'
	list[45] = LF_ONEMETHOD, public, VANILLA, index = 0x1331, name = 'InsertNewDeclaration'
	list[46] = LF_ONEMETHOD, public, VANILLA, index = 0x1332, name = 'InsertNewUnknown'
	list[47] = LF_NESTTYPE, type = 0x1334, ElementClosingType
	list[48] = LF_ONEMETHOD, public, VANILLA, index = 0x1335, name = 'ClosingType'
	list[49] = LF_ONEMETHOD, public, VIRTUAL, index = 0x1336, name = 'ShallowClone'
	list[50] = LF_ONEMETHOD, public, VIRTUAL, index = 0x1337, name = 'ShallowEqual'
	list[51] = LF_ONEMETHOD, protected, VIRTUAL, index = 0x1338, name = 'ParseDeep'
	list[52] = LF_METHOD, count = 2, list = 0x133B, name = 'XMLElement'
	list[53] = LF_ONEMETHOD, private, VIRTUAL, index = 0x133C, name = '~XMLElement'
	list[54] = LF_ONEMETHOD, private, VANILLA, index = 0x133D, name = 'operator='
	list[55] = LF_ONEMETHOD, private, VANILLA, index = 0x133E, name = 'FindOrCreateAttribute'
	list[56] = LF_ONEMETHOD, private, VANILLA, index = 0x1340, name = 'ParseAttributes'
	list[57] = LF_ONEMETHOD, private, VANILLA, index = 0x1341, name = 'CreateAttribute'
	list[58] = LF_NESTTYPE, type = 0x1342, <unnamed-enum-BUF_SIZE>
	list[59] = LF_MEMBER, private, type = 0x1334, offset = 52
		member name = '_closingType'
	list[60] = LF_MEMBER, private, type = 0x1059, offset = 56
		member name = '_rootAttribute'
	list[61] = LF_ONEMETHOD, public, VANILLA, (compgenx), index = 0x131D, name = '__autoclassinit2'
	list[62] = LF_ONEMETHOD, private, INTRODUCING VIRTUAL, (compgenx), index = 0x1343, 
		vfptr offset = 60, name = '__vecDelDtor'

0x1345 : Length = 70, Leaf = 0x1504 LF_CLASS
	# members = 87,  field list type 0x1344, CONSTRUCTOR, OVERLOAD, CONTAINS NESTED, OVERLOADED ASSIGNMENT, 
	Derivation list type 0x0000, VT shape type 0x1084
	Size = 60, class name = tinyxml2::XMLElement, unique name = .?AVXMLElement@tinyxml2@@, UDT(0x00001345)

0x1346 : Length = 266, Leaf = 0x1203 LF_FIELDLIST
	list[0] = LF_ENUMERATE, public, value = 1, name = 'NEEDS_ENTITY_PROCESSING'
	list[1] = LF_ENUMERATE, public, value = 2, name = 'NEEDS_NEWLINE_NORMALIZATION'
	list[2] = LF_ENUMERATE, public, value = 4, name = 'NEEDS_WHITESPACE_COLLAPSING'
	list[3] = LF_ENUMERATE, public, value = 3, name = 'TEXT_ELEMENT'
	list[4] = LF_ENUMERATE, public, value = 2, name = 'TEXT_ELEMENT_LEAVE_ENTITIES'
	list[5] = LF_ENUMERATE, public, value = 0, name = 'ATTRIBUTE_NAME'
	list[6] = LF_ENUMERATE, public, value = 3, name = 'ATTRIBUTE_VALUE'
	list[7] = LF_ENUMERATE, public, value = 2, name = 'ATTRIBUTE_VALUE_LEAVE_ENTITIES'
	list[8] = LF_ENUMERATE, public, value = 2, name = 'COMMENT'

0x1347 : Length = 70, Leaf = 0x1507 LF_ENUM
	# members = 9,  type = T_INT4(0074) field list type 0x1346
NESTED, 	enum name = tinyxml2::StrPair::Mode, UDT(0x00001347)

0x1348 : Length = 10, Leaf = 0x1002 LF_POINTER
	const Pointer (NEAR32), Size: 4
	Element type : 0x1058

0x1349 : Length = 10, Leaf = 0x1001 LF_MODIFIER
	const, modifies type 0x1058

0x134a : Length = 10, Leaf = 0x1002 LF_POINTER
	L-value Reference (NEAR32), Size: 4
	Element type : 0x1349

0x134b : Length = 10, Leaf = 0x1201 LF_ARGLIST argument count = 1
	list[0] = 0x134A

0x134c : Length = 26, Leaf = 0x1009 LF_MFUNCTION
	Return type = T_VOID(0003), Class type = 0x1058, This type = 0x1348, 
	Call type = ThisCall, Func attr = instance constructor
	Parms = 1, Arg list type = 0x134b, This adjust = 0

0x134d : Length = 26, Leaf = 0x1009 LF_MFUNCTION
	Return type = T_VOID(0003), Class type = 0x1058, This type = 0x1348, 
	Call type = ThisCall, Func attr = instance constructor
	Parms = 0, Arg list type = 0x1022, This adjust = 0

0x134e : Length = 18, Leaf = 0x1206 LF_METHODLIST
	list[0] = private, VANILLA, 0x134C, 
	list[1] = public, VANILLA, 0x134D, 

0x134f : Length = 26, Leaf = 0x1009 LF_MFUNCTION
	Return type = T_VOID(0003), Class type = 0x1058, This type = 0x1348, 
	Call type = ThisCall, Func attr = none
	Parms = 0, Arg list type = 0x1022, This adjust = 0

0x1350 : Length = 18, Leaf = 0x1201 LF_ARGLIST argument count = 3
	list[0] = T_32PRCHAR(0470)
	list[1] = T_32PRCHAR(0470)
	list[2] = T_INT4(0074)

0x1351 : Length = 26, Leaf = 0x1009 LF_MFUNCTION
	Return type = T_VOID(0003), Class type = 0x1058, This type = 0x1348, 
	Call type = ThisCall, Func attr = none
	Parms = 3, Arg list type = 0x1350, This adjust = 0

0x1352 : Length = 26, Leaf = 0x1009 LF_MFUNCTION
	Return type = 0x101E, Class type = 0x1058, This type = 0x1348, 
	Call type = ThisCall, Func attr = none
	Parms = 0, Arg list type = 0x1022, This adjust = 0

0x1353 : Length = 10, Leaf = 0x1002 LF_POINTER
	const Pointer (NEAR32), Size: 4
	Element type : 0x1349

0x1354 : Length = 26, Leaf = 0x1009 LF_MFUNCTION
	Return type = T_BOOL08(0030), Class type = 0x1058, This type = 0x1353, 
	Call type = ThisCall, Func attr = none
	Parms = 0, Arg list type = 0x1022, This adjust = 0

0x1355 : Length = 26, Leaf = 0x1009 LF_MFUNCTION
	Return type = T_VOID(0003), Class type = 0x1058, This type = 0x1348, 
	Call type = ThisCall, Func attr = none
	Parms = 1, Arg list type = 0x104a, This adjust = 0

0x1356 : Length = 26, Leaf = 0x1009 LF_MFUNCTION
	Return type = T_VOID(0003), Class type = 0x1058, This type = 0x1348, 
	Call type = ThisCall, Func attr = none
	Parms = 2, Arg list type = 0x109e, This adjust = 0

0x1357 : Length = 22, Leaf = 0x1201 LF_ARGLIST argument count = 4
	list[0] = T_32PRCHAR(0470)
	list[1] = 0x101E
	list[2] = T_INT4(0074)
	list[3] = T_32PINT4(0474)

0x1358 : Length = 26, Leaf = 0x1009 LF_MFUNCTION
	Return type = T_32PRCHAR(0470), Class type = 0x1058, This type = 0x1348, 
	Call type = ThisCall, Func attr = none
	Parms = 4, Arg list type = 0x1357, This adjust = 0

0x1359 : Length = 10, Leaf = 0x1201 LF_ARGLIST argument count = 1
	list[0] = T_32PRCHAR(0470)

0x135a : Length = 26, Leaf = 0x1009 LF_MFUNCTION
	Return type = T_32PRCHAR(0470), Class type = 0x1058, This type = 0x1348, 
	Call type = ThisCall, Func attr = none
	Parms = 1, Arg list type = 0x1359, This adjust = 0

0x135b : Length = 10, Leaf = 0x1201 LF_ARGLIST argument count = 1
	list[0] = 0x107C

0x135c : Length = 26, Leaf = 0x1009 LF_MFUNCTION
	Return type = T_VOID(0003), Class type = 0x1058, This type = 0x1348, 
	Call type = ThisCall, Func attr = none
	Parms = 1, Arg list type = 0x135b, This adjust = 0

0x135d : Length = 42, Leaf = 0x1203 LF_FIELDLIST
	list[0] = LF_ENUMERATE, public, value = 256, name = 'NEEDS_FLUSH'
	list[1] = LF_ENUMERATE, public, value = 512, name = 'NEEDS_DELETE'

0x135e : Length = 114, Leaf = 0x1507 LF_ENUM
	# members = 2,  type = T_INT4(0074) field list type 0x135d
NESTED, 	enum name = tinyxml2::StrPair::<unnamed-enum-NEEDS_FLUSH>, UDT(0x0000135e)

0x135f : Length = 26, Leaf = 0x1009 LF_MFUNCTION
	Return type = T_VOID(0003), Class type = 0x1058, This type = 0x1348, 
	Call type = ThisCall, Func attr = none
	Parms = 1, Arg list type = 0x134b, This adjust = 0

0x1360 : Length = 26, Leaf = 0x1009 LF_MFUNCTION
	Return type = T_VOID(0003), Class type = 0x1058, This type = 0x1348, 
	Call type = ThisCall, Func attr = none
	Parms = 1, Arg list type = 0x1046, This adjust = 0

0x1361 : Length = 26, Leaf = 0x1009 LF_MFUNCTION
	Return type = T_32PVOID(0403), Class type = 0x1058, This type = 0x1348, 
	Call type = ThisCall, Func attr = none
	Parms = 1, Arg list type = 0x1046, This adjust = 0

0x1362 : Length = 406, Leaf = 0x1203 LF_FIELDLIST
	list[0] = LF_NESTTYPE, type = 0x1347, Mode
	list[1] = LF_METHOD, count = 2, list = 0x134E, name = 'StrPair'
	list[2] = LF_ONEMETHOD, public, VANILLA, index = 0x134F, name = '~StrPair'
	list[3] = LF_ONEMETHOD, public, VANILLA, index = 0x1351, name = 'Set'
	list[4] = LF_ONEMETHOD, public, VANILLA, index = 0x1352, name = 'GetStr'
	list[5] = LF_ONEMETHOD, public, VANILLA, index = 0x1354, name = 'Empty'
	list[6] = LF_ONEMETHOD, public, VANILLA, index = 0x1355, name = 'SetInternedStr'
	list[7] = LF_ONEMETHOD, public, VANILLA, index = 0x1356, name = 'SetStr'
	list[8] = LF_ONEMETHOD, public, VANILLA, index = 0x1358, name = 'ParseText'
	list[9] = LF_ONEMETHOD, public, VANILLA, index = 0x135A, name = 'ParseName'
	list[10] = LF_ONEMETHOD, public, VANILLA, index = 0x135C, name = 'TransferTo'
	list[11] = LF_ONEMETHOD, public, VANILLA, index = 0x134F, name = 'Reset'
	list[12] = LF_ONEMETHOD, private, VANILLA, index = 0x134F, name = 'CollapseWhitespace'
	list[13] = LF_NESTTYPE, type = 0x135E, <unnamed-enum-NEEDS_FLUSH>
	list[14] = LF_MEMBER, private, type = T_INT4(0074), offset = 0
		member name = '_flags'
	list[15] = LF_MEMBER, private, type = T_32PRCHAR(0470), offset = 4
		member name = '_start'
	list[16] = LF_MEMBER, private, type = T_32PRCHAR(0470), offset = 8
		member name = '_end'
	list[17] = LF_ONEMETHOD, private, VANILLA, index = 0x135F, name = 'operator='
	list[18] = LF_ONEMETHOD, public, VANILLA, (compgenx), index = 0x1360, name = '__autoclassinit2'
	list[19] = LF_ONEMETHOD, public, VANILLA, (compgenx), index = 0x1361, name = '__vecDelDtor'

0x1363 : Length = 62, Leaf = 0x1504 LF_CLASS
	# members = 21,  field list type 0x1362, CONSTRUCTOR, OVERLOAD, CONTAINS NESTED, OVERLOADED ASSIGNMENT, 
	Derivation list type 0x0000, VT shape type 0x0000
	Size = 12, class name = tinyxml2::StrPair, unique name = .?AVStrPair@tinyxml2@@, UDT(0x00001363)

0x1364 : Length = 114, Leaf = 0x1504 LF_CLASS
	# members = 0,  field list type 0x0000, FORWARD REF, 
	Derivation list type 0x0000, VT shape type 0x0000
	Size = 0, class name = tinyxml2::DynArray<tinyxml2::XMLNode *,10>, unique name = .?AV?$DynArray@PAVXMLNode@tinyxml2@@$09@tinyxml2@@, UDT(0x00001384)

0x1365 : Length = 10, Leaf = 0x1002 LF_POINTER
	const Pointer (NEAR32), Size: 4
	Element type : 0x1364

0x1366 : Length = 10, Leaf = 0x1001 LF_MODIFIER
	const, modifies type 0x1364

0x1367 : Length = 10, Leaf = 0x1002 LF_POINTER
	L-value Reference (NEAR32), Size: 4
	Element type : 0x1366

0x1368 : Length = 10, Leaf = 0x1201 LF_ARGLIST argument count = 1
	list[0] = 0x1367

0x1369 : Length = 26, Leaf = 0x1009 LF_MFUNCTION
	Return type = T_VOID(0003), Class type = 0x1364, This type = 0x1365, 
	Call type = ThisCall, Func attr = instance constructor
	Parms = 1, Arg list type = 0x1368, This adjust = 0

0x136a : Length = 26, Leaf = 0x1009 LF_MFUNCTION
	Return type = T_VOID(0003), Class type = 0x1364, This type = 0x1365, 
	Call type = ThisCall, Func attr = instance constructor
	Parms = 0, Arg list type = 0x1022, This adjust = 0

0x136b : Length = 18, Leaf = 0x1206 LF_METHODLIST
	list[0] = private, VANILLA, 0x1369, 
	list[1] = public, VANILLA, 0x136A, 

0x136c : Length = 26, Leaf = 0x1009 LF_MFUNCTION
	Return type = T_VOID(0003), Class type = 0x1364, This type = 0x1365, 
	Call type = ThisCall, Func attr = none
	Parms = 0, Arg list type = 0x1022, This adjust = 0

0x136d : Length = 26, Leaf = 0x1009 LF_MFUNCTION
	Return type = T_VOID(0003), Class type = 0x1364, This type = 0x1365, 
	Call type = ThisCall, Func attr = none
	Parms = 1, Arg list type = 0x124e, This adjust = 0

0x136e : Length = 10, Leaf = 0x1002 LF_POINTER
	Pointer (NEAR32), Size: 4
	Element type : 0x106D

0x136f : Length = 26, Leaf = 0x1009 LF_MFUNCTION
	Return type = 0x136E, Class type = 0x1364, This type = 0x1365, 
	Call type = ThisCall, Func attr = none
	Parms = 1, Arg list type = 0x1048, This adjust = 0

0x1370 : Length = 26, Leaf = 0x1009 LF_MFUNCTION
	Return type = 0x106D, Class type = 0x1364, This type = 0x1365, 
	Call type = ThisCall, Func attr = none
	Parms = 0, Arg list type = 0x1022, This adjust = 0

0x1371 : Length = 26, Leaf = 0x1009 LF_MFUNCTION
	Return type = T_VOID(0003), Class type = 0x1364, This type = 0x1365, 
	Call type = ThisCall, Func attr = none
	Parms = 1, Arg list type = 0x1048, This adjust = 0

0x1372 : Length = 10, Leaf = 0x1002 LF_POINTER
	const Pointer (NEAR32), Size: 4
	Element type : 0x1366

0x1373 : Length = 26, Leaf = 0x1009 LF_MFUNCTION
	Return type = T_BOOL08(0030), Class type = 0x1364, This type = 0x1372, 
	Call type = ThisCall, Func attr = none
	Parms = 0, Arg list type = 0x1022, This adjust = 0

0x1374 : Length = 10, Leaf = 0x1002 LF_POINTER
	L-value Reference (NEAR32), Size: 4
	Element type : 0x122B

0x1375 : Length = 26, Leaf = 0x1009 LF_MFUNCTION
	Return type = 0x1374, Class type = 0x1364, This type = 0x1372, 
	Call type = ThisCall, Func attr = none
	Parms = 1, Arg list type = 0x1048, This adjust = 0

0x1376 : Length = 10, Leaf = 0x1002 LF_POINTER
	L-value Reference (NEAR32), Size: 4
	Element type : 0x106D

0x1377 : Length = 26, Leaf = 0x1009 LF_MFUNCTION
	Return type = 0x1376, Class type = 0x1364, This type = 0x1365, 
	Call type = ThisCall, Func attr = none
	Parms = 1, Arg list type = 0x1048, This adjust = 0

0x1378 : Length = 18, Leaf = 0x1206 LF_METHODLIST
	list[0] = public, VANILLA, 0x1375, 
	list[1] = public, VANILLA, 0x1377, 

0x1379 : Length = 26, Leaf = 0x1009 LF_MFUNCTION
	Return type = 0x1374, Class type = 0x1364, This type = 0x1372, 
	Call type = ThisCall, Func attr = none
	Parms = 0, Arg list type = 0x1022, This adjust = 0

0x137a : Length = 26, Leaf = 0x1009 LF_MFUNCTION
	Return type = T_INT4(0074), Class type = 0x1364, This type = 0x1372, 
	Call type = ThisCall, Func attr = none
	Parms = 0, Arg list type = 0x1022, This adjust = 0

0x137b : Length = 26, Leaf = 0x1009 LF_MFUNCTION
	Return type = 0x136E, Class type = 0x1364, This type = 0x1365, 
	Call type = ThisCall, Func attr = none
	Parms = 0, Arg list type = 0x1022, This adjust = 0

0x137c : Length = 10, Leaf = 0x1002 LF_POINTER
	Pointer (NEAR32), Size: 4
	Element type : 0x122B

0x137d : Length = 26, Leaf = 0x1009 LF_MFUNCTION
	Return type = 0x137C, Class type = 0x1364, This type = 0x1372, 
	Call type = ThisCall, Func attr = none
	Parms = 0, Arg list type = 0x1022, This adjust = 0

0x137e : Length = 18, Leaf = 0x1206 LF_METHODLIST
	list[0] = public, VANILLA, 0x137B, 
	list[1] = public, VANILLA, 0x137D, 

0x137f : Length = 26, Leaf = 0x1009 LF_MFUNCTION
	Return type = T_VOID(0003), Class type = 0x1364, This type = 0x1365, 
	Call type = ThisCall, Func attr = none
	Parms = 1, Arg list type = 0x1368, This adjust = 0

0x1380 : Length = 14, Leaf = 0x1503 LF_ARRAY
	Element type = 0x106D
	Index type = T_ULONG(0022)
	length = 40
	Name = 

0x1381 : Length = 26, Leaf = 0x1009 LF_MFUNCTION
	Return type = T_VOID(0003), Class type = 0x1364, This type = 0x1365, 
	Call type = ThisCall, Func attr = none
	Parms = 1, Arg list type = 0x1046, This adjust = 0

0x1382 : Length = 26, Leaf = 0x1009 LF_MFUNCTION
	Return type = T_32PVOID(0403), Class type = 0x1364, This type = 0x1365, 
	Call type = ThisCall, Func attr = none
	Parms = 1, Arg list type = 0x1046, This adjust = 0

0x1383 : Length = 454, Leaf = 0x1203 LF_FIELDLIST
	list[0] = LF_METHOD, count = 2, list = 0x136B, name = 'DynArray<tinyxml2::XMLNode *,10>'
	list[1] = LF_ONEMETHOD, public, VANILLA, index = 0x136C, name = '~DynArray<tinyxml2::XMLNode *,10>'
	list[2] = LF_ONEMETHOD, public, VANILLA, index = 0x136C, name = 'Clear'
	list[3] = LF_ONEMETHOD, public, VANILLA, index = 0x136D, name = 'Push'
	list[4] = LF_ONEMETHOD, public, VANILLA, index = 0x136F, name = 'PushArr'
	list[5] = LF_ONEMETHOD, public, VANILLA, index = 0x1370, name = 'Pop'
	list[6] = LF_ONEMETHOD, public, VANILLA, index = 0x1371, name = 'PopArr'
	list[7] = LF_ONEMETHOD, public, VANILLA, index = 0x1373, name = 'Empty'
	list[8] = LF_METHOD, count = 2, list = 0x1378, name = 'operator[]'
	list[9] = LF_ONEMETHOD, public, VANILLA, index = 0x1379, name = 'PeekTop'
	list[10] = LF_ONEMETHOD, public, VANILLA, index = 0x137A, name = 'Size'
	list[11] = LF_ONEMETHOD, public, VANILLA, index = 0x137A, name = 'Capacity'
	list[12] = LF_ONEMETHOD, public, VANILLA, index = 0x1371, name = 'SwapRemove'
	list[13] = LF_METHOD, count = 2, list = 0x137E, name = 'Mem'
	list[14] = LF_ONEMETHOD, private, VANILLA, index = 0x137F, name = 'operator='
	list[15] = LF_ONEMETHOD, private, VANILLA, index = 0x1371, name = 'EnsureCapacity'
	list[16] = LF_MEMBER, private, type = 0x136E, offset = 0
		member name = '_mem'
	list[17] = LF_MEMBER, private, type = 0x1380, offset = 4
		member name = '_pool'
	list[18] = LF_MEMBER, private, type = T_INT4(0074), offset = 44
		member name = '_allocated'
	list[19] = LF_MEMBER, private, type = T_INT4(0074), offset = 48
		member name = '_size'
	list[20] = LF_ONEMETHOD, public, VANILLA, (compgenx), index = 0x1381, name = '__autoclassinit2'
	list[21] = LF_ONEMETHOD, public, VANILLA, (compgenx), index = 0x1382, name = '__vecDelDtor'

0x1384 : Length = 114, Leaf = 0x1504 LF_CLASS
	# members = 25,  field list type 0x1383, CONSTRUCTOR, OVERLOAD, OVERLOADED ASSIGNMENT, 
	Derivation list type 0x0000, VT shape type 0x0000
	Size = 52, class name = tinyxml2::DynArray<tinyxml2::XMLNode *,10>, unique name = .?AV?$DynArray@PAVXMLNode@tinyxml2@@$09@tinyxml2@@, UDT(0x00001384)

0x1385 : Length = 10, Leaf = 0x000a LF_VTSHAPE
	Number of entries : 9
		[0]: NEAR32
		[1]: NEAR32
		[2]: NEAR32
		[3]: NEAR32
		[4]: NEAR32
		[5]: NEAR32
		[6]: NEAR32
		[7]: NEAR32
		[8]: NEAR

0x1386 : Length = 10, Leaf = 0x1002 LF_POINTER
	Pointer (NEAR32), Size: 4
	Element type : 0x1385

0x1387 : Length = 10, Leaf = 0x1002 LF_POINTER
	const Pointer (NEAR32), Size: 4
	Element type : 0x1069

0x1388 : Length = 26, Leaf = 0x1009 LF_MFUNCTION
	Return type = T_VOID(0003), Class type = 0x1069, This type = 0x1387, 
	Call type = ThisCall, Func attr = none
	Parms = 0, Arg list type = 0x1022, This adjust = 0

0x1389 : Length = 26, Leaf = 0x1009 LF_MFUNCTION
	Return type = T_BOOL08(0030), Class type = 0x1069, This type = 0x1387, 
	Call type = ThisCall, Func attr = none
	Parms = 2, Arg list type = 0x10af, This adjust = 0

0x138a : Length = 26, Leaf = 0x1009 LF_MFUNCTION
	Return type = T_BOOL08(0030), Class type = 0x1069, This type = 0x1387, 
	Call type = ThisCall, Func attr = none
	Parms = 1, Arg list type = 0x10b3, This adjust = 0

0x138b : Length = 26, Leaf = 0x1206 LF_METHODLIST
	list[0] = public, INTRODUCING VIRTUAL, 0x1389,  vfptr offset = 4
	list[1] = public, INTRODUCING VIRTUAL, 0x138A,  vfptr offset = 8

0x138c : Length = 26, Leaf = 0x1009 LF_MFUNCTION
	Return type = T_BOOL08(0030), Class type = 0x1069, This type = 0x1387, 
	Call type = ThisCall, Func attr = none
	Parms = 1, Arg list type = 0x10b6, This adjust = 0

0x138d : Length = 26, Leaf = 0x1206 LF_METHODLIST
	list[0] = public, INTRODUCING VIRTUAL, 0x138C,  vfptr offset = 12
	list[1] = public, INTRODUCING VIRTUAL, 0x138A,  vfptr offset = 16

0x138e : Length = 26, Leaf = 0x1009 LF_MFUNCTION
	Return type = T_BOOL08(0030), Class type = 0x1069, This type = 0x1387, 
	Call type = ThisCall, Func attr = none
	Parms = 1, Arg list type = 0x1077, This adjust = 0

0x138f : Length = 26, Leaf = 0x1009 LF_MFUNCTION
	Return type = T_BOOL08(0030), Class type = 0x1069, This type = 0x1387, 
	Call type = ThisCall, Func attr = none
	Parms = 1, Arg list type = 0x10c2, This adjust = 0

0x1390 : Length = 26, Leaf = 0x1009 LF_MFUNCTION
	Return type = T_BOOL08(0030), Class type = 0x1069, This type = 0x1387, 
	Call type = ThisCall, Func attr = none
	Parms = 1, Arg list type = 0x10c7, This adjust = 0

0x1391 : Length = 26, Leaf = 0x1009 LF_MFUNCTION
	Return type = T_BOOL08(0030), Class type = 0x1069, This type = 0x1387, 
	Call type = ThisCall, Func attr = none
	Parms = 1, Arg list type = 0x10bd, This adjust = 0

0x1392 : Length = 50, Leaf = 0x1206 LF_METHODLIST
	list[0] = public, INTRODUCING VIRTUAL, 0x138E,  vfptr offset = 20
	list[1] = public, INTRODUCING VIRTUAL, 0x138F,  vfptr offset = 24
	list[2] = public, INTRODUCING VIRTUAL, 0x1390,  vfptr offset = 28
	list[3] = public, INTRODUCING VIRTUAL, 0x1391,  vfptr offset = 32

0x1393 : Length = 10, Leaf = 0x1001 LF_MODIFIER
	const, modifies type 0x1069

0x1394 : Length = 10, Leaf = 0x1002 LF_POINTER
	L-value Reference (NEAR32), Size: 4
	Element type : 0x1393

0x1395 : Length = 10, Leaf = 0x1201 LF_ARGLIST argument count = 1
	list[0] = 0x1394

0x1396 : Length = 26, Leaf = 0x1009 LF_MFUNCTION
	Return type = T_VOID(0003), Class type = 0x1069, This type = 0x1387, 
	Call type = ThisCall, Func attr = instance constructor
	Parms = 1, Arg list type = 0x1395, This adjust = 0

0x1397 : Length = 26, Leaf = 0x1009 LF_MFUNCTION
	Return type = T_VOID(0003), Class type = 0x1069, This type = 0x1387, 
	Call type = ThisCall, Func attr = instance constructor
	Parms = 0, Arg list type = 0x1022, This adjust = 0

0x1398 : Length = 18, Leaf = 0x1206 LF_METHODLIST
	list[0] = public, VANILLA, (compgenx), 0x1396, 
	list[1] = public, VANILLA, (compgenx), 0x1397, 

0x1399 : Length = 10, Leaf = 0x1002 LF_POINTER
	L-value Reference (NEAR32), Size: 4
	Element type : 0x1069

0x139a : Length = 26, Leaf = 0x1009 LF_MFUNCTION
	Return type = 0x1399, Class type = 0x1069, This type = 0x1387, 
	Call type = ThisCall, Func attr = none
	Parms = 1, Arg list type = 0x1395, This adjust = 0

0x139b : Length = 26, Leaf = 0x1009 LF_MFUNCTION
	Return type = T_32PVOID(0403), Class type = 0x1069, This type = 0x1387, 
	Call type = ThisCall, Func attr = none
	Parms = 1, Arg list type = 0x1046, This adjust = 0

0x139c : Length = 198, Leaf = 0x1203 LF_FIELDLIST
	list[0] = LF_VFUNCTAB, type = 0x1386
	list[1] = LF_ONEMETHOD, public, INTRODUCING VIRTUAL, index = 0x1388, 
		vfptr offset = 0, name = '~XMLVisitor'
	list[2] = LF_METHOD, count = 2, list = 0x138B, name = 'VisitEnter'
	list[3] = LF_METHOD, count = 2, list = 0x138D, name = 'VisitExit'
	list[4] = LF_METHOD, count = 4, list = 0x1392, name = 'Visit'
	list[5] = LF_METHOD, count = 2, list = 0x1398, name = 'XMLVisitor'
	list[6] = LF_ONEMETHOD, public, VANILLA, (compgenx), index = 0x139A, name = 'operator='
	list[7] = LF_ONEMETHOD, public, VANILLA, (compgenx), index = 0x1388, name = '__local_vftable_ctor_closure'
	list[8] = LF_ONEMETHOD, public, INTRODUCING VIRTUAL, (compgenx), index = 0x139B, 
		vfptr offset = 0, name = '__vecDelDtor'

0x139d : Length = 70, Leaf = 0x1504 LF_CLASS
	# members = 15,  field list type 0x139c, CONSTRUCTOR, OVERLOAD, OVERLOADED ASSIGNMENT, 
	Derivation list type 0x0000, VT shape type 0x1385
	Size = 4, class name = tinyxml2::XMLVisitor, unique name = .?AVXMLVisitor@tinyxml2@@, UDT(0x0000139d)

0x139e : Length = 10, Leaf = 0x1002 LF_POINTER
	const Pointer (NEAR32), Size: 4
	Element type : 0x106E

0x139f : Length = 26, Leaf = 0x1009 LF_MFUNCTION
	Return type = T_VOID(0003), Class type = 0x106E, This type = 0x139E, 
	Call type = ThisCall, Func attr = instance constructor
	Parms = 1, Arg list type = 0x10b3, This adjust = 0

0x13a0 : Length = 14, Leaf = 0x1201 LF_ARGLIST argument count = 2
	list[0] = T_BOOL08(0030)
	list[1] = 0x1003

0x13a1 : Length = 26, Leaf = 0x1009 LF_MFUNCTION
	Return type = T_VOID(0003), Class type = 0x106E, This type = 0x139E, 
	Call type = ThisCall, Func attr = instance constructor
	Parms = 2, Arg list type = 0x13a0, This adjust = 0

0x13a2 : Length = 18, Leaf = 0x1206 LF_METHODLIST
	list[0] = private, VANILLA, 0x139F, 
	list[1] = public, VANILLA, 0x13A1, 

0x13a3 : Length = 26, Leaf = 0x1009 LF_MFUNCTION
	Return type = T_VOID(0003), Class type = 0x106E, This type = 0x139E, 
	Call type = ThisCall, Func attr = none
	Parms = 0, Arg list type = 0x1022, This adjust = 0

0x13a4 : Length = 10, Leaf = 0x1002 LF_POINTER
	const Pointer (NEAR32), Size: 4
	Element type : 0x10B1

0x13a5 : Length = 26, Leaf = 0x1009 LF_MFUNCTION
	Return type = 0x122D, Class type = 0x106E, This type = 0x13A4, 
	Call type = ThisCall, Func attr = none
	Parms = 0, Arg list type = 0x1022, This adjust = 0

0x13a6 : Length = 26, Leaf = 0x1009 LF_MFUNCTION
	Return type = 0x106F, Class type = 0x106E, This type = 0x139E, 
	Call type = ThisCall, Func attr = none
	Parms = 0, Arg list type = 0x1022, This adjust = 0

0x13a7 : Length = 18, Leaf = 0x1206 LF_METHODLIST
	list[0] = public, VIRTUAL, 0x13A5, 
	list[1] = public, VIRTUAL, 0x13A6, 

0x13a8 : Length = 26, Leaf = 0x1009 LF_MFUNCTION
	Return type = 0x1015, Class type = 0x106E, This type = 0x139E, 
	Call type = ThisCall, Func attr = none
	Parms = 2, Arg list type = 0x109c, This adjust = 0

0x13a9 : Length = 18, Leaf = 0x1206 LF_METHODLIST
	list[0] = private, VANILLA, 0x13A3, 
	list[1] = public, VANILLA, 0x13A8, 

0x13aa : Length = 10, Leaf = 0x1201 LF_ARGLIST argument count = 1
	list[0] = 0x108D

0x13ab : Length = 26, Leaf = 0x1009 LF_MFUNCTION
	Return type = 0x1015, Class type = 0x106E, This type = 0x139E, 
	Call type = ThisCall, Func attr = none
	Parms = 1, Arg list type = 0x13aa, This adjust = 0

0x13ac : Length = 26, Leaf = 0x1009 LF_MFUNCTION
	Return type = 0x1015, Class type = 0x106E, This type = 0x139E, 
	Call type = ThisCall, Func attr = none
	Parms = 1, Arg list type = 0x104a, This adjust = 0

0x13ad : Length = 18, Leaf = 0x1206 LF_METHODLIST
	list[0] = public, VANILLA, 0x13AB, 
	list[1] = public, VANILLA, 0x13AC, 

0x13ae : Length = 14, Leaf = 0x1201 LF_ARGLIST argument count = 2
	list[0] = 0x108D
	list[1] = T_BOOL08(0030)

0x13af : Length = 26, Leaf = 0x1009 LF_MFUNCTION
	Return type = 0x1015, Class type = 0x106E, This type = 0x139E, 
	Call type = ThisCall, Func attr = none
	Parms = 2, Arg list type = 0x13ae, This adjust = 0

0x13b0 : Length = 26, Leaf = 0x1009 LF_MFUNCTION
	Return type = 0x1015, Class type = 0x106E, This type = 0x139E, 
	Call type = ThisCall, Func attr = none
	Parms = 2, Arg list type = 0x1094, This adjust = 0

0x13b1 : Length = 18, Leaf = 0x1206 LF_METHODLIST
	list[0] = public, VANILLA, 0x13AF, 
	list[1] = public, VANILLA, 0x13B0, 

0x13b2 : Length = 26, Leaf = 0x1009 LF_MFUNCTION
	Return type = T_BOOL08(0030), Class type = 0x106E, This type = 0x13A4, 
	Call type = ThisCall, Func attr = none
	Parms = 0, Arg list type = 0x1022, This adjust = 0

0x13b3 : Length = 26, Leaf = 0x1009 LF_MFUNCTION
	Return type = 0x1003, Class type = 0x106E, This type = 0x13A4, 
	Call type = ThisCall, Func attr = none
	Parms = 0, Arg list type = 0x1022, This adjust = 0

0x13b4 : Length = 26, Leaf = 0x1009 LF_MFUNCTION
	Return type = T_VOID(0003), Class type = 0x106E, This type = 0x139E, 
	Call type = ThisCall, Func attr = none
	Parms = 1, Arg list type = 0x1040, This adjust = 0

0x13b5 : Length = 26, Leaf = 0x1009 LF_MFUNCTION
	Return type = 0x1168, Class type = 0x106E, This type = 0x13A4, 
	Call type = ThisCall, Func attr = none
	Parms = 0, Arg list type = 0x1022, This adjust = 0

0x13b6 : Length = 26, Leaf = 0x1009 LF_MFUNCTION
	Return type = 0x1232, Class type = 0x106E, This type = 0x139E, 
	Call type = ThisCall, Func attr = none
	Parms = 0, Arg list type = 0x1022, This adjust = 0

0x13b7 : Length = 18, Leaf = 0x1206 LF_METHODLIST
	list[0] = public, VANILLA, 0x13B5, 
	list[1] = public, VANILLA, 0x13B6, 

0x13b8 : Length = 10, Leaf = 0x1002 LF_POINTER
	Pointer (NEAR32), Size: 4
	Element type : 0x1086

0x13b9 : Length = 10, Leaf = 0x1201 LF_ARGLIST argument count = 1
	list[0] = 0x13B8

0x13ba : Length = 26, Leaf = 0x1009 LF_MFUNCTION
	Return type = T_VOID(0003), Class type = 0x106E, This type = 0x13A4, 
	Call type = ThisCall, Func attr = none
	Parms = 1, Arg list type = 0x13b9, This adjust = 0

0x13bb : Length = 26, Leaf = 0x1009 LF_MFUNCTION
	Return type = T_BOOL08(0030), Class type = 0x106E, This type = 0x13A4, 
	Call type = ThisCall, Func attr = none
	Parms = 1, Arg list type = 0x106b, This adjust = 0

0x13bc : Length = 26, Leaf = 0x1009 LF_MFUNCTION
	Return type = 0x1232, Class type = 0x106E, This type = 0x139E, 
	Call type = ThisCall, Func attr = none
	Parms = 1, Arg list type = 0x104a, This adjust = 0

0x13bd : Length = 26, Leaf = 0x1009 LF_MFUNCTION
	Return type = 0x10E0, Class type = 0x106E, This type = 0x139E, 
	Call type = ThisCall, Func attr = none
	Parms = 1, Arg list type = 0x104a, This adjust = 0

0x13be : Length = 26, Leaf = 0x1009 LF_MFUNCTION
	Return type = 0x1236, Class type = 0x106E, This type = 0x139E, 
	Call type = ThisCall, Func attr = none
	Parms = 1, Arg list type = 0x104a, This adjust = 0

0x13bf : Length = 26, Leaf = 0x1009 LF_MFUNCTION
	Return type = 0x123E, Class type = 0x106E, This type = 0x139E, 
	Call type = ThisCall, Func attr = none
	Parms = 1, Arg list type = 0x104a, This adjust = 0

0x13c0 : Length = 26, Leaf = 0x1009 LF_MFUNCTION
	Return type = 0x1065, Class type = 0x106E, This type = 0x139E, 
	Call type = ThisCall, Func attr = none
	Parms = 1, Arg list type = 0x104a, This adjust = 0

0x13c1 : Length = 26, Leaf = 0x1009 LF_MFUNCTION
	Return type = T_VOID(0003), Class type = 0x106E, This type = 0x139E, 
	Call type = ThisCall, Func attr = none
	Parms = 1, Arg list type = 0x124e, This adjust = 0

0x13c2 : Length = 26, Leaf = 0x1009 LF_MFUNCTION
	Return type = 0x1015, Class type = 0x106E, This type = 0x13A4, 
	Call type = ThisCall, Func attr = none
	Parms = 0, Arg list type = 0x1022, This adjust = 0

0x13c3 : Length = 26, Leaf = 0x1009 LF_MFUNCTION
	Return type = 0x101E, Class type = 0x106E, This type = 0x13A4, 
	Call type = ThisCall, Func attr = none
	Parms = 0, Arg list type = 0x1022, This adjust = 0

0x13c4 : Length = 10, Leaf = 0x1201 LF_ARGLIST argument count = 1
	list[0] = 0x1015

0x13c5 : Length = 26, Leaf = 0x1009 LF_MFUNCTION
	Return type = 0x101E, Class type = 0x106E, This type = T_NOTYPE(0000), 
	Call type = C Near, Func attr = none
	Parms = 1, Arg list type = 0x13c4, This adjust = 0

0x13c6 : Length = 26, Leaf = 0x1009 LF_MFUNCTION
	Return type = T_VOID(0003), Class type = 0x106E, This type = 0x13A4, 
	Call type = ThisCall, Func attr = none
	Parms = 0, Arg list type = 0x1022, This adjust = 0

0x13c7 : Length = 26, Leaf = 0x1009 LF_MFUNCTION
	Return type = T_INT4(0074), Class type = 0x106E, This type = 0x13A4, 
	Call type = ThisCall, Func attr = none
	Parms = 0, Arg list type = 0x1022, This adjust = 0

0x13c8 : Length = 26, Leaf = 0x1009 LF_MFUNCTION
	Return type = T_VOID(0003), Class type = 0x106E, This type = 0x13A4, 
	Call type = ThisCall, Func attr = none
	Parms = 1, Arg list type = 0x1070, This adjust = 0

0x13c9 : Length = 14, Leaf = 0x1201 LF_ARGLIST argument count = 2
	list[0] = T_32PRCHAR(0470)
	list[1] = 0x136E

0x13ca : Length = 26, Leaf = 0x1009 LF_MFUNCTION
	Return type = T_32PRCHAR(0470), Class type = 0x106E, This type = 0x139E, 
	Call type = ThisCall, Func attr = none
	Parms = 2, Arg list type = 0x13c9, This adjust = 0

0x13cb : Length = 10, Leaf = 0x1201 LF_ARGLIST argument count = 1
	list[0] = 0x122E

0x13cc : Length = 26, Leaf = 0x1009 LF_MFUNCTION
	Return type = T_VOID(0003), Class type = 0x106E, This type = 0x139E, 
	Call type = ThisCall, Func attr = none
	Parms = 1, Arg list type = 0x13cb, This adjust = 0

0x13cd : Length = 26, Leaf = 0x1009 LF_MFUNCTION
	Return type = 0x106D, Class type = 0x106E, This type = 0x13A4, 
	Call type = ThisCall, Func attr = none
	Parms = 1, Arg list type = 0x1070, This adjust = 0

0x13ce : Length = 26, Leaf = 0x1009 LF_MFUNCTION
	Return type = T_BOOL08(0030), Class type = 0x106E, This type = 0x13A4, 
	Call type = ThisCall, Func attr = none
	Parms = 1, Arg list type = 0x1074, This adjust = 0

0x13cf : Length = 26, Leaf = 0x1009 LF_MFUNCTION
	Return type = T_VOID(0003), Class type = 0x106E, This type = 0x139E, 
	Call type = ThisCall, Func attr = none
	Parms = 1, Arg list type = 0x10b3, This adjust = 0

0x13d0 : Length = 14, Leaf = 0x1503 LF_ARRAY
	Element type = 0x101E
	Index type = T_ULONG(0022)
	length = 76
	Name = 

0x13d1 : Length = 22, Leaf = 0x1201 LF_ARGLIST argument count = 4
	list[0] = 0x1015
	list[1] = T_INT4(0074)
	list[2] = 0x101E
	list[3] = T_NOTYPE(0000)

0x13d2 : Length = 26, Leaf = 0x1009 LF_MFUNCTION
	Return type = T_VOID(0003), Class type = 0x106E, This type = 0x139E, 
	Call type = C Near, Func attr = none
	Parms = 4, Arg list type = 0x13d1, This adjust = 0

0x13d3 : Length = 98, Leaf = 0x1504 LF_CLASS
	# members = 0,  field list type 0x0000, NESTED, FORWARD REF, 
	Derivation list type 0x0000, VT shape type 0x0000
	Size = 0, class name = tinyxml2::XMLDocument::DepthTracker, unique name = .?AVDepthTracker@XMLDocument@tinyxml2@@, UDT(0x000013de)

0x13d4 : Length = 26, Leaf = 0x1009 LF_MFUNCTION
	Return type = T_VOID(0003), Class type = 0x106E, This type = 0x139E, 
	Call type = ThisCall, Func attr = none
	Parms = 1, Arg list type = 0x1046, This adjust = 0

0x13d5 : Length = 26, Leaf = 0x1009 LF_MFUNCTION
	Return type = T_32PVOID(0403), Class type = 0x106E, This type = 0x139E, 
	Call type = ThisCall, Func attr = none
	Parms = 1, Arg list type = 0x1046, This adjust = 0

0x13d6 : Length = 1250, Leaf = 0x1203 LF_FIELDLIST
	list[0] = LF_BCLASS, public, type = 0x105F, offset = 0
	list[1] = LF_METHOD, count = 2, list = 0x13A2, name = 'XMLDocument'
	list[2] = LF_ONEMETHOD, public, VIRTUAL, index = 0x13A3, name = '~XMLDocument'
	list[3] = LF_METHOD, count = 2, list = 0x13A7, name = 'ToDocument'
	list[4] = LF_METHOD, count = 2, list = 0x13A9, name = 'Parse'
	list[5] = LF_METHOD, count = 2, list = 0x13AD, name = 'LoadFile'
	list[6] = LF_METHOD, count = 2, list = 0x13B1, name = 'SaveFile'
	list[7] = LF_ONEMETHOD, public, VANILLA, index = 0x13B2, name = 'ProcessEntities'
	list[8] = LF_ONEMETHOD, public, VANILLA, index = 0x13B3, name = 'WhitespaceMode'
	list[9] = LF_ONEMETHOD, public, VANILLA, index = 0x13B2, name = 'HasBOM'
	list[10] = LF_ONEMETHOD, public, VANILLA, index = 0x13B4, name = 'SetBOM'
	list[11] = LF_METHOD, count = 2, list = 0x13B7, name = 'RootElement'
	list[12] = LF_ONEMETHOD, public, VANILLA, index = 0x13BA, name = 'Print'
	list[13] = LF_ONEMETHOD, public, VIRTUAL, index = 0x13BB, name = 'Accept'
	list[14] = LF_ONEMETHOD, public, VANILLA, index = 0x13BC, name = 'NewElement'
	list[15] = LF_ONEMETHOD, public, VANILLA, index = 0x13BD, name = 'NewComment'
	list[16] = LF_ONEMETHOD, public, VANILLA, index = 0x13BE, name = 'NewText'
	list[17] = LF_ONEMETHOD, public, VANILLA, index = 0x13BF, name = 'NewDeclaration'
	list[18] = LF_ONEMETHOD, public, VANILLA, index = 0x13C0, name = 'NewUnknown'
	list[19] = LF_ONEMETHOD, public, VANILLA, index = 0x13C1, name = 'DeleteNode'
	list[20] = LF_ONEMETHOD, public, VANILLA, index = 0x13A3, name = 'ClearError'
	list[21] = LF_ONEMETHOD, public, VANILLA, index = 0x13B2, name = 'Error'
	list[22] = LF_ONEMETHOD, public, VANILLA, index = 0x13C2, name = 'ErrorID'
	list[23] = LF_ONEMETHOD, public, VANILLA, index = 0x13C3, name = 'ErrorName'
	list[24] = LF_ONEMETHOD, public, STATIC, index = 0x13C5, name = 'ErrorIDToName'
	list[25] = LF_ONEMETHOD, public, VANILLA, index = 0x13C3, name = 'ErrorStr'
	list[26] = LF_ONEMETHOD, public, VANILLA, index = 0x13C6, name = 'PrintError'
	list[27] = LF_ONEMETHOD, public, VANILLA, index = 0x13C7, name = 'ErrorLineNum'
	list[28] = LF_ONEMETHOD, public, VANILLA, index = 0x13A3, name = 'Clear'
	list[29] = LF_ONEMETHOD, public, VANILLA, index = 0x13C8, name = 'DeepCopy'
	list[30] = LF_ONEMETHOD, public, VANILLA, index = 0x13CA, name = 'Identify'
	list[31] = LF_ONEMETHOD, public, VANILLA, index = 0x13CC, name = 'MarkInUse'
	list[32] = LF_ONEMETHOD, public, VIRTUAL, index = 0x13CD, name = 'ShallowClone'
	list[33] = LF_ONEMETHOD, public, VIRTUAL, index = 0x13CE, name = 'ShallowEqual'
	list[34] = LF_ONEMETHOD, private, VANILLA, index = 0x13CF, name = 'operator='
	list[35] = LF_MEMBER, private, type = T_BOOL08(0030), offset = 52
		member name = '_writeBOM'
	list[36] = LF_MEMBER, private, type = T_BOOL08(0030), offset = 53
		member name = '_processEntities'
	list[37] = LF_MEMBER, private, type = 0x1015, offset = 56
		member name = '_errorID'
	list[38] = LF_MEMBER, private, type = 0x1003, offset = 60
		member name = '_whitespaceMode'
	list[39] = LF_MEMBER, private, type = 0x1058, offset = 64
		member name = '_errorStr'
	list[40] = LF_MEMBER, private, type = T_INT4(0074), offset = 76
		member name = '_errorLineNum'
	list[41] = LF_MEMBER, private, type = T_32PRCHAR(0470), offset = 80
		member name = '_charBuffer'
	list[42] = LF_MEMBER, private, type = T_INT4(0074), offset = 84
		member name = '_parseCurLineNum'
	list[43] = LF_MEMBER, private, type = T_INT4(0074), offset = 88
		member name = '_parsingDepth'
	list[44] = LF_MEMBER, private, type = 0x1364, offset = 92
		member name = '_unlinked'
	list[45] = LF_MEMBER, private, type = 0x12AE, offset = 144
		member name = '_elementPool'
	list[46] = LF_MEMBER, private, type = 0x11FB, offset = 220
		member name = '_attributePool'
	list[47] = LF_MEMBER, private, type = 0x1111, offset = 296
		member name = '_textPool'
	list[48] = LF_MEMBER, private, type = 0x12CB, offset = 372
		member name = '_commentPool'
	list[49] = LF_STATICMEMBER, private, type = 0x13D0		member name = '_errorNames'
	list[50] = LF_ONEMETHOD, private, VANILLA, index = 0x13D2, name = 'SetError'
	list[51] = LF_NESTTYPE, type = 0x13D3, DepthTracker
	list[52] = LF_ONEMETHOD, private, VANILLA, index = 0x13A3, name = 'PushDepth'
	list[53] = LF_ONEMETHOD, private, VANILLA, index = 0x13A3, name = 'PopDepth'
	list[54] = LF_ONEMETHOD, public, VANILLA, (compgenx), index = 0x13D4, name = '__autoclassinit2'
	list[55] = LF_ONEMETHOD, public, VANILLA, (compgenx), index = 0x13A3, name = '__dflt_ctor_closure'
	list[56] = LF_ONEMETHOD, public, VANILLA, (compgenx), index = 0x13A3, name = '__local_vftable_ctor_closure'
	list[57] = LF_ONEMETHOD, public, INTRODUCING VIRTUAL, (compgenx), index = 0x13D5, 
		vfptr offset = 60, name = '__vecDelDtor'

0x13d7 : Length = 70, Leaf = 0x1504 LF_CLASS
	# members = 64,  field list type 0x13d6, CONSTRUCTOR, OVERLOAD, CONTAINS NESTED, OVERLOADED ASSIGNMENT, 
	Derivation list type 0x0000, VT shape type 0x1084
	Size = 448, class name = tinyxml2::XMLDocument, unique name = .?AVXMLDocument@tinyxml2@@, UDT(0x000013d7)

0x13d8 : Length = 10, Leaf = 0x1002 LF_POINTER
	const Pointer (NEAR32), Size: 4
	Element type : 0x13D3

0x13d9 : Length = 26, Leaf = 0x1009 LF_MFUNCTION
	Return type = T_VOID(0003), Class type = 0x13D3, This type = 0x13D8, 
	Call type = ThisCall, Func attr = instance constructor
	Parms = 1, Arg list type = 0x1070, This adjust = 0

0x13da : Length = 26, Leaf = 0x1009 LF_MFUNCTION
	Return type = T_VOID(0003), Class type = 0x13D3, This type = 0x13D8, 
	Call type = ThisCall, Func attr = none
	Parms = 0, Arg list type = 0x1022, This adjust = 0

0x13db : Length = 26, Leaf = 0x1009 LF_MFUNCTION
	Return type = T_VOID(0003), Class type = 0x13D3, This type = 0x13D8, 
	Call type = ThisCall, Func attr = none
	Parms = 1, Arg list type = 0x1046, This adjust = 0

0x13dc : Length = 26, Leaf = 0x1009 LF_MFUNCTION
	Return type = T_32PVOID(0403), Class type = 0x13D3, This type = 0x13D8, 
	Call type = ThisCall, Func attr = none
	Parms = 1, Arg list type = 0x1046, This adjust = 0

0x13dd : Length = 122, Leaf = 0x1203 LF_FIELDLIST
	list[0] = LF_ONEMETHOD, public, VANILLA, index = 0x13D9, name = 'DepthTracker'
	list[1] = LF_ONEMETHOD, public, VANILLA, index = 0x13DA, name = '~DepthTracker'
	list[2] = LF_MEMBER, private, type = 0x106F, offset = 0
		member name = '_document'
	list[3] = LF_ONEMETHOD, public, VANILLA, (compgenx), index = 0x13DB, name = '__autoclassinit2'
	list[4] = LF_ONEMETHOD, public, VANILLA, (compgenx), index = 0x13DC, name = '__vecDelDtor'

0x13de : Length = 98, Leaf = 0x1504 LF_CLASS
	# members = 5,  field list type 0x13dd, CONSTRUCTOR, NESTED, 
	Derivation list type 0x0000, VT shape type 0x0000
	Size = 4, class name = tinyxml2::XMLDocument::DepthTracker, unique name = .?AVDepthTracker@XMLDocument@tinyxml2@@, UDT(0x000013de)

0x13df : Length = 66, Leaf = 0x1504 LF_CLASS
	# members = 0,  field list type 0x0000, FORWARD REF, 
	Derivation list type 0x0000, VT shape type 0x0000
	Size = 0, class name = tinyxml2::XMLHandle, unique name = .?AVXMLHandle@tinyxml2@@, UDT(0x000013f4)

0x13e0 : Length = 10, Leaf = 0x1002 LF_POINTER
	const Pointer (NEAR32), Size: 4
	Element type : 0x13DF

0x13e1 : Length = 10, Leaf = 0x1001 LF_MODIFIER
	const, modifies type 0x13DF

0x13e2 : Length = 10, Leaf = 0x1002 LF_POINTER
	L-value Reference (NEAR32), Size: 4
	Element type : 0x13E1

0x13e3 : Length = 10, Leaf = 0x1201 LF_ARGLIST argument count = 1
	list[0] = 0x13E2

0x13e4 : Length = 26, Leaf = 0x1009 LF_MFUNCTION
	Return type = T_VOID(0003), Class type = 0x13DF, This type = 0x13E0, 
	Call type = ThisCall, Func attr = instance constructor
	Parms = 1, Arg list type = 0x13e3, This adjust = 0

0x13e5 : Length = 10, Leaf = 0x1201 LF_ARGLIST argument count = 1
	list[0] = 0x125F

0x13e6 : Length = 26, Leaf = 0x1009 LF_MFUNCTION
	Return type = T_VOID(0003), Class type = 0x13DF, This type = 0x13E0, 
	Call type = ThisCall, Func attr = instance constructor
	Parms = 1, Arg list type = 0x13e5, This adjust = 0

0x13e7 : Length = 26, Leaf = 0x1009 LF_MFUNCTION
	Return type = T_VOID(0003), Class type = 0x13DF, This type = 0x13E0, 
	Call type = ThisCall, Func attr = instance constructor
	Parms = 1, Arg list type = 0x124e, This adjust = 0

0x13e8 : Length = 26, Leaf = 0x1206 LF_METHODLIST
	list[0] = public, VANILLA, 0x13E4, 
	list[1] = public, VANILLA, 0x13E6, 
	list[2] = public, VANILLA, 0x13E7, 

0x13e9 : Length = 10, Leaf = 0x1002 LF_POINTER
	L-value Reference (NEAR32), Size: 4
	Element type : 0x13DF

0x13ea : Length = 26, Leaf = 0x1009 LF_MFUNCTION
	Return type = 0x13E9, Class type = 0x13DF, This type = 0x13E0, 
	Call type = ThisCall, Func attr = none
	Parms = 1, Arg list type = 0x13e3, This adjust = 0

0x13eb : Length = 26, Leaf = 0x1009 LF_MFUNCTION
	Return type = 0x13DF, Class type = 0x13DF, This type = 0x13E0, 
	Call type = ThisCall, Func attr = return UDT (C++ style)
	Parms = 0, Arg list type = 0x1022, This adjust = 0

0x13ec : Length = 26, Leaf = 0x1009 LF_MFUNCTION
	Return type = 0x13DF, Class type = 0x13DF, This type = 0x13E0, 
	Call type = ThisCall, Func attr = return UDT (C++ style)
	Parms = 1, Arg list type = 0x104a, This adjust = 0

0x13ed : Length = 26, Leaf = 0x1009 LF_MFUNCTION
	Return type = 0x106D, Class type = 0x13DF, This type = 0x13E0, 
	Call type = ThisCall, Func attr = none
	Parms = 0, Arg list type = 0x1022, This adjust = 0

0x13ee : Length = 26, Leaf = 0x1009 LF_MFUNCTION
	Return type = 0x1232, Class type = 0x13DF, This type = 0x13E0, 
	Call type = ThisCall, Func attr = none
	Parms = 0, Arg list type = 0x1022, This adjust = 0

0x13ef : Length = 26, Leaf = 0x1009 LF_MFUNCTION
	Return type = 0x1236, Class type = 0x13DF, This type = 0x13E0, 
	Call type = ThisCall, Func attr = none
	Parms = 0, Arg list type = 0x1022, This adjust = 0

0x13f0 : Length = 26, Leaf = 0x1009 LF_MFUNCTION
	Return type = 0x1065, Class type = 0x13DF, This type = 0x13E0, 
	Call type = ThisCall, Func attr = none
	Parms = 0, Arg list type = 0x1022, This adjust = 0

0x13f1 : Length = 26, Leaf = 0x1009 LF_MFUNCTION
	Return type = 0x123E, Class type = 0x13DF, This type = 0x13E0, 
	Call type = ThisCall, Func attr = none
	Parms = 0, Arg list type = 0x1022, This adjust = 0

0x13f2 : Length = 26, Leaf = 0x1009 LF_MFUNCTION
	Return type = T_VOID(0003), Class type = 0x13DF, This type = 0x13E0, 
	Call type = ThisCall, Func attr = none
	Parms = 1, Arg list type = 0x1046, This adjust = 0

0x13f3 : Length = 382, Leaf = 0x1203 LF_FIELDLIST
	list[0] = LF_METHOD, count = 3, list = 0x13E8, name = 'XMLHandle'
	list[1] = LF_ONEMETHOD, public, VANILLA, index = 0x13EA, name = 'operator='
	list[2] = LF_ONEMETHOD, public, VANILLA, index = 0x13EB, name = 'FirstChild'
	list[3] = LF_ONEMETHOD, public, VANILLA, index = 0x13EC, name = 'FirstChildElement'
	list[4] = LF_ONEMETHOD, public, VANILLA, index = 0x13EB, name = 'LastChild'
	list[5] = LF_ONEMETHOD, public, VANILLA, index = 0x13EC, name = 'LastChildElement'
	list[6] = LF_ONEMETHOD, public, VANILLA, index = 0x13EB, name = 'PreviousSibling'
	list[7] = LF_ONEMETHOD, public, VANILLA, index = 0x13EC, name = 'PreviousSiblingElement'
	list[8] = LF_ONEMETHOD, public, VANILLA, index = 0x13EB, name = 'NextSibling'
	list[9] = LF_ONEMETHOD, public, VANILLA, index = 0x13EC, name = 'NextSiblingElement'
	list[10] = LF_ONEMETHOD, public, VANILLA, index = 0x13ED, name = 'ToNode'
	list[11] = LF_ONEMETHOD, public, VANILLA, index = 0x13EE, name = 'ToElement'
	list[12] = LF_ONEMETHOD, public, VANILLA, index = 0x13EF, name = 'ToText'
	list[13] = LF_ONEMETHOD, public, VANILLA, index = 0x13F0, name = 'ToUnknown'
	list[14] = LF_ONEMETHOD, public, VANILLA, index = 0x13F1, name = 'ToDeclaration'
	list[15] = LF_MEMBER, private, type = 0x106D, offset = 0
		member name = '_node'
	list[16] = LF_ONEMETHOD, public, VANILLA, (compgenx), index = 0x13F2, name = '__autoclassinit2'

0x13f4 : Length = 66, Leaf = 0x1504 LF_CLASS
	# members = 19,  field list type 0x13f3, CONSTRUCTOR, OVERLOAD, OVERLOADED ASSIGNMENT, 
	Derivation list type 0x0000, VT shape type 0x0000
	Size = 4, class name = tinyxml2::XMLHandle, unique name = .?AVXMLHandle@tinyxml2@@, UDT(0x000013f4)

0x13f5 : Length = 70, Leaf = 0x1505 LF_STRUCTURE
	# members = 0,  field list type 0x0000, FORWARD REF, 
	Derivation list type 0x0000, VT shape type 0x0000
	Size = 0, class name = __crt_locale_pointers, unique name = .?AU__crt_locale_pointers@@, UDT(0x00001400)

0x13f6 : Length = 10, Leaf = 0x1002 LF_POINTER
	Pointer (NEAR32), Size: 4
	Element type : 0x13F5

0x13f7 : Length = 34, Leaf = 0x1203 LF_FIELDLIST
	list[0] = LF_MEMBER, public, type = T_LONG(0012), offset = 0
		member name = 'quot'
	list[1] = LF_MEMBER, public, type = T_LONG(0012), offset = 4
		member name = 'rem'

0x13f8 : Length = 42, Leaf = 0x1505 LF_STRUCTURE
	# members = 2,  field list type 0x13f7, 
	Derivation list type 0x0000, VT shape type 0x0000
	Size = 8, class name = _ldiv_t, unique name = .?AU_ldiv_t@@, UDT(0x000013f8)

0x13f9 : Length = 26, Leaf = 0x1203 LF_FIELDLIST
	list[0] = LF_MEMBER, public, type = T_32PVOID(0403), offset = 0
		member name = '_Placeholder'

0x13fa : Length = 42, Leaf = 0x1505 LF_STRUCTURE
	# members = 1,  field list type 0x13f9, 
	Derivation list type 0x0000, VT shape type 0x0000
	Size = 4, class name = _iobuf, unique name = .?AU_iobuf@@, UDT(0x000013fa)

0x13fb : Length = 62, Leaf = 0x1505 LF_STRUCTURE
	# members = 0,  field list type 0x0000, FORWARD REF, 
	Derivation list type 0x0000, VT shape type 0x0000
	Size = 0, class name = __crt_locale_data, unique name = .?AU__crt_locale_data@@

0x13fc : Length = 10, Leaf = 0x1002 LF_POINTER
	Pointer (NEAR32), Size: 4
	Element type : 0x13FB

0x13fd : Length = 70, Leaf = 0x1505 LF_STRUCTURE
	# members = 0,  field list type 0x0000, FORWARD REF, 
	Derivation list type 0x0000, VT shape type 0x0000
	Size = 0, class name = __crt_multibyte_data, unique name = .?AU__crt_multibyte_data@@

0x13fe : Length = 10, Leaf = 0x1002 LF_POINTER
	Pointer (NEAR32), Size: 4
	Element type : 0x13FD

0x13ff : Length = 42, Leaf = 0x1203 LF_FIELDLIST
	list[0] = LF_MEMBER, public, type = 0x13FC, offset = 0
		member name = 'locinfo'
	list[1] = LF_MEMBER, public, type = 0x13FE, offset = 4
		member name = 'mbcinfo'

0x1400 : Length = 70, Leaf = 0x1505 LF_STRUCTURE
	# members = 2,  field list type 0x13ff, 
	Derivation list type 0x0000, VT shape type 0x0000
	Size = 8, class name = __crt_locale_pointers, unique name = .?AU__crt_locale_pointers@@, UDT(0x00001400)

0x1401 : Length = 22, Leaf = 0x1201 LF_ARGLIST argument count = 4
	list[0] = 0x101E
	list[1] = T_INT4(0074)
	list[2] = T_INT4(0074)
	list[3] = T_BOOL08(0030)

0x1402 : Length = 14, Leaf = 0x1008 LF_PROCEDURE
	Return type = T_BOOL08(0030), Call type = C Near
	Func attr = none
	# Parms = 4, Arg list type = 0x1401

0x1403 : Length = 14, Leaf = 0x1503 LF_ARRAY
	Element type = T_RCHAR(0070)
	Index type = T_ULONG(0022)
	length = 64
	Name = 

0x1404 : Length = 22, Leaf = 0x1201 LF_ARGLIST argument count = 4
	list[0] = 0x101E
	list[1] = T_UINT4(0075)
	list[2] = T_UINT4(0075)
	list[3] = T_BOOL08(0030)

0x1405 : Length = 14, Leaf = 0x1008 LF_PROCEDURE
	Return type = T_BOOL08(0030), Call type = C Near
	Func attr = none
	# Parms = 4, Arg list type = 0x1404

0x1406 : Length = 22, Leaf = 0x1201 LF_ARGLIST argument count = 4
	list[0] = 0x101E
	list[1] = T_REAL32(0040)
	list[2] = T_REAL32(0040)
	list[3] = T_BOOL08(0030)

0x1407 : Length = 14, Leaf = 0x1008 LF_PROCEDURE
	Return type = T_BOOL08(0030), Call type = C Near
	Func attr = none
	# Parms = 4, Arg list type = 0x1406

0x1408 : Length = 22, Leaf = 0x1201 LF_ARGLIST argument count = 4
	list[0] = 0x101E
	list[1] = T_REAL64(0041)
	list[2] = T_REAL64(0041)
	list[3] = T_BOOL08(0030)

0x1409 : Length = 14, Leaf = 0x1008 LF_PROCEDURE
	Return type = T_BOOL08(0030), Call type = C Near
	Func attr = none
	# Parms = 4, Arg list type = 0x1408

0x140a : Length = 22, Leaf = 0x1201 LF_ARGLIST argument count = 4
	list[0] = 0x101E
	list[1] = T_QUAD(0013)
	list[2] = T_QUAD(0013)
	list[3] = T_BOOL08(0030)

0x140b : Length = 14, Leaf = 0x1008 LF_PROCEDURE
	Return type = T_BOOL08(0030), Call type = C Near
	Func attr = none
	# Parms = 4, Arg list type = 0x140a

0x140c : Length = 22, Leaf = 0x1201 LF_ARGLIST argument count = 4
	list[0] = 0x101E
	list[1] = T_UQUAD(0023)
	list[2] = T_UQUAD(0023)
	list[3] = T_BOOL08(0030)

0x140d : Length = 14, Leaf = 0x1008 LF_PROCEDURE
	Return type = T_BOOL08(0030), Call type = C Near
	Func attr = none
	# Parms = 4, Arg list type = 0x140c

0x140e : Length = 90, Leaf = 0x1505 LF_STRUCTURE
	# members = 0,  field list type 0x0000, LOCAL, FORWARD REF, 
	Derivation list type 0x0000, VT shape type 0x0000
	Size = 0, class name = main::__l209::TestUtil, unique name = .?AUTestUtil@?NB@??main@@YAHHPAPBD@Z@`8090b9f8

0x140f : Length = 10, Leaf = 0x1002 LF_POINTER
	const Pointer (NEAR32), Size: 4
	Element type : 0x140E

0x1410 : Length = 26, Leaf = 0x1009 LF_MFUNCTION
	Return type = T_VOID(0003), Class type = 0x140E, This type = 0x140F, 
	Call type = ThisCall, Func attr = instance constructor
	Parms = 0, Arg list type = 0x1022, This adjust = 0

0x1411 : Length = 26, Leaf = 0x1009 LF_MFUNCTION
	Return type = T_VOID(0003), Class type = 0x140E, This type = 0x140F, 
	Call type = ThisCall, Func attr = none
	Parms = 0, Arg list type = 0x1022, This adjust = 0

0x1412 : Length = 26, Leaf = 0x1009 LF_MFUNCTION
	Return type = T_32PVOID(0403), Class type = 0x140E, This type = 0x140F, 
	Call type = ThisCall, Func attr = none
	Parms = 1, Arg list type = 0x1046, This adjust = 0

0x1413 : Length = 10, Leaf = 0x1002 LF_POINTER
	Pointer (NEAR32), Size: 4
	Element type : 0x1157

0x1414 : Length = 10, Leaf = 0x1002 LF_POINTER
	Pointer (NEAR32), Size: 4
	Element type : 0x13DF

0x1415 : Length = 14, Leaf = 0x1008 LF_PROCEDURE
	Return type = T_VOID(0003), Call type = C Near
	Func attr = none
	# Parms = 1, Arg list type = 0x1359

0x1416 : Length = 14, Leaf = 0x1201 LF_ARGLIST argument count = 2
	list[0] = T_RCHAR(0070)
	list[1] = T_INT4(0074)

0x1417 : Length = 26, Leaf = 0x1009 LF_MFUNCTION
	Return type = T_VOID(0003), Class type = 0x140E, This type = 0x140F, 
	Call type = ThisCall, Func attr = none
	Parms = 2, Arg list type = 0x1416, This adjust = 0

0x1418 : Length = 10, Leaf = 0x1002 LF_POINTER
	L-value Reference (NEAR32), Size: 4
	Element type : 0x106E

0x1419 : Length = 18, Leaf = 0x1201 LF_ARGLIST argument count = 3
	list[0] = 0x101E
	list[1] = 0x1418
	list[2] = 0x101E

0x141a : Length = 26, Leaf = 0x1009 LF_MFUNCTION
	Return type = T_VOID(0003), Class type = 0x140E, This type = 0x140F, 
	Call type = ThisCall, Func attr = none
	Parms = 3, Arg list type = 0x1419, This adjust = 0

0x141b : Length = 10, Leaf = 0x1001 LF_MODIFIER
	const, modifies type T_BOOL08(0030)

0x141c : Length = 18, Leaf = 0x1201 LF_ARGLIST argument count = 3
	list[0] = 0x101E
	list[1] = 0x101E
	list[2] = 0x101E

0x141d : Length = 26, Leaf = 0x1009 LF_MFUNCTION
	Return type = T_VOID(0003), Class type = 0x140E, This type = 0x140F, 
	Call type = ThisCall, Func attr = none
	Parms = 3, Arg list type = 0x141c, This adjust = 0

0x141e : Length = 22, Leaf = 0x1201 LF_ARGLIST argument count = 4
	list[0] = 0x101E
	list[1] = 0x101E
	list[2] = 0x1015
	list[3] = T_INT4(0074)

0x141f : Length = 26, Leaf = 0x1009 LF_MFUNCTION
	Return type = T_VOID(0003), Class type = 0x140E, This type = 0x140F, 
	Call type = ThisCall, Func attr = none
	Parms = 4, Arg list type = 0x141e, This adjust = 0

0x1420 : Length = 26, Leaf = 0x1009 LF_MFUNCTION
	Return type = T_BOOL08(0030), Class type = 0x140E, This type = 0x140F, 
	Call type = ThisCall, Func attr = none
	Parms = 1, Arg list type = 0x10c2, This adjust = 0

0x1421 : Length = 26, Leaf = 0x1009 LF_MFUNCTION
	Return type = T_BOOL08(0030), Class type = 0x140E, This type = 0x140F, 
	Call type = ThisCall, Func attr = none
	Parms = 1, Arg list type = 0x10bd, This adjust = 0

0x1422 : Length = 26, Leaf = 0x1009 LF_MFUNCTION
	Return type = T_BOOL08(0030), Class type = 0x140E, This type = 0x140F, 
	Call type = ThisCall, Func attr = none
	Parms = 1, Arg list type = 0x10c7, This adjust = 0

0x1423 : Length = 26, Leaf = 0x1009 LF_MFUNCTION
	Return type = T_BOOL08(0030), Class type = 0x140E, This type = 0x140F, 
	Call type = ThisCall, Func attr = none
	Parms = 1, Arg list type = 0x1077, This adjust = 0

0x1424 : Length = 26, Leaf = 0x1009 LF_MFUNCTION
	Return type = T_BOOL08(0030), Class type = 0x140E, This type = 0x140F, 
	Call type = ThisCall, Func attr = none
	Parms = 1, Arg list type = 0x10b3, This adjust = 0

0x1425 : Length = 26, Leaf = 0x1009 LF_MFUNCTION
	Return type = T_BOOL08(0030), Class type = 0x140E, This type = 0x140F, 
	Call type = ThisCall, Func attr = none
	Parms = 2, Arg list type = 0x10af, This adjust = 0

0x1426 : Length = 26, Leaf = 0x1201 LF_ARGLIST argument count = 5
	list[0] = 0x101E
	list[1] = 0x101E
	list[2] = 0x101E
	list[3] = T_BOOL08(0030)
	list[4] = T_BOOL08(0030)

0x1427 : Length = 14, Leaf = 0x1008 LF_PROCEDURE
	Return type = T_BOOL08(0030), Call type = C Near
	Func attr = none
	# Parms = 5, Arg list type = 0x1426

0x1428 : Length = 26, Leaf = 0x1201 LF_ARGLIST argument count = 5
	list[0] = 0x101E
	list[1] = 0x1015
	list[2] = 0x1015
	list[3] = T_BOOL08(0030)
	list[4] = T_BOOL08(0030)

0x1429 : Length = 14, Leaf = 0x1008 LF_PROCEDURE
	Return type = T_BOOL08(0030), Call type = C Near
	Func attr = none
	# Parms = 5, Arg list type = 0x1428

0x142a : Length = 26, Leaf = 0x1201 LF_ARGLIST argument count = 5
	list[0] = 0x101E
	list[1] = T_BOOL08(0030)
	list[2] = T_BOOL08(0030)
	list[3] = T_BOOL08(0030)
	list[4] = T_BOOL08(0030)

0x142b : Length = 14, Leaf = 0x1008 LF_PROCEDURE
	Return type = T_BOOL08(0030), Call type = C Near
	Func attr = none
	# Parms = 5, Arg list type = 0x142a

0x142c : Length = 14, Leaf = 0x1008 LF_PROCEDURE
	Return type = T_INT4(0074), Call type = C Near
	Func attr = none
	# Parms = 0, Arg list type = 0x1022

0x142d : Length = 14, Leaf = 0x1008 LF_PROCEDURE
	Return type = T_BOOL08(0030), Call type = C Near
	Func attr = none
	# Parms = 0, Arg list type = 0x1022

0x142e : Length = 14, Leaf = 0x1201 LF_ARGLIST argument count = 2
	list[0] = T_INT4(0074)
	list[1] = 0x126E

0x142f : Length = 14, Leaf = 0x1008 LF_PROCEDURE
	Return type = T_INT4(0074), Call type = C Near
	Func attr = none
	# Parms = 2, Arg list type = 0x142e

0x1430 : Length = 14, Leaf = 0x1503 LF_ARRAY
	Element type = 0x101E
	Index type = T_ULONG(0022)
	length = 64
	Name = 

0x1431 : Length = 14, Leaf = 0x1503 LF_ARRAY
	Element type = 0x1232
	Index type = T_ULONG(0022)
	length = 12
	Name = 

0x1432 : Length = 10, Leaf = 0x1001 LF_MODIFIER
	const, modifies type T_UCHAR(0020)

0x1433 : Length = 14, Leaf = 0x1503 LF_ARRAY
	Element type = 0x1432
	Index type = T_ULONG(0022)
	length = 17
	Name = 

0x1434 : Length = 14, Leaf = 0x1503 LF_ARRAY
	Element type = 0x101D
	Index type = T_ULONG(0022)
	length = 13
	Name = 

0x1435 : Length = 14, Leaf = 0x1503 LF_ARRAY
	Element type = 0x1432
	Index type = T_ULONG(0022)
	length = 15
	Name = 

0x1436 : Length = 14, Leaf = 0x1503 LF_ARRAY
	Element type = T_RCHAR(0070)
	Index type = T_ULONG(0022)
	length = 256
	Name = 

0x1437 : Length = 10, Leaf = 0x1001 LF_MODIFIER
	const, modifies type T_UQUAD(0023)

0x1438 : Length = 10, Leaf = 0x1001 LF_MODIFIER
	const, modifies type T_QUAD(0013)

0x1439 : Length = 14, Leaf = 0x1503 LF_ARRAY
	Element type = T_RCHAR(0070)
	Index type = T_ULONG(0022)
	length = 1024
	Name = 

0x143a : Length = 14, Leaf = 0x1503 LF_ARRAY
	Element type = 0x101D
	Index type = T_ULONG(0022)
	length = 2
	Name = 

0x143b : Length = 14, Leaf = 0x1503 LF_ARRAY
	Element type = T_UCHAR(0020)
	Index type = T_ULONG(0022)
	length = 76
	Name = 

0x143c : Length = 14, Leaf = 0x1503 LF_ARRAY
	Element type = 0x101E
	Index type = T_ULONG(0022)
	length = 16
	Name = 

0x143d : Length = 14, Leaf = 0x1503 LF_ARRAY
	Element type = 0x101E
	Index type = T_ULONG(0022)
	length = 8
	Name = 

0x143e : Length = 18, Leaf = 0x1206 LF_METHODLIST
	list[0] = private, VIRTUAL, 0x1425, 
	list[1] = private, VIRTUAL, 0x1424, 

0x143f : Length = 34, Leaf = 0x1206 LF_METHODLIST
	list[0] = private, VIRTUAL, 0x1423, 
	list[1] = private, VIRTUAL, 0x1420, 
	list[2] = private, VIRTUAL, 0x1422, 
	list[3] = private, VIRTUAL, 0x1421, 

0x1440 : Length = 286, Leaf = 0x1203 LF_FIELDLIST
	list[0] = LF_BCLASS, public, type = 0x1069, offset = 0
	list[1] = LF_ONEMETHOD, public, VANILLA, index = 0x1410, name = 'TestUtil'
	list[2] = LF_ONEMETHOD, public, VANILLA, index = 0x141F, name = 'TestParseError'
	list[3] = LF_ONEMETHOD, public, VANILLA, index = 0x141D, name = 'TestStringLines'
	list[4] = LF_ONEMETHOD, public, VANILLA, index = 0x141D, name = 'TestFileLines'
	list[5] = LF_MEMBER, private, type = 0x10F2, offset = 4
		member name = 'str'
	list[6] = LF_ONEMETHOD, private, VANILLA, index = 0x1417, name = 'Push'
	list[7] = LF_METHOD, count = 2, list = 0x143E, name = 'VisitEnter'
	list[8] = LF_METHOD, count = 4, list = 0x143F, name = 'Visit'
	list[9] = LF_ONEMETHOD, private, VANILLA, index = 0x141A, name = 'TestDocLines'
	list[10] = LF_ONEMETHOD, public, VIRTUAL, (compgenx), index = 0x1411, name = '~TestUtil'
	list[11] = LF_ONEMETHOD, public, VANILLA, (compgenx), index = 0x1411, name = '__local_vftable_ctor_closure'
	list[12] = LF_ONEMETHOD, public, INTRODUCING VIRTUAL, (compgenx), index = 0x1412, 
		vfptr offset = 0, name = '__vecDelDtor'

0x1441 : Length = 90, Leaf = 0x1505 LF_STRUCTURE
	# members = 17,  field list type 0x1440, CONSTRUCTOR, LOCAL, 
	Derivation list type 0x0000, VT shape type 0x1385
	Size = 28, class name = main::__l209::TestUtil, unique name = .?AUTestUtil@?NB@??main@@YAHHPAPBD@Z@`8090b9f8

0x1442 : Length = 10, Leaf = 0x1001 LF_MODIFIER
	const, modifies type T_REAL64(0041)

0x1443 : Length = 54, Leaf = 0x1505 LF_STRUCTURE
	# members = 0,  field list type 0x0000, FORWARD REF, 
	Derivation list type 0x0000, VT shape type 0x0000
	Size = 0, class name = _CrtMemState, unique name = .?AU_CrtMemState@@, UDT(0x0000100c)

0x1444 : Length = 10, Leaf = 0x1002 LF_POINTER
	Pointer (NEAR32), Size: 4
	Element type : 0x1443

0x1445 : Length = 10, Leaf = 0x1201 LF_ARGLIST argument count = 1
	list[0] = 0x1444

0x1446 : Length = 14, Leaf = 0x1008 LF_PROCEDURE
	Return type = T_VOID(0003), Call type = C Near
	Func attr = none
	# Parms = 1, Arg list type = 0x1445

0x1447 : Length = 14, Leaf = 0x1008 LF_PROCEDURE
	Return type = T_INT4(0074), Call type = C Near
	Func attr = none
	# Parms = 1, Arg list type = 0x1048

0x1448 : Length = 14, Leaf = 0x1008 LF_PROCEDURE
	Return type = T_LONG(0012), Call type = C Near
	Func attr = none
	# Parms = 0, Arg list type = 0x1022

0x1449 : Length = 14, Leaf = 0x1008 LF_PROCEDURE
	Return type = T_VOID(0003), Call type = C Near
	Func attr = none
	# Parms = 1, Arg list type = 0x1048

0x144a : Length = 14, Leaf = 0x1008 LF_PROCEDURE
	Return type = 0x108D, Call type = C Near
	Func attr = none
	# Parms = 2, Arg list type = 0x10a0

0x144b : Length = 14, Leaf = 0x1008 LF_PROCEDURE
	Return type = T_INT4(0074), Call type = C Near
	Func attr = none
	# Parms = 1, Arg list type = 0x13aa

0x144c : Length = 18, Leaf = 0x1201 LF_ARGLIST argument count = 3
	list[0] = T_32PRCHAR(0470)
	list[1] = T_INT4(0074)
	list[2] = 0x108D

0x144d : Length = 14, Leaf = 0x1008 LF_PROCEDURE
	Return type = T_32PRCHAR(0470), Call type = C Near
	Func attr = none
	# Parms = 3, Arg list type = 0x144c

0x144e : Length = 50, Leaf = 0x1506 LF_UNION
	# members = 0,  field list type 0x0000, FORWARD REF, Size = 0	,class name = _LARGE_INTEGER, unique name = .?AT_LARGE_INTEGER@@, UDT(0x00001018)

0x144f : Length = 10, Leaf = 0x1002 LF_POINTER
	Pointer (NEAR32), Size: 4
	Element type : 0x144E

0x1450 : Length = 10, Leaf = 0x1201 LF_ARGLIST argument count = 1
	list[0] = 0x144F

0x1451 : Length = 14, Leaf = 0x1008 LF_PROCEDURE
	Return type = T_INT4(0074), Call type = STD Near
	Func attr = none
	# Parms = 1, Arg list type = 0x1450

0x1452 : Length = 18, Leaf = 0x1201 LF_ARGLIST argument count = 3
	list[0] = 0x108D
	list[1] = T_LONG(0012)
	list[2] = T_INT4(0074)

0x1453 : Length = 14, Leaf = 0x1008 LF_PROCEDURE
	Return type = T_INT4(0074), Call type = C Near
	Func attr = none
	# Parms = 3, Arg list type = 0x1452

0x1454 : Length = 14, Leaf = 0x1008 LF_PROCEDURE
	Return type = T_LONG(0012), Call type = C Near
	Func attr = none
	# Parms = 1, Arg list type = 0x13aa

0x1455 : Length = 22, Leaf = 0x1201 LF_ARGLIST argument count = 4
	list[0] = T_32PVOID(0403)
	list[1] = T_UINT4(0075)
	list[2] = T_UINT4(0075)
	list[3] = 0x108D

0x1456 : Length = 14, Leaf = 0x1008 LF_PROCEDURE
	Return type = T_UINT4(0075), Call type = C Near
	Func attr = none
	# Parms = 4, Arg list type = 0x1455

0x1457 : Length = 10, Leaf = 0x1001 LF_MODIFIER
	const, modifies type 0x1443

0x1458 : Length = 10, Leaf = 0x1002 LF_POINTER
	Pointer (NEAR32), Size: 4
	Element type : 0x1457

0x1459 : Length = 18, Leaf = 0x1201 LF_ARGLIST argument count = 3
	list[0] = 0x1444
	list[1] = 0x1458
	list[2] = 0x1458

0x145a : Length = 14, Leaf = 0x1008 LF_PROCEDURE
	Return type = T_INT4(0074), Call type = C Near
	Func attr = none
	# Parms = 3, Arg list type = 0x1459

0x145b : Length = 10, Leaf = 0x1201 LF_ARGLIST argument count = 1
	list[0] = 0x1458

0x145c : Length = 14, Leaf = 0x1008 LF_PROCEDURE
	Return type = T_VOID(0003), Call type = C Near
	Func attr = none
	# Parms = 1, Arg list type = 0x145b

0x145d : Length = 14, Leaf = 0x1008 LF_PROCEDURE
	Return type = T_VOID(0003), Call type = C Near
	Func attr = none
	# Parms = 0, Arg list type = 0x1022

0x145e : Length = 10, Leaf = 0x1002 LF_POINTER
	const Pointer (NEAR32), Size: 4
	Element type : 0x145D

0x145f : Length = 14, Leaf = 0x1503 LF_ARRAY
	Element type = 0x145E
	Index type = T_ULONG(0022)
	length = 40
	Name = 

0x1460 : Length = 10, Leaf = 0x1001 LF_MODIFIER
	const, modifies type T_UINT4(0075)

0x1461 : Length = 138, Leaf = 0x1203 LF_FIELDLIST
	list[0] = LF_ENUMERATE, public, value = 0, name = '_Functor'
	list[1] = LF_ENUMERATE, public, value = 1, name = '_Pmf_object'
	list[2] = LF_ENUMERATE, public, value = 2, name = '_Pmf_refwrap'
	list[3] = LF_ENUMERATE, public, value = 3, name = '_Pmf_pointer'
	list[4] = LF_ENUMERATE, public, value = 4, name = '_Pmd_object'
	list[5] = LF_ENUMERATE, public, value = 5, name = '_Pmd_refwrap'
	list[6] = LF_ENUMERATE, public, value = 6, name = '_Pmd_pointer'

0x1462 : Length = 66, Leaf = 0x1507 LF_ENUM
	# members = 7,  type = T_INT4(0074) field list type 0x1461
	enum name = std::_Invoker_strategy, UDT(0x00001cde)

0x1463 : Length = 10, Leaf = 0x1001 LF_MODIFIER
	const, modifies type 0x1462

0x1464 : Length = 62, Leaf = 0x1505 LF_STRUCTURE
	# members = 0,  field list type 0x0000, FORWARD REF, 
	Derivation list type 0x0000, VT shape type 0x0000
	Size = 0, class name = tinyxml2::Entity, unique name = .?AUEntity@tinyxml2@@, UDT(0x00001474)

0x1465 : Length = 10, Leaf = 0x1001 LF_MODIFIER
	const, modifies type 0x1464

0x1466 : Length = 14, Leaf = 0x1503 LF_ARRAY
	Element type = 0x1465
	Index type = T_ULONG(0022)
	length = 60
	Name = 

0x1467 : Length = 58, Leaf = 0x1505 LF_STRUCTURE
	# members = 0,  field list type 0x0000, FORWARD REF, 
	Derivation list type 0x0000, VT shape type 0x0000
	Size = 0, class name = _TypeDescriptor, unique name = .?AU_TypeDescriptor@@, UDT(0x00001696)

0x1468 : Length = 10, Leaf = 0x1002 LF_POINTER
	Pointer (NEAR32), Size: 4
	Element type : 0x1467

0x1469 : Length = 38, Leaf = 0x1505 LF_STRUCTURE
	# members = 0,  field list type 0x0000, FORWARD REF, 
	Derivation list type 0x0000, VT shape type 0x0000
	Size = 0, class name = _PMD, unique name = .?AU_PMD@@, UDT(0x00001730)

0x146a : Length = 14, Leaf = 0x1008 LF_PROCEDURE
	Return type = T_VOID(0003), Call type = C Near
	Func attr = none
	# Parms = 1, Arg list type = 0x111d

0x146b : Length = 10, Leaf = 0x1002 LF_POINTER
	Pointer (NEAR32), Size: 4
	Element type : 0x146A

0x146c : Length = 118, Leaf = 0x1203 LF_FIELDLIST
	list[0] = LF_MEMBER, public, type = T_UINT4(0075), offset = 0
		member name = 'properties'
	list[1] = LF_MEMBER, public, type = 0x1468, offset = 4
		member name = 'pType'
	list[2] = LF_MEMBER, public, type = 0x1469, offset = 8
		member name = 'thisDisplacement'
	list[3] = LF_MEMBER, public, type = T_INT4(0074), offset = 20
		member name = 'sizeOrOffset'
	list[4] = LF_MEMBER, public, type = 0x146B, offset = 24
		member name = 'copyFunction'

0x146d : Length = 62, Leaf = 0x1505 LF_STRUCTURE
	# members = 5,  field list type 0x146c, 
	Derivation list type 0x0000, VT shape type 0x0000
	Size = 28, class name = _s__CatchableType, unique name = .?AU_s__CatchableType@@, UDT(0x00001821)

0x146e : Length = 10, Leaf = 0x1001 LF_MODIFIER
	const, modifies type T_VOID(0003)

0x146f : Length = 10, Leaf = 0x1002 LF_POINTER
	Pointer (NEAR32), Size: 4
	Element type : 0x146E

0x1470 : Length = 14, Leaf = 0x1503 LF_ARRAY
	Element type = T_RCHAR(0070)
	Index type = T_ULONG(0022)
	length = 0
	Name = 

0x1471 : Length = 54, Leaf = 0x1203 LF_FIELDLIST
	list[0] = LF_MEMBER, public, type = 0x146F, offset = 0
		member name = 'pVFTable'
	list[1] = LF_MEMBER, public, type = T_32PVOID(0403), offset = 4
		member name = 'spare'
	list[2] = LF_MEMBER, public, type = 0x1470, offset = 8
		member name = 'name'

0x1472 : Length = 58, Leaf = 0x1505 LF_STRUCTURE
	# members = 3,  field list type 0x1471, 
	Derivation list type 0x0000, VT shape type 0x0000
	Size = 8, class name = _TypeDescriptor, unique name = .?AU_TypeDescriptor@@, UDT(0x00001696)

0x1473 : Length = 58, Leaf = 0x1203 LF_FIELDLIST
	list[0] = LF_MEMBER, public, type = 0x101E, offset = 0
		member name = 'pattern'
	list[1] = LF_MEMBER, public, type = T_INT4(0074), offset = 4
		member name = 'length'
	list[2] = LF_MEMBER, public, type = T_RCHAR(0070), offset = 8
		member name = 'value'

0x1474 : Length = 62, Leaf = 0x1505 LF_STRUCTURE
	# members = 3,  field list type 0x1473, 
	Derivation list type 0x0000, VT shape type 0x0000
	Size = 12, class name = tinyxml2::Entity, unique name = .?AUEntity@tinyxml2@@, UDT(0x00001474)

0x1475 : Length = 58, Leaf = 0x1504 LF_CLASS
	# members = 0,  field list type 0x0000, FORWARD REF, 
	Derivation list type 0x0000, VT shape type 0x0000
	Size = 0, class name = std::exception, unique name = .?AVexception@std@@, UDT(0x000017af)

0x1476 : Length = 66, Leaf = 0x1504 LF_CLASS
	# members = 0,  field list type 0x0000, FORWARD REF, 
	Derivation list type 0x0000, VT shape type 0x0000
	Size = 0, class name = std::bad_exception, unique name = .?AVbad_exception@std@@, UDT(0x000017a5)

0x1477 : Length = 10, Leaf = 0x1002 LF_POINTER
	const Pointer (NEAR32), Size: 4
	Element type : 0x1476

0x1478 : Length = 10, Leaf = 0x1002 LF_POINTER
	R-value Reference (NEAR32), Size: 4
	Element type : 0x1476

0x1479 : Length = 10, Leaf = 0x1201 LF_ARGLIST argument count = 1
	list[0] = 0x1478

0x147a : Length = 26, Leaf = 0x1009 LF_MFUNCTION
	Return type = T_VOID(0003), Class type = 0x1476, This type = 0x1477, 
	Call type = ThisCall, Func attr = instance constructor
	Parms = 1, Arg list type = 0x1479, This adjust = 0

0x147b : Length = 10, Leaf = 0x1001 LF_MODIFIER
	const, modifies type 0x1476

0x147c : Length = 10, Leaf = 0x1002 LF_POINTER
	L-value Reference (NEAR32), Size: 4
	Element type : 0x147B

0x147d : Length = 10, Leaf = 0x1201 LF_ARGLIST argument count = 1
	list[0] = 0x147C

0x147e : Length = 26, Leaf = 0x1009 LF_MFUNCTION
	Return type = T_VOID(0003), Class type = 0x1476, This type = 0x1477, 
	Call type = ThisCall, Func attr = instance constructor
	Parms = 1, Arg list type = 0x147d, This adjust = 0

0x147f : Length = 26, Leaf = 0x1009 LF_MFUNCTION
	Return type = T_VOID(0003), Class type = 0x1476, This type = 0x1477, 
	Call type = ThisCall, Func attr = instance constructor
	Parms = 0, Arg list type = 0x1022, This adjust = 0

0x1480 : Length = 26, Leaf = 0x1206 LF_METHODLIST
	list[0] = public, VANILLA, (compgenx), 0x147A, 
	list[1] = public, VANILLA, (compgenx), 0x147E, 
	list[2] = public, VANILLA, 0x147F, 

0x1481 : Length = 26, Leaf = 0x1009 LF_MFUNCTION
	Return type = T_VOID(0003), Class type = 0x1476, This type = 0x1477, 
	Call type = ThisCall, Func attr = none
	Parms = 0, Arg list type = 0x1022, This adjust = 0

0x1482 : Length = 10, Leaf = 0x1002 LF_POINTER
	L-value Reference (NEAR32), Size: 4
	Element type : 0x1476

0x1483 : Length = 26, Leaf = 0x1009 LF_MFUNCTION
	Return type = 0x1482, Class type = 0x1476, This type = 0x1477, 
	Call type = ThisCall, Func attr = none
	Parms = 1, Arg list type = 0x1479, This adjust = 0

0x1484 : Length = 26, Leaf = 0x1009 LF_MFUNCTION
	Return type = 0x1482, Class type = 0x1476, This type = 0x1477, 
	Call type = ThisCall, Func attr = none
	Parms = 1, Arg list type = 0x147d, This adjust = 0

0x1485 : Length = 18, Leaf = 0x1206 LF_METHODLIST
	list[0] = public, VANILLA, (compgenx), 0x1483, 
	list[1] = public, VANILLA, (compgenx), 0x1484, 

0x1486 : Length = 26, Leaf = 0x1009 LF_MFUNCTION
	Return type = T_32PVOID(0403), Class type = 0x1476, This type = 0x1477, 
	Call type = ThisCall, Func attr = none
	Parms = 1, Arg list type = 0x1046, This adjust = 0

0x1487 : Length = 150, Leaf = 0x1203 LF_FIELDLIST
	list[0] = LF_BCLASS, public, type = 0x1475, offset = 0
	list[1] = LF_METHOD, count = 3, list = 0x1480, name = 'bad_exception'
	list[2] = LF_ONEMETHOD, public, VIRTUAL, (compgenx), index = 0x1481, name = '~bad_exception'
	list[3] = LF_METHOD, count = 2, list = 0x1485, name = 'operator='
	list[4] = LF_ONEMETHOD, public, VANILLA, (compgenx), index = 0x1481, name = '__local_vftable_ctor_closure'
	list[5] = LF_ONEMETHOD, public, INTRODUCING VIRTUAL, (compgenx), index = 0x1486, 
		vfptr offset = 0, name = '__vecDelDtor'

0x1488 : Length = 6, Leaf = 0x000a LF_VTSHAPE
	Number of entries : 2
		[0]: NEAR32
		[1]: NEAR32

0x1489 : Length = 66, Leaf = 0x1504 LF_CLASS
	# members = 9,  field list type 0x1487, CONSTRUCTOR, OVERLOAD, OVERLOADED ASSIGNMENT, 
	Derivation list type 0x0000, VT shape type 0x1488
	Size = 12, class name = std::bad_exception, unique name = .?AVbad_exception@std@@, UDT(0x000017a5)

0x148a : Length = 66, Leaf = 0x1504 LF_CLASS
	# members = 0,  field list type 0x0000, FORWARD REF, 
	Derivation list type 0x0000, VT shape type 0x0000
	Size = 0, class name = std::exception_ptr, unique name = .?AVexception_ptr@std@@, UDT(0x00001d08)

0x148b : Length = 10, Leaf = 0x1002 LF_POINTER
	const Pointer (NEAR32), Size: 4
	Element type : 0x148A

0x148c : Length = 10, Leaf = 0x1001 LF_MODIFIER
	const, modifies type 0x148A

0x148d : Length = 10, Leaf = 0x1002 LF_POINTER
	L-value Reference (NEAR32), Size: 4
	Element type : 0x148C

0x148e : Length = 10, Leaf = 0x1201 LF_ARGLIST argument count = 1
	list[0] = 0x148D

0x148f : Length = 26, Leaf = 0x1009 LF_MFUNCTION
	Return type = T_VOID(0003), Class type = 0x148A, This type = 0x148B, 
	Call type = ThisCall, Func attr = instance constructor
	Parms = 1, Arg list type = 0x148e, This adjust = 0

0x1490 : Length = 10, Leaf = 0x1201 LF_ARGLIST argument count = 1
	list[0] = T_PVOID(0103)

0x1491 : Length = 26, Leaf = 0x1009 LF_MFUNCTION
	Return type = T_VOID(0003), Class type = 0x148A, This type = 0x148B, 
	Call type = ThisCall, Func attr = instance constructor
	Parms = 1, Arg list type = 0x1490, This adjust = 0

0x1492 : Length = 26, Leaf = 0x1009 LF_MFUNCTION
	Return type = T_VOID(0003), Class type = 0x148A, This type = 0x148B, 
	Call type = ThisCall, Func attr = instance constructor
	Parms = 0, Arg list type = 0x1022, This adjust = 0

0x1493 : Length = 26, Leaf = 0x1206 LF_METHODLIST
	list[0] = public, VANILLA, 0x148F, 
	list[1] = public, VANILLA, 0x1491, 
	list[2] = public, VANILLA, 0x1492, 

0x1494 : Length = 26, Leaf = 0x1009 LF_MFUNCTION
	Return type = T_VOID(0003), Class type = 0x148A, This type = 0x148B, 
	Call type = ThisCall, Func attr = none
	Parms = 0, Arg list type = 0x1022, This adjust = 0

0x1495 : Length = 10, Leaf = 0x1002 LF_POINTER
	L-value Reference (NEAR32), Size: 4
	Element type : 0x148A

0x1496 : Length = 26, Leaf = 0x1009 LF_MFUNCTION
	Return type = 0x1495, Class type = 0x148A, This type = 0x148B, 
	Call type = ThisCall, Func attr = none
	Parms = 1, Arg list type = 0x1490, This adjust = 0

0x1497 : Length = 26, Leaf = 0x1009 LF_MFUNCTION
	Return type = 0x1495, Class type = 0x148A, This type = 0x148B, 
	Call type = ThisCall, Func attr = none
	Parms = 1, Arg list type = 0x148e, This adjust = 0

0x1498 : Length = 18, Leaf = 0x1206 LF_METHODLIST
	list[0] = public, VANILLA, 0x1496, 
	list[1] = public, VANILLA, 0x1497, 

0x1499 : Length = 10, Leaf = 0x1002 LF_POINTER
	const Pointer (NEAR32), Size: 4
	Element type : 0x148C

0x149a : Length = 26, Leaf = 0x1009 LF_MFUNCTION
	Return type = T_BOOL08(0030), Class type = 0x148A, This type = 0x1499, 
	Call type = ThisCall, Func attr = none
	Parms = 0, Arg list type = 0x1022, This adjust = 0

0x149b : Length = 26, Leaf = 0x1009 LF_MFUNCTION
	Return type = 0x148A, Class type = 0x148A, This type = T_NOTYPE(0000), 
	Call type = C Near, Func attr = return UDT (C++ style)
	Parms = 0, Arg list type = 0x1022, This adjust = 0

0x149c : Length = 14, Leaf = 0x1201 LF_ARGLIST argument count = 2
	list[0] = T_32PVOID(0403)
	list[1] = 0x146F

0x149d : Length = 26, Leaf = 0x1009 LF_MFUNCTION
	Return type = 0x148A, Class type = 0x148A, This type = T_NOTYPE(0000), 
	Call type = C Near, Func attr = return UDT (C++ style)
	Parms = 2, Arg list type = 0x149c, This adjust = 0

0x149e : Length = 26, Leaf = 0x1009 LF_MFUNCTION
	Return type = T_VOID(0003), Class type = 0x148A, This type = 0x148B, 
	Call type = ThisCall, Func attr = none
	Parms = 1, Arg list type = 0x1046, This adjust = 0

0x149f : Length = 26, Leaf = 0x1009 LF_MFUNCTION
	Return type = T_32PVOID(0403), Class type = 0x148A, This type = 0x148B, 
	Call type = ThisCall, Func attr = none
	Parms = 1, Arg list type = 0x1046, This adjust = 0

0x14a0 : Length = 238, Leaf = 0x1203 LF_FIELDLIST
	list[0] = LF_METHOD, count = 3, list = 0x1493, name = 'exception_ptr'
	list[1] = LF_ONEMETHOD, public, VANILLA, index = 0x1494, name = '~exception_ptr'
	list[2] = LF_METHOD, count = 2, list = 0x1498, name = 'operator='
	list[3] = LF_ONEMETHOD, public, VANILLA, index = 0x149A, name = 'operator bool'
	list[4] = LF_ONEMETHOD, public, STATIC, index = 0x149B, name = '_Current_exception'
	list[5] = LF_ONEMETHOD, public, STATIC, index = 0x149D, name = '_Copy_exception'
	list[6] = LF_MEMBER, private, type = T_32PVOID(0403), offset = 0
		member name = '_Data1'
	list[7] = LF_MEMBER, private, type = T_32PVOID(0403), offset = 4
		member name = '_Data2'
	list[8] = LF_ONEMETHOD, public, VANILLA, (compgenx), index = 0x149E, name = '__autoclassinit2'
	list[9] = LF_ONEMETHOD, public, VANILLA, (compgenx), index = 0x149F, name = '__vecDelDtor'

0x14a1 : Length = 66, Leaf = 0x1504 LF_CLASS
	# members = 13,  field list type 0x14a0, CONSTRUCTOR, OVERLOAD, OVERLOADED ASSIGNMENT, CASTING, 
	Derivation list type 0x0000, VT shape type 0x0000
	Size = 8, class name = std::exception_ptr, unique name = .?AVexception_ptr@std@@, UDT(0x00001d08)

0x14a2 : Length = 10, Leaf = 0x1002 LF_POINTER
	Pointer (NEAR32), Size: 4
	Element type : 0x1488

0x14a3 : Length = 10, Leaf = 0x1002 LF_POINTER
	const Pointer (NEAR32), Size: 4
	Element type : 0x1475

0x14a4 : Length = 10, Leaf = 0x1001 LF_MODIFIER
	const, modifies type 0x1475

0x14a5 : Length = 10, Leaf = 0x1002 LF_POINTER
	L-value Reference (NEAR32), Size: 4
	Element type : 0x14A4

0x14a6 : Length = 10, Leaf = 0x1201 LF_ARGLIST argument count = 1
	list[0] = 0x14A5

0x14a7 : Length = 26, Leaf = 0x1009 LF_MFUNCTION
	Return type = T_VOID(0003), Class type = 0x1475, This type = 0x14A3, 
	Call type = ThisCall, Func attr = instance constructor
	Parms = 1, Arg list type = 0x14a6, This adjust = 0

0x14a8 : Length = 14, Leaf = 0x1201 LF_ARGLIST argument count = 2
	list[0] = 0x1274
	list[1] = T_INT4(0074)

0x14a9 : Length = 26, Leaf = 0x1009 LF_MFUNCTION
	Return type = T_VOID(0003), Class type = 0x1475, This type = 0x14A3, 
	Call type = ThisCall, Func attr = instance constructor
	Parms = 2, Arg list type = 0x14a8, This adjust = 0

0x14aa : Length = 10, Leaf = 0x1201 LF_ARGLIST argument count = 1
	list[0] = 0x1274

0x14ab : Length = 26, Leaf = 0x1009 LF_MFUNCTION
	Return type = T_VOID(0003), Class type = 0x1475, This type = 0x14A3, 
	Call type = ThisCall, Func attr = instance constructor
	Parms = 1, Arg list type = 0x14aa, This adjust = 0

0x14ac : Length = 26, Leaf = 0x1009 LF_MFUNCTION
	Return type = T_VOID(0003), Class type = 0x1475, This type = 0x14A3, 
	Call type = ThisCall, Func attr = instance constructor
	Parms = 0, Arg list type = 0x1022, This adjust = 0

0x14ad : Length = 34, Leaf = 0x1206 LF_METHODLIST
	list[0] = public, VANILLA, 0x14A7, 
	list[1] = public, VANILLA, 0x14A9, 
	list[2] = public, VANILLA, 0x14AB, 
	list[3] = public, VANILLA, 0x14AC, 

0x14ae : Length = 10, Leaf = 0x1002 LF_POINTER
	L-value Reference (NEAR32), Size: 4
	Element type : 0x1475

0x14af : Length = 26, Leaf = 0x1009 LF_MFUNCTION
	Return type = 0x14AE, Class type = 0x1475, This type = 0x14A3, 
	Call type = ThisCall, Func attr = none
	Parms = 1, Arg list type = 0x14a6, This adjust = 0

0x14b0 : Length = 26, Leaf = 0x1009 LF_MFUNCTION
	Return type = T_VOID(0003), Class type = 0x1475, This type = 0x14A3, 
	Call type = ThisCall, Func attr = none
	Parms = 0, Arg list type = 0x1022, This adjust = 0

0x14b1 : Length = 10, Leaf = 0x1002 LF_POINTER
	const Pointer (NEAR32), Size: 4
	Element type : 0x14A4

0x14b2 : Length = 26, Leaf = 0x1009 LF_MFUNCTION
	Return type = 0x101E, Class type = 0x1475, This type = 0x14B1, 
	Call type = ThisCall, Func attr = none
	Parms = 0, Arg list type = 0x1022, This adjust = 0

0x14b3 : Length = 70, Leaf = 0x1505 LF_STRUCTURE
	# members = 0,  field list type 0x0000, FORWARD REF, 
	Derivation list type 0x0000, VT shape type 0x0000
	Size = 0, class name = __std_exception_data, unique name = .?AU__std_exception_data@@, UDT(0x0000175a)

0x14b4 : Length = 26, Leaf = 0x1009 LF_MFUNCTION
	Return type = T_32PVOID(0403), Class type = 0x1475, This type = 0x14A3, 
	Call type = ThisCall, Func attr = none
	Parms = 1, Arg list type = 0x1046, This adjust = 0

0x14b5 : Length = 178, Leaf = 0x1203 LF_FIELDLIST
	list[0] = LF_VFUNCTAB, type = 0x14A2
	list[1] = LF_METHOD, count = 4, list = 0x14AD, name = 'exception'
	list[2] = LF_ONEMETHOD, public, VANILLA, index = 0x14AF, name = 'operator='
	list[3] = LF_ONEMETHOD, public, INTRODUCING VIRTUAL, index = 0x14B0, 
		vfptr offset = 0, name = '~exception'
	list[4] = LF_ONEMETHOD, public, INTRODUCING VIRTUAL, index = 0x14B2, 
		vfptr offset = 4, name = 'what'
	list[5] = LF_MEMBER, private, type = 0x14B3, offset = 4
		member name = '_Data'
	list[6] = LF_ONEMETHOD, public, VANILLA, (compgenx), index = 0x14B0, name = '__local_vftable_ctor_closure'
	list[7] = LF_ONEMETHOD, public, INTRODUCING VIRTUAL, (compgenx), index = 0x14B4, 
		vfptr offset = 0, name = '__vecDelDtor'

0x14b6 : Length = 58, Leaf = 0x1504 LF_CLASS
	# members = 11,  field list type 0x14b5, CONSTRUCTOR, OVERLOAD, OVERLOADED ASSIGNMENT, 
	Derivation list type 0x0000, VT shape type 0x1488
	Size = 12, class name = std::exception, unique name = .?AVexception@std@@, UDT(0x000017af)

0x14b7 : Length = 58, Leaf = 0x1504 LF_CLASS
	# members = 0,  field list type 0x0000, FORWARD REF, 
	Derivation list type 0x0000, VT shape type 0x0000
	Size = 0, class name = std::bad_alloc, unique name = .?AVbad_alloc@std@@, UDT(0x000017bb)

0x14b8 : Length = 10, Leaf = 0x1002 LF_POINTER
	const Pointer (NEAR32), Size: 4
	Element type : 0x14B7

0x14b9 : Length = 10, Leaf = 0x1002 LF_POINTER
	R-value Reference (NEAR32), Size: 4
	Element type : 0x14B7

0x14ba : Length = 10, Leaf = 0x1201 LF_ARGLIST argument count = 1
	list[0] = 0x14B9

0x14bb : Length = 26, Leaf = 0x1009 LF_MFUNCTION
	Return type = T_VOID(0003), Class type = 0x14B7, This type = 0x14B8, 
	Call type = ThisCall, Func attr = instance constructor
	Parms = 1, Arg list type = 0x14ba, This adjust = 0

0x14bc : Length = 10, Leaf = 0x1001 LF_MODIFIER
	const, modifies type 0x14B7

0x14bd : Length = 10, Leaf = 0x1002 LF_POINTER
	L-value Reference (NEAR32), Size: 4
	Element type : 0x14BC

0x14be : Length = 10, Leaf = 0x1201 LF_ARGLIST argument count = 1
	list[0] = 0x14BD

0x14bf : Length = 26, Leaf = 0x1009 LF_MFUNCTION
	Return type = T_VOID(0003), Class type = 0x14B7, This type = 0x14B8, 
	Call type = ThisCall, Func attr = instance constructor
	Parms = 1, Arg list type = 0x14be, This adjust = 0

0x14c0 : Length = 26, Leaf = 0x1009 LF_MFUNCTION
	Return type = T_VOID(0003), Class type = 0x14B7, This type = 0x14B8, 
	Call type = ThisCall, Func attr = instance constructor
	Parms = 1, Arg list type = 0x14aa, This adjust = 0

0x14c1 : Length = 26, Leaf = 0x1009 LF_MFUNCTION
	Return type = T_VOID(0003), Class type = 0x14B7, This type = 0x14B8, 
	Call type = ThisCall, Func attr = instance constructor
	Parms = 0, Arg list type = 0x1022, This adjust = 0

0x14c2 : Length = 34, Leaf = 0x1206 LF_METHODLIST
	list[0] = public, VANILLA, (compgenx), 0x14BB, 
	list[1] = public, VANILLA, (compgenx), 0x14BF, 
	list[2] = private, VANILLA, 0x14C0, 
	list[3] = public, VANILLA, 0x14C1, 

0x14c3 : Length = 26, Leaf = 0x1009 LF_MFUNCTION
	Return type = T_VOID(0003), Class type = 0x14B7, This type = 0x14B8, 
	Call type = ThisCall, Func attr = none
	Parms = 0, Arg list type = 0x1022, This adjust = 0

0x14c4 : Length = 10, Leaf = 0x1002 LF_POINTER
	L-value Reference (NEAR32), Size: 4
	Element type : 0x14B7

0x14c5 : Length = 26, Leaf = 0x1009 LF_MFUNCTION
	Return type = 0x14C4, Class type = 0x14B7, This type = 0x14B8, 
	Call type = ThisCall, Func attr = none
	Parms = 1, Arg list type = 0x14ba, This adjust = 0

0x14c6 : Length = 26, Leaf = 0x1009 LF_MFUNCTION
	Return type = 0x14C4, Class type = 0x14B7, This type = 0x14B8, 
	Call type = ThisCall, Func attr = none
	Parms = 1, Arg list type = 0x14be, This adjust = 0

0x14c7 : Length = 18, Leaf = 0x1206 LF_METHODLIST
	list[0] = public, VANILLA, (compgenx), 0x14C5, 
	list[1] = public, VANILLA, (compgenx), 0x14C6, 

0x14c8 : Length = 26, Leaf = 0x1009 LF_MFUNCTION
	Return type = T_32PVOID(0403), Class type = 0x14B7, This type = 0x14B8, 
	Call type = ThisCall, Func attr = none
	Parms = 1, Arg list type = 0x1046, This adjust = 0

0x14c9 : Length = 142, Leaf = 0x1203 LF_FIELDLIST
	list[0] = LF_BCLASS, public, type = 0x1475, offset = 0
	list[1] = LF_METHOD, count = 4, list = 0x14C2, name = 'bad_alloc'
	list[2] = LF_ONEMETHOD, public, VIRTUAL, (compgenx), index = 0x14C3, name = '~bad_alloc'
	list[3] = LF_METHOD, count = 2, list = 0x14C7, name = 'operator='
	list[4] = LF_ONEMETHOD, public, VANILLA, (compgenx), index = 0x14C3, name = '__local_vftable_ctor_closure'
	list[5] = LF_ONEMETHOD, public, INTRODUCING VIRTUAL, (compgenx), index = 0x14C8, 
		vfptr offset = 0, name = '__vecDelDtor'

0x14ca : Length = 58, Leaf = 0x1504 LF_CLASS
	# members = 10,  field list type 0x14c9, CONSTRUCTOR, OVERLOAD, OVERLOADED ASSIGNMENT, 
	Derivation list type 0x0000, VT shape type 0x1488
	Size = 12, class name = std::bad_alloc, unique name = .?AVbad_alloc@std@@, UDT(0x000017bb)

0x14cb : Length = 78, Leaf = 0x1504 LF_CLASS
	# members = 0,  field list type 0x0000, FORWARD REF, 
	Derivation list type 0x0000, VT shape type 0x0000
	Size = 0, class name = std::bad_array_new_length, unique name = .?AVbad_array_new_length@std@@, UDT(0x000017c6)

0x14cc : Length = 10, Leaf = 0x1002 LF_POINTER
	const Pointer (NEAR32), Size: 4
	Element type : 0x14CB

0x14cd : Length = 10, Leaf = 0x1002 LF_POINTER
	R-value Reference (NEAR32), Size: 4
	Element type : 0x14CB

0x14ce : Length = 10, Leaf = 0x1201 LF_ARGLIST argument count = 1
	list[0] = 0x14CD

0x14cf : Length = 26, Leaf = 0x1009 LF_MFUNCTION
	Return type = T_VOID(0003), Class type = 0x14CB, This type = 0x14CC, 
	Call type = ThisCall, Func attr = instance constructor
	Parms = 1, Arg list type = 0x14ce, This adjust = 0

0x14d0 : Length = 10, Leaf = 0x1001 LF_MODIFIER
	const, modifies type 0x14CB

0x14d1 : Length = 10, Leaf = 0x1002 LF_POINTER
	L-value Reference (NEAR32), Size: 4
	Element type : 0x14D0

0x14d2 : Length = 10, Leaf = 0x1201 LF_ARGLIST argument count = 1
	list[0] = 0x14D1

0x14d3 : Length = 26, Leaf = 0x1009 LF_MFUNCTION
	Return type = T_VOID(0003), Class type = 0x14CB, This type = 0x14CC, 
	Call type = ThisCall, Func attr = instance constructor
	Parms = 1, Arg list type = 0x14d2, This adjust = 0

0x14d4 : Length = 26, Leaf = 0x1009 LF_MFUNCTION
	Return type = T_VOID(0003), Class type = 0x14CB, This type = 0x14CC, 
	Call type = ThisCall, Func attr = instance constructor
	Parms = 0, Arg list type = 0x1022, This adjust = 0

0x14d5 : Length = 26, Leaf = 0x1206 LF_METHODLIST
	list[0] = public, VANILLA, (compgenx), 0x14CF, 
	list[1] = public, VANILLA, (compgenx), 0x14D3, 
	list[2] = public, VANILLA, 0x14D4, 

0x14d6 : Length = 26, Leaf = 0x1009 LF_MFUNCTION
	Return type = T_VOID(0003), Class type = 0x14CB, This type = 0x14CC, 
	Call type = ThisCall, Func attr = none
	Parms = 0, Arg list type = 0x1022, This adjust = 0

0x14d7 : Length = 10, Leaf = 0x1002 LF_POINTER
	L-value Reference (NEAR32), Size: 4
	Element type : 0x14CB

0x14d8 : Length = 26, Leaf = 0x1009 LF_MFUNCTION
	Return type = 0x14D7, Class type = 0x14CB, This type = 0x14CC, 
	Call type = ThisCall, Func attr = none
	Parms = 1, Arg list type = 0x14ce, This adjust = 0

0x14d9 : Length = 26, Leaf = 0x1009 LF_MFUNCTION
	Return type = 0x14D7, Class type = 0x14CB, This type = 0x14CC, 
	Call type = ThisCall, Func attr = none
	Parms = 1, Arg list type = 0x14d2, This adjust = 0

0x14da : Length = 18, Leaf = 0x1206 LF_METHODLIST
	list[0] = public, VANILLA, (compgenx), 0x14D8, 
	list[1] = public, VANILLA, (compgenx), 0x14D9, 

0x14db : Length = 26, Leaf = 0x1009 LF_MFUNCTION
	Return type = T_32PVOID(0403), Class type = 0x14CB, This type = 0x14CC, 
	Call type = ThisCall, Func attr = none
	Parms = 1, Arg list type = 0x1046, This adjust = 0

0x14dc : Length = 166, Leaf = 0x1203 LF_FIELDLIST
	list[0] = LF_BCLASS, public, type = 0x14B7, offset = 0
	list[1] = LF_METHOD, count = 3, list = 0x14D5, name = 'bad_array_new_length'
	list[2] = LF_ONEMETHOD, public, VIRTUAL, (compgenx), index = 0x14D6, name = '~bad_array_new_length'
	list[3] = LF_METHOD, count = 2, list = 0x14DA, name = 'operator='
	list[4] = LF_ONEMETHOD, public, VANILLA, (compgenx), index = 0x14D6, name = '__local_vftable_ctor_closure'
	list[5] = LF_ONEMETHOD, public, INTRODUCING VIRTUAL, (compgenx), index = 0x14DB, 
		vfptr offset = 0, name = '__vecDelDtor'

0x14dd : Length = 78, Leaf = 0x1504 LF_CLASS
	# members = 9,  field list type 0x14dc, CONSTRUCTOR, OVERLOAD, OVERLOADED ASSIGNMENT, 
	Derivation list type 0x0000, VT shape type 0x1488
	Size = 12, class name = std::bad_array_new_length, unique name = .?AVbad_array_new_length@std@@, UDT(0x000017c6)

0x14de : Length = 70, Leaf = 0x1504 LF_CLASS
	# members = 0,  field list type 0x0000, FORWARD REF, 
	Derivation list type 0x0000, VT shape type 0x0000
	Size = 0, class name = std::nested_exception, unique name = .?AVnested_exception@std@@, UDT(0x00001d19)

0x14df : Length = 10, Leaf = 0x1002 LF_POINTER
	const Pointer (NEAR32), Size: 4
	Element type : 0x14DE

0x14e0 : Length = 10, Leaf = 0x1001 LF_MODIFIER
	const, modifies type 0x14DE

0x14e1 : Length = 10, Leaf = 0x1002 LF_POINTER
	L-value Reference (NEAR32), Size: 4
	Element type : 0x14E0

0x14e2 : Length = 10, Leaf = 0x1201 LF_ARGLIST argument count = 1
	list[0] = 0x14E1

0x14e3 : Length = 26, Leaf = 0x1009 LF_MFUNCTION
	Return type = T_VOID(0003), Class type = 0x14DE, This type = 0x14DF, 
	Call type = ThisCall, Func attr = instance constructor
	Parms = 1, Arg list type = 0x14e2, This adjust = 0

0x14e4 : Length = 26, Leaf = 0x1009 LF_MFUNCTION
	Return type = T_VOID(0003), Class type = 0x14DE, This type = 0x14DF, 
	Call type = ThisCall, Func attr = instance constructor
	Parms = 0, Arg list type = 0x1022, This adjust = 0

0x14e5 : Length = 18, Leaf = 0x1206 LF_METHODLIST
	list[0] = public, VANILLA, 0x14E3, 
	list[1] = public, VANILLA, 0x14E4, 

0x14e6 : Length = 10, Leaf = 0x1002 LF_POINTER
	L-value Reference (NEAR32), Size: 4
	Element type : 0x14DE

0x14e7 : Length = 26, Leaf = 0x1009 LF_MFUNCTION
	Return type = 0x14E6, Class type = 0x14DE, This type = 0x14DF, 
	Call type = ThisCall, Func attr = none
	Parms = 1, Arg list type = 0x14e2, This adjust = 0

0x14e8 : Length = 26, Leaf = 0x1009 LF_MFUNCTION
	Return type = T_VOID(0003), Class type = 0x14DE, This type = 0x14DF, 
	Call type = ThisCall, Func attr = none
	Parms = 0, Arg list type = 0x1022, This adjust = 0

0x14e9 : Length = 10, Leaf = 0x1002 LF_POINTER
	const Pointer (NEAR32), Size: 4
	Element type : 0x14E0

0x14ea : Length = 26, Leaf = 0x1009 LF_MFUNCTION
	Return type = T_VOID(0003), Class type = 0x14DE, This type = 0x14E9, 
	Call type = ThisCall, Func attr = none
	Parms = 0, Arg list type = 0x1022, This adjust = 0

0x14eb : Length = 26, Leaf = 0x1009 LF_MFUNCTION
	Return type = 0x148A, Class type = 0x14DE, This type = 0x14E9, 
	Call type = ThisCall, Func attr = return UDT (C++ style)
	Parms = 0, Arg list type = 0x1022, This adjust = 0

0x14ec : Length = 26, Leaf = 0x1009 LF_MFUNCTION
	Return type = T_VOID(0003), Class type = 0x14DE, This type = 0x14DF, 
	Call type = ThisCall, Func attr = none
	Parms = 1, Arg list type = 0x1046, This adjust = 0

0x14ed : Length = 26, Leaf = 0x1009 LF_MFUNCTION
	Return type = T_32PVOID(0403), Class type = 0x14DE, This type = 0x14DF, 
	Call type = ThisCall, Func attr = none
	Parms = 1, Arg list type = 0x1046, This adjust = 0

0x14ee : Length = 246, Leaf = 0x1203 LF_FIELDLIST
	list[0] = LF_VFUNCTAB, type = 0x101C
	list[1] = LF_METHOD, count = 2, list = 0x14E5, name = 'nested_exception'
	list[2] = LF_ONEMETHOD, public, VANILLA, index = 0x14E7, name = 'operator='
	list[3] = LF_ONEMETHOD, public, INTRODUCING VIRTUAL, index = 0x14E8, 
		vfptr offset = 0, name = '~nested_exception'
	list[4] = LF_ONEMETHOD, public, VANILLA, index = 0x14EA, name = 'rethrow_nested'
	list[5] = LF_ONEMETHOD, public, VANILLA, index = 0x14EB, name = 'nested_ptr'
	list[6] = LF_MEMBER, private, type = 0x148A, offset = 4
		member name = '_Exc'
	list[7] = LF_ONEMETHOD, public, VANILLA, (compgenx), index = 0x14EC, name = '__autoclassinit2'
	list[8] = LF_ONEMETHOD, public, VANILLA, (compgenx), index = 0x14E8, name = '__local_vftable_ctor_closure'
	list[9] = LF_ONEMETHOD, public, INTRODUCING VIRTUAL, (compgenx), index = 0x14ED, 
		vfptr offset = 0, name = '__vecDelDtor'

0x14ef : Length = 70, Leaf = 0x1504 LF_CLASS
	# members = 11,  field list type 0x14ee, CONSTRUCTOR, OVERLOAD, OVERLOADED ASSIGNMENT, 
	Derivation list type 0x0000, VT shape type 0x101b
	Size = 12, class name = std::nested_exception, unique name = .?AVnested_exception@std@@, UDT(0x00001d19)

0x14f0 : Length = 10, Leaf = 0x1002 LF_POINTER
	Pointer (NEAR32), Size: 4
	Element type : 0x145D

0x14f1 : Length = 62, Leaf = 0x1505 LF_STRUCTURE
	# members = 0,  field list type 0x0000, FORWARD REF, 
	Derivation list type 0x0000, VT shape type 0x0000
	Size = 0, class name = _s__CatchableType, unique name = .?AU_s__CatchableType@@, UDT(0x00001821)

0x14f2 : Length = 10, Leaf = 0x1001 LF_MODIFIER
	const, modifies type 0x14F1

0x14f3 : Length = 10, Leaf = 0x1002 LF_POINTER
	Pointer (NEAR32), Size: 4
	Element type : 0x14F2

0x14f4 : Length = 14, Leaf = 0x1503 LF_ARRAY
	Element type = 0x14F3
	Index type = T_ULONG(0022)
	length = 0
	Name = 

0x14f5 : Length = 62, Leaf = 0x1203 LF_FIELDLIST
	list[0] = LF_MEMBER, public, type = T_INT4(0074), offset = 0
		member name = 'nCatchableTypes'
	list[1] = LF_MEMBER, public, type = 0x14F4, offset = 4
		member name = 'arrayOfCatchableTypes'

0x14f6 : Length = 74, Leaf = 0x1505 LF_STRUCTURE
	# members = 2,  field list type 0x14f5, 
	Derivation list type 0x0000, VT shape type 0x0000
	Size = 4, class name = _s__CatchableTypeArray, unique name = .?AU_s__CatchableTypeArray@@, UDT(0x0000182a)

0x14f7 : Length = 50, Leaf = 0x1203 LF_FIELDLIST
	list[0] = LF_MEMBER, public, type = T_INT4(0074), offset = 0
		member name = 'mdisp'
	list[1] = LF_MEMBER, public, type = T_INT4(0074), offset = 4
		member name = 'pdisp'
	list[2] = LF_MEMBER, public, type = T_INT4(0074), offset = 8
		member name = 'vdisp'

0x14f8 : Length = 38, Leaf = 0x1505 LF_STRUCTURE
	# members = 3,  field list type 0x14f7, 
	Derivation list type 0x0000, VT shape type 0x0000
	Size = 12, class name = _PMD, unique name = .?AU_PMD@@, UDT(0x00001730)

0x14f9 : Length = 34, Leaf = 0x1203 LF_FIELDLIST
	list[0] = LF_MEMBER, public, type = T_QUAD(0013), offset = 0
		member name = 'quot'
	list[1] = LF_MEMBER, public, type = T_QUAD(0013), offset = 8
		member name = 'rem'

0x14fa : Length = 46, Leaf = 0x1505 LF_STRUCTURE
	# members = 2,  field list type 0x14f9, 
	Derivation list type 0x0000, VT shape type 0x0000
	Size = 16, class name = _lldiv_t, unique name = .?AU_lldiv_t@@, UDT(0x00001665)

0x14fb : Length = 38, Leaf = 0x1203 LF_FIELDLIST
	list[0] = LF_MEMBER, public, type = 0x101E, offset = 0
		member name = '_What'
	list[1] = LF_MEMBER, public, type = T_BOOL08(0030), offset = 4
		member name = '_DoFree'

0x14fc : Length = 70, Leaf = 0x1505 LF_STRUCTURE
	# members = 2,  field list type 0x14fb, 
	Derivation list type 0x0000, VT shape type 0x0000
	Size = 8, class name = __std_exception_data, unique name = .?AU__std_exception_data@@, UDT(0x0000175a)

0x14fd : Length = 10, Leaf = 0x1002 LF_POINTER
	L-value Reference (NEAR32), Size: 4
	Element type : 0x12CB

0x14fe : Length = 10, Leaf = 0x1201 LF_ARGLIST argument count = 1
	list[0] = 0x14FD

0x14ff : Length = 26, Leaf = 0x1009 LF_MFUNCTION
	Return type = 0x10E0, Class type = 0x106E, This type = 0x139E, 
	Call type = ThisCall, Func attr = none
	Parms = 1, Arg list type = 0x14fe, This adjust = 0

0x1500 : Length = 26, Leaf = 0x1009 LF_MFUNCTION
	Return type = 0x123E, Class type = 0x106E, This type = 0x139E, 
	Call type = ThisCall, Func attr = none
	Parms = 1, Arg list type = 0x14fe, This adjust = 0

0x1501 : Length = 10, Leaf = 0x1002 LF_POINTER
	L-value Reference (NEAR32), Size: 4
	Element type : 0x12AE

0x1502 : Length = 10, Leaf = 0x1201 LF_ARGLIST argument count = 1
	list[0] = 0x1501

0x1503 : Length = 26, Leaf = 0x1009 LF_MFUNCTION
	Return type = 0x1232, Class type = 0x106E, This type = 0x139E, 
	Call type = ThisCall, Func attr = none
	Parms = 1, Arg list type = 0x1502, This adjust = 0

0x1504 : Length = 10, Leaf = 0x1002 LF_POINTER
	L-value Reference (NEAR32), Size: 4
	Element type : 0x1111

0x1505 : Length = 10, Leaf = 0x1201 LF_ARGLIST argument count = 1
	list[0] = 0x1504

0x1506 : Length = 26, Leaf = 0x1009 LF_MFUNCTION
	Return type = 0x1236, Class type = 0x106E, This type = 0x139E, 
	Call type = ThisCall, Func attr = none
	Parms = 1, Arg list type = 0x1505, This adjust = 0

0x1507 : Length = 26, Leaf = 0x1009 LF_MFUNCTION
	Return type = 0x1065, Class type = 0x106E, This type = 0x139E, 
	Call type = ThisCall, Func attr = none
	Parms = 1, Arg list type = 0x14fe, This adjust = 0

0x1508 : Length = 14, Leaf = 0x1201 LF_ARGLIST argument count = 2
	list[0] = T_UINT4(0075)
	list[1] = T_32PVOID(0403)

0x1509 : Length = 14, Leaf = 0x1008 LF_PROCEDURE
	Return type = T_32PVOID(0403), Call type = C Near
	Func attr = none
	# Parms = 2, Arg list type = 0x1508

0x150a : Length = 10, Leaf = 0x1002 LF_POINTER
	const Pointer (NEAR32), Size: 4
	Element type : 0x120C

0x150b : Length = 10, Leaf = 0x1002 LF_POINTER
	const Pointer (NEAR32), Size: 4
	Element type : 0x12DC

0x150c : Length = 10, Leaf = 0x1002 LF_POINTER
	const Pointer (NEAR32), Size: 4
	Element type : 0x1123

0x150d : Length = 10, Leaf = 0x1002 LF_POINTER
	const Pointer (NEAR32), Size: 4
	Element type : 0x12BF

0x150e : Length = 62, Leaf = 0x1504 LF_CLASS
	# members = 0,  field list type 0x0000, FORWARD REF, 
	Derivation list type 0x0000, VT shape type 0x0000
	Size = 0, class name = tinyxml2::XMLUtil, unique name = .?AVXMLUtil@tinyxml2@@

0x150f : Length = 18, Leaf = 0x1201 LF_ARGLIST argument count = 3
	list[0] = T_ULONG(0022)
	list[1] = T_32PRCHAR(0470)
	list[2] = T_32PINT4(0474)

0x1510 : Length = 26, Leaf = 0x1009 LF_MFUNCTION
	Return type = T_VOID(0003), Class type = 0x150E, This type = T_NOTYPE(0000), 
	Call type = C Near, Func attr = none
	Parms = 3, Arg list type = 0x150f, This adjust = 0

0x1511 : Length = 10, Leaf = 0x1001 LF_MODIFIER
	const, modifies type T_ULONG(0022)

0x1512 : Length = 14, Leaf = 0x1503 LF_ARRAY
	Element type = 0x1511
	Index type = T_ULONG(0022)
	length = 28
	Name = 

0x1513 : Length = 18, Leaf = 0x1201 LF_ARGLIST argument count = 3
	list[0] = 0x101E
	list[1] = T_32PRCHAR(0470)
	list[2] = T_32PINT4(0474)

0x1514 : Length = 26, Leaf = 0x1009 LF_MFUNCTION
	Return type = 0x101E, Class type = 0x150E, This type = T_NOTYPE(0000), 
	Call type = C Near, Func attr = none
	Parms = 3, Arg list type = 0x1513, This adjust = 0

0x1515 : Length = 10, Leaf = 0x1002 LF_POINTER
	L-value Reference (NEAR32), Size: 4
	Element type : 0x1465

0x1516 : Length = 18, Leaf = 0x1201 LF_ARGLIST argument count = 3
	list[0] = 0x101E
	list[1] = 0x101E
	list[2] = T_UINT4(0075)

0x1517 : Length = 14, Leaf = 0x1008 LF_PROCEDURE
	Return type = T_INT4(0074), Call type = C Near
	Func attr = none
	# Parms = 3, Arg list type = 0x1516

0x1518 : Length = 10, Leaf = 0x1002 LF_POINTER
	const Pointer (NEAR32), Size: 4
	Element type : T_RCHAR(0070)

0x1519 : Length = 10, Leaf = 0x1201 LF_ARGLIST argument count = 1
	list[0] = T_UCHAR(0020)

0x151a : Length = 26, Leaf = 0x1009 LF_MFUNCTION
	Return type = T_BOOL08(0030), Class type = 0x150E, This type = T_NOTYPE(0000), 
	Call type = C Near, Func attr = none
	Parms = 1, Arg list type = 0x1519, This adjust = 0

0x151b : Length = 26, Leaf = 0x1009 LF_MFUNCTION
	Return type = T_BOOL08(0030), Class type = 0x150E, This type = T_NOTYPE(0000), 
	Call type = C Near, Func attr = none
	Parms = 1, Arg list type = 0x104a, This adjust = 0

0x151c : Length = 10, Leaf = 0x1201 LF_ARGLIST argument count = 1
	list[0] = 0x101D

0x151d : Length = 26, Leaf = 0x1009 LF_MFUNCTION
	Return type = T_BOOL08(0030), Class type = 0x150E, This type = T_NOTYPE(0000), 
	Call type = C Near, Func attr = none
	Parms = 1, Arg list type = 0x151c, This adjust = 0

0x151e : Length = 26, Leaf = 0x1009 LF_MFUNCTION
	Return type = T_BOOL08(0030), Class type = 0x150E, This type = T_NOTYPE(0000), 
	Call type = C Near, Func attr = none
	Parms = 1, Arg list type = 0x10d0, This adjust = 0

0x151f : Length = 14, Leaf = 0x1008 LF_PROCEDURE
	Return type = 0x108D, Call type = C Near
	Func attr = none
	# Parms = 1, Arg list type = 0x1046

0x1520 : Length = 10, Leaf = 0x1002 LF_POINTER
	Pointer (NEAR32), Size: 4
	Element type : 0x141B

0x1521 : Length = 14, Leaf = 0x1503 LF_ARRAY
	Element type = T_RCHAR(0070)
	Index type = T_ULONG(0022)
	length = 200
	Name = 

0x1522 : Length = 14, Leaf = 0x1503 LF_ARRAY
	Element type = 0x1432
	Index type = T_ULONG(0022)
	length = 4
	Name = 

0x1523 : Length = 14, Leaf = 0x1201 LF_ARGLIST argument count = 2
	list[0] = T_INT4(0074)
	list[1] = 0x108D

0x1524 : Length = 14, Leaf = 0x1008 LF_PROCEDURE
	Return type = T_INT4(0074), Call type = C Near
	Func attr = none
	# Parms = 2, Arg list type = 0x1523

0x1525 : Length = 26, Leaf = 0x1009 LF_MFUNCTION
	Return type = 0x101E, Class type = 0x150E, This type = T_NOTYPE(0000), 
	Call type = C Near, Func attr = none
	Parms = 2, Arg list type = 0x1301, This adjust = 0

0x1526 : Length = 10, Leaf = 0x1002 LF_POINTER
	Pointer (NEAR32), Size: 4
	Element type : 0x1432

0x1527 : Length = 26, Leaf = 0x1009 LF_MFUNCTION
	Return type = T_VOID(0003), Class type = 0x150E, This type = T_NOTYPE(0000), 
	Call type = C Near, Func attr = none
	Parms = 2, Arg list type = 0x10a0, This adjust = 0

0x1528 : Length = 14, Leaf = 0x1201 LF_ARGLIST argument count = 2
	list[0] = 0x1518
	list[1] = T_32PINT4(0474)

0x1529 : Length = 26, Leaf = 0x1009 LF_MFUNCTION
	Return type = T_32PRCHAR(0470), Class type = 0x150E, This type = T_NOTYPE(0000), 
	Call type = C Near, Func attr = none
	Parms = 2, Arg list type = 0x1528, This adjust = 0

0x152a : Length = 26, Leaf = 0x1009 LF_MFUNCTION
	Return type = 0x101E, Class type = 0x150E, This type = T_NOTYPE(0000), 
	Call type = C Near, Func attr = none
	Parms = 2, Arg list type = 0x12f9, This adjust = 0

0x152b : Length = 18, Leaf = 0x1201 LF_ARGLIST argument count = 3
	list[0] = 0x101E
	list[1] = 0x101E
	list[2] = T_INT4(0074)

0x152c : Length = 26, Leaf = 0x1009 LF_MFUNCTION
	Return type = T_BOOL08(0030), Class type = 0x150E, This type = T_NOTYPE(0000), 
	Call type = C Near, Func attr = none
	Parms = 3, Arg list type = 0x152b, This adjust = 0

0x152d : Length = 22, Leaf = 0x1201 LF_ARGLIST argument count = 4
	list[0] = T_32PRCHAR(0470)
	list[1] = T_UINT4(0075)
	list[2] = 0x101E
	list[3] = T_NOTYPE(0000)

0x152e : Length = 14, Leaf = 0x1008 LF_PROCEDURE
	Return type = T_INT4(0074), Call type = C Near
	Func attr = none
	# Parms = 4, Arg list type = 0x152d

0x152f : Length = 22, Leaf = 0x1201 LF_ARGLIST argument count = 4
	list[0] = T_32PRCHAR(0470)
	list[1] = T_UINT4(0075)
	list[2] = 0x101E
	list[3] = T_32PRCHAR(0470)

0x1530 : Length = 14, Leaf = 0x1008 LF_PROCEDURE
	Return type = T_INT4(0074), Call type = C Near
	Func attr = none
	# Parms = 4, Arg list type = 0x152f

0x1531 : Length = 26, Leaf = 0x1009 LF_MFUNCTION
	Return type = T_BOOL08(0030), Class type = 0x150E, This type = T_NOTYPE(0000), 
	Call type = C Near, Func attr = none
	Parms = 2, Arg list type = 0x1301, This adjust = 0

0x1532 : Length = 26, Leaf = 0x1009 LF_MFUNCTION
	Return type = T_BOOL08(0030), Class type = 0x150E, This type = T_NOTYPE(0000), 
	Call type = C Near, Func attr = none
	Parms = 2, Arg list type = 0x1303, This adjust = 0

0x1533 : Length = 26, Leaf = 0x1009 LF_MFUNCTION
	Return type = T_BOOL08(0030), Class type = 0x150E, This type = T_NOTYPE(0000), 
	Call type = C Near, Func attr = none
	Parms = 2, Arg list type = 0x1305, This adjust = 0

